
build/kernel-x86_64.bin:     file format elf64-x86-64


Disassembly of section .text:

0000000000100020 <long_mode_start>:
  100020:	e8 a1 00 00 00       	callq  1000c6 <ok>
  100025:	e8 18 00 00 00       	callq  100042 <setup_interrupt_handlers>
  10002a:	48 b8 4f 2f 4b 2f 41 	movabs $0x2f592f412f4b2f4f,%rax
  100031:	2f 59 2f 
  100034:	48 89 04 25 00 80 0b 	mov    %rax,0xb8000
  10003b:	00 
  10003c:	e8 9f 31 00 00       	callq  1031e0 <rust_main>
  100041:	f4                   	hlt    

0000000000100042 <setup_interrupt_handlers>:
  100042:	48 c7 04 25 02 20 11 	movq   $0x112006,0x112002
  100049:	00 06 20 11 00 
  10004e:	66 c7 04 25 00 20 11 	movw   $0x640,0x112000
  100055:	00 40 06 
  100058:	48 b8 d2 00 10 00 00 	movabs $0x1000d2,%rax
  10005f:	00 00 00 
  100062:	b9 63 00 00 00       	mov    $0x63,%ecx

0000000000100067 <setup_interrupt_handlers.setup_idt_loop>:
  100067:	89 cb                	mov    %ecx,%ebx
  100069:	c1 e3 04             	shl    $0x4,%ebx
  10006c:	81 c3 06 20 11 00    	add    $0x112006,%ebx
  100072:	66 67 89 03          	mov    %ax,(%ebx)
  100076:	48 c1 e8 08          	shr    $0x8,%rax
  10007a:	83 c3 02             	add    $0x2,%ebx
  10007d:	66 67 c7 03 01 00    	movw   $0x1,(%ebx)
  100083:	83 c3 02             	add    $0x2,%ebx
  100086:	67 c6 03 00          	movb   $0x0,(%ebx)
  10008a:	83 c3 01             	add    $0x1,%ebx
  10008d:	67 c6 03 0e          	movb   $0xe,(%ebx)
  100091:	83 c3 01             	add    $0x1,%ebx
  100094:	66 67 89 03          	mov    %ax,(%ebx)
  100098:	83 c3 02             	add    $0x2,%ebx
  10009b:	48 c1 e8 10          	shr    $0x10,%rax
  10009f:	67 89 03             	mov    %eax,(%ebx)
  1000a2:	83 c3 04             	add    $0x4,%ebx
  1000a5:	67 c7 03 00 00 00 00 	movl   $0x0,(%ebx)
  1000ac:	89 cb                	mov    %ecx,%ebx
  1000ae:	83 c3 21             	add    $0x21,%ebx
  1000b1:	66 89 1c 25 00 80 0b 	mov    %bx,0xb8000
  1000b8:	00 
  1000b9:	ff c9                	dec    %ecx
  1000bb:	75 aa                	jne    100067 <setup_interrupt_handlers.setup_idt_loop>
  1000bd:	0f 01 1c 25 00 20 11 	lidt   0x112000
  1000c4:	00 
  1000c5:	c3                   	retq   

00000000001000c6 <ok>:
  1000c6:	c7 04 25 00 80 0b 00 	movl   $0x2f4b2f4f,0xb8000
  1000cd:	4f 2f 4b 2f 
  1000d1:	c3                   	retq   

00000000001000d2 <i_ok>:
  1000d2:	c7 04 25 00 80 0b 00 	movl   $0x2f4b2f4f,0xb8000
  1000d9:	4f 2f 4b 2f 
  1000dd:	f4                   	hlt    
  1000de:	cf                   	iret   

00000000001000df <error>:
  1000df:	c7 04 25 00 80 0b 00 	movl   $0x2f524f45,0xb8000
  1000e6:	45 4f 52 2f 
  1000ea:	c7 04 25 04 80 0b 00 	movl   $0x4f3a4f52,0xb8004
  1000f1:	52 4f 3a 4f 
  1000f5:	c7 04 25 08 80 0b 00 	movl   $0x4f204f20,0xb8008
  1000fc:	20 4f 20 4f 
  100100:	88 04 25 0c 80 0b 00 	mov    %al,0xb800c
  100107:	f4                   	hlt    
  100108:	0f 1f 84 00 00 00 00 	nopl   0x0(%rax,%rax,1)
  10010f:	00 

0000000000100110 <start>:
  100110:	bc 00 64 11 00       	mov    $0x116400,%esp
  100115:	89 df                	mov    %ebx,%edi
  100117:	e8 36 00 00 00       	callq  100152 <check_multiboot>
  10011c:	e8 40 00 00 00       	callq  100161 <check_cpuid>
  100121:	e8 56 00 00 00       	callq  10017c <check_long_mode>
  100126:	e8 76 00 00 00       	callq  1001a1 <set_up_page_tables>
  10012b:	e8 aa 00 00 00       	callq  1001da <enable_paging>
  100130:	e8 d0 00 00 00       	callq  100205 <set_up_SSE>
  100135:	0f 01 15 c8 f2 10 00 	lgdt   0x10f2c8(%rip)        # 20f404 <stack_top+0xf9004>
  10013c:	66 b8 10 00          	mov    $0x10,%ax
  100140:	8e d0                	mov    %eax,%ss
  100142:	8e d8                	mov    %eax,%ds
  100144:	8e c0                	mov    %eax,%es
  100146:	ea                   	(bad)  
  100147:	20 00                	and    %al,(%rax)
  100149:	10 00                	adc    %al,(%rax)
  10014b:	08 00                	or     %al,(%rax)
  10014d:	e8 ea 00 00 00       	callq  10023c <error>

0000000000100152 <check_multiboot>:
  100152:	3d 89 62 d7 36       	cmp    $0x36d76289,%eax
  100157:	75 01                	jne    10015a <check_multiboot.no_multiboot>
  100159:	c3                   	retq   

000000000010015a <check_multiboot.no_multiboot>:
  10015a:	b0 30                	mov    $0x30,%al
  10015c:	e9 db 00 00 00       	jmpq   10023c <error>

0000000000100161 <check_cpuid>:
  100161:	9c                   	pushfq 
  100162:	58                   	pop    %rax
  100163:	89 c1                	mov    %eax,%ecx
  100165:	35 00 00 20 00       	xor    $0x200000,%eax
  10016a:	50                   	push   %rax
  10016b:	9d                   	popfq  
  10016c:	9c                   	pushfq 
  10016d:	58                   	pop    %rax
  10016e:	51                   	push   %rcx
  10016f:	9d                   	popfq  
  100170:	39 c8                	cmp    %ecx,%eax
  100172:	74 01                	je     100175 <check_cpuid.no_cpuid>
  100174:	c3                   	retq   

0000000000100175 <check_cpuid.no_cpuid>:
  100175:	b0 31                	mov    $0x31,%al
  100177:	e9 c0 00 00 00       	jmpq   10023c <error>

000000000010017c <check_long_mode>:
  10017c:	b8 00 00 00 80       	mov    $0x80000000,%eax
  100181:	0f a2                	cpuid  
  100183:	3d 01 00 00 80       	cmp    $0x80000001,%eax
  100188:	72 10                	jb     10019a <check_long_mode.no_long_mode>
  10018a:	b8 01 00 00 80       	mov    $0x80000001,%eax
  10018f:	0f a2                	cpuid  
  100191:	f7 c2 00 00 00 20    	test   $0x20000000,%edx
  100197:	74 01                	je     10019a <check_long_mode.no_long_mode>
  100199:	c3                   	retq   

000000000010019a <check_long_mode.no_long_mode>:
  10019a:	b0 32                	mov    $0x32,%al
  10019c:	e9 9b 00 00 00       	jmpq   10023c <error>

00000000001001a1 <set_up_page_tables>:
  1001a1:	b8 00 40 11 00       	mov    $0x114000,%eax
  1001a6:	83 c8 03             	or     $0x3,%eax
  1001a9:	a3 00 30 11 00 b8 00 	movabs %eax,0x115000b800113000
  1001b0:	50 11 
  1001b2:	00 83 c8 03 a3 00    	add    %al,0xa303c8(%rbx)
  1001b8:	40 11 00             	rex adc %eax,(%rax)
  1001bb:	31 c9                	xor    %ecx,%ecx

00000000001001bd <set_up_page_tables.map_p2_table>:
  1001bd:	b8 00 00 20 00       	mov    $0x200000,%eax
  1001c2:	f7 e1                	mul    %ecx
  1001c4:	0d 83 00 00 00       	or     $0x83,%eax
  1001c9:	89 04 cd 00 50 11 00 	mov    %eax,0x115000(,%rcx,8)
  1001d0:	41 81 f9 00 02 00 00 	cmp    $0x200,%r9d
  1001d7:	75 e4                	jne    1001bd <set_up_page_tables.map_p2_table>
  1001d9:	c3                   	retq   

00000000001001da <enable_paging>:
  1001da:	b8 00 30 11 00       	mov    $0x113000,%eax
  1001df:	0f 22 d8             	mov    %rax,%cr3
  1001e2:	0f 20 e0             	mov    %cr4,%rax
  1001e5:	83 c8 20             	or     $0x20,%eax
  1001e8:	0f 22 e0             	mov    %rax,%cr4
  1001eb:	b9 80 00 00 c0       	mov    $0xc0000080,%ecx
  1001f0:	0f 32                	rdmsr  
  1001f2:	0d 00 01 00 00       	or     $0x100,%eax
  1001f7:	0f 30                	wrmsr  
  1001f9:	0f 20 c0             	mov    %cr0,%rax
  1001fc:	0d 00 00 00 80       	or     $0x80000000,%eax
  100201:	0f 22 c0             	mov    %rax,%cr0
  100204:	c3                   	retq   

0000000000100205 <set_up_SSE>:
  100205:	b8 01 00 00 00       	mov    $0x1,%eax
  10020a:	0f a2                	cpuid  
  10020c:	f7 c2 00 00 00 02    	test   $0x2000000,%edx
  100212:	74 19                	je     10022d <set_up_SSE.no_SSE>
  100214:	0f 20 c0             	mov    %cr0,%rax
  100217:	66 83 e0 fb          	and    $0xfffb,%ax
  10021b:	66 83 c8 02          	or     $0x2,%ax
  10021f:	0f 22 c0             	mov    %rax,%cr0
  100222:	0f 20 e0             	mov    %cr4,%rax
  100225:	66 0d 00 06          	or     $0x600,%ax
  100229:	0f 22 e0             	mov    %rax,%cr4
  10022c:	c3                   	retq   

000000000010022d <set_up_SSE.no_SSE>:
  10022d:	b0 61                	mov    $0x61,%al
  10022f:	eb 0b                	jmp    10023c <error>

0000000000100231 <ok>:
  100231:	c7 05 00 80 0b 00 4f 	movl   $0x2f4b2f4f,0xb8000(%rip)        # 1b823b <stack_top+0xa1e3b>
  100238:	2f 4b 2f 
  10023b:	c3                   	retq   

000000000010023c <error>:
  10023c:	c7 05 00 80 0b 00 45 	movl   $0x2f524f45,0xb8000(%rip)        # 1b8246 <stack_top+0xa1e46>
  100243:	4f 52 2f 
  100246:	c7 05 04 80 0b 00 52 	movl   $0x4f3a4f52,0xb8004(%rip)        # 1b8254 <stack_top+0xa1e54>
  10024d:	4f 3a 4f 
  100250:	c7 05 08 80 0b 00 20 	movl   $0x4f204f20,0xb8008(%rip)        # 1b8262 <stack_top+0xa1e62>
  100257:	4f 20 4f 
  10025a:	a2 0c 80 0b 00 f4 55 	movabs %al,0x894855f4000b800c
  100261:	48 89 

0000000000100260 <_ZN13drop_contents17h0da496a0673bac19E>:
  100260:	55                   	push   %rbp
  100261:	48 89 e5             	mov    %rsp,%rbp
  100264:	50                   	push   %rax
  100265:	48 89 7d f8          	mov    %rdi,-0x8(%rbp)
  100269:	48 83 c4 08          	add    $0x8,%rsp
  10026d:	5d                   	pop    %rbp
  10026e:	c3                   	retq   
  10026f:	90                   	nop

0000000000100270 <_ZN13drop_contents17h80e900ba5b592571E>:
  100270:	55                   	push   %rbp
  100271:	48 89 e5             	mov    %rsp,%rbp
  100274:	50                   	push   %rax
  100275:	48 89 7d f8          	mov    %rdi,-0x8(%rbp)
  100279:	48 83 c4 08          	add    $0x8,%rsp
  10027d:	5d                   	pop    %rbp
  10027e:	c3                   	retq   
  10027f:	90                   	nop

0000000000100280 <_ZN35_$LT$core..ptr..Unique$LT$T$GT$$GT$7get_mut17h2e0e666a563b615eE>:
  100280:	55                   	push   %rbp
  100281:	48 89 e5             	mov    %rsp,%rbp
  100284:	48 83 ec 20          	sub    $0x20,%rsp
  100288:	48 89 7d f0          	mov    %rdi,-0x10(%rbp)
  10028c:	48 8b 45 f0          	mov    -0x10(%rbp),%rax
  100290:	48 89 45 e8          	mov    %rax,-0x18(%rbp)
  100294:	48 8b 7d e8          	mov    -0x18(%rbp),%rdi
  100298:	e8 83 21 00 00       	callq  102420 <_ZN63_$LT$core..ptr..Unique$LT$T$GT$$u20$as$u20$core..ops..Deref$GT$5deref17h6843bb1cf0c52deeE>
  10029d:	48 89 45 e0          	mov    %rax,-0x20(%rbp)
  1002a1:	48 8b 45 e0          	mov    -0x20(%rbp),%rax
  1002a5:	48 8b 00             	mov    (%rax),%rax
  1002a8:	48 83 c4 20          	add    $0x20,%rsp
  1002ac:	5d                   	pop    %rbp
  1002ad:	c3                   	retq   
  1002ae:	66 90                	xchg   %ax,%ax

00000000001002b0 <_ZN36_$LT$spin..mutex..Mutex$LT$T$GT$$GT$11obtain_lock17h9fdb6156d33e71eeE>:
  1002b0:	55                   	push   %rbp
  1002b1:	48 89 e5             	mov    %rsp,%rbp
  1002b4:	48 83 ec 30          	sub    $0x30,%rsp
  1002b8:	48 89 7d f8          	mov    %rdi,-0x8(%rbp)
  1002bc:	48 8b 45 f8          	mov    -0x8(%rbp),%rax
  1002c0:	48 89 45 f0          	mov    %rax,-0x10(%rbp)
  1002c4:	31 f6                	xor    %esi,%esi
  1002c6:	ba 01 00 00 00       	mov    $0x1,%edx
  1002cb:	48 8b 7d f0          	mov    -0x10(%rbp),%rdi
  1002cf:	c6 45 ef 04          	movb   $0x4,-0x11(%rbp)
  1002d3:	0f b6 4d ef          	movzbl -0x11(%rbp),%ecx
  1002d7:	e8 c4 10 00 00       	callq  1013a0 <_ZN4core4sync6atomic10AtomicBool16compare_and_swap17h9c902c6fd9ec24ccE>
  1002dc:	88 45 df             	mov    %al,-0x21(%rbp)
  1002df:	eb 06                	jmp    1002e7 <_ZN36_$LT$spin..mutex..Mutex$LT$T$GT$$GT$11obtain_lock17h9fdb6156d33e71eeE+0x37>
  1002e1:	48 83 c4 30          	add    $0x30,%rsp
  1002e5:	5d                   	pop    %rbp
  1002e6:	c3                   	retq   
  1002e7:	31 c0                	xor    %eax,%eax
  1002e9:	88 c1                	mov    %al,%cl
  1002eb:	8a 55 df             	mov    -0x21(%rbp),%dl
  1002ee:	38 ca                	cmp    %cl,%dl
  1002f0:	74 ef                	je     1002e1 <_ZN36_$LT$spin..mutex..Mutex$LT$T$GT$$GT$11obtain_lock17h9fdb6156d33e71eeE+0x31>
  1002f2:	f3 90                	pause  
  1002f4:	eb ce                	jmp    1002c4 <_ZN36_$LT$spin..mutex..Mutex$LT$T$GT$$GT$11obtain_lock17h9fdb6156d33e71eeE+0x14>
  1002f6:	66 2e 0f 1f 84 00 00 	nopw   %cs:0x0(%rax,%rax,1)
  1002fd:	00 00 00 

0000000000100300 <_ZN36_$LT$spin..mutex..Mutex$LT$T$GT$$GT$11obtain_lock17hf887025ae6741434E>:
  100300:	55                   	push   %rbp
  100301:	48 89 e5             	mov    %rsp,%rbp
  100304:	48 83 ec 30          	sub    $0x30,%rsp
  100308:	48 89 7d f8          	mov    %rdi,-0x8(%rbp)
  10030c:	48 8b 45 f8          	mov    -0x8(%rbp),%rax
  100310:	48 89 45 f0          	mov    %rax,-0x10(%rbp)
  100314:	31 f6                	xor    %esi,%esi
  100316:	ba 01 00 00 00       	mov    $0x1,%edx
  10031b:	48 8b 7d f0          	mov    -0x10(%rbp),%rdi
  10031f:	c6 45 ef 04          	movb   $0x4,-0x11(%rbp)
  100323:	0f b6 4d ef          	movzbl -0x11(%rbp),%ecx
  100327:	e8 74 10 00 00       	callq  1013a0 <_ZN4core4sync6atomic10AtomicBool16compare_and_swap17h9c902c6fd9ec24ccE>
  10032c:	88 45 df             	mov    %al,-0x21(%rbp)
  10032f:	eb 06                	jmp    100337 <_ZN36_$LT$spin..mutex..Mutex$LT$T$GT$$GT$11obtain_lock17hf887025ae6741434E+0x37>
  100331:	48 83 c4 30          	add    $0x30,%rsp
  100335:	5d                   	pop    %rbp
  100336:	c3                   	retq   
  100337:	31 c0                	xor    %eax,%eax
  100339:	88 c1                	mov    %al,%cl
  10033b:	8a 55 df             	mov    -0x21(%rbp),%dl
  10033e:	38 ca                	cmp    %cl,%dl
  100340:	74 ef                	je     100331 <_ZN36_$LT$spin..mutex..Mutex$LT$T$GT$$GT$11obtain_lock17hf887025ae6741434E+0x31>
  100342:	f3 90                	pause  
  100344:	eb ce                	jmp    100314 <_ZN36_$LT$spin..mutex..Mutex$LT$T$GT$$GT$11obtain_lock17hf887025ae6741434E+0x14>
  100346:	66 2e 0f 1f 84 00 00 	nopw   %cs:0x0(%rax,%rax,1)
  10034d:	00 00 00 

0000000000100350 <_ZN36_$LT$spin..mutex..Mutex$LT$T$GT$$GT$4lock17h03f1204486b499d4E>:
  100350:	55                   	push   %rbp
  100351:	48 89 e5             	mov    %rsp,%rbp
  100354:	48 83 ec 30          	sub    $0x30,%rsp
  100358:	48 89 f8             	mov    %rdi,%rax
  10035b:	48 89 75 f8          	mov    %rsi,-0x8(%rbp)
  10035f:	48 89 45 e8          	mov    %rax,-0x18(%rbp)
  100363:	48 89 7d e0          	mov    %rdi,-0x20(%rbp)
  100367:	48 8b 45 f8          	mov    -0x8(%rbp),%rax
  10036b:	48 89 45 f0          	mov    %rax,-0x10(%rbp)
  10036f:	48 8b 7d f0          	mov    -0x10(%rbp),%rdi
  100373:	e8 88 ff ff ff       	callq  100300 <_ZN36_$LT$spin..mutex..Mutex$LT$T$GT$$GT$11obtain_lock17hf887025ae6741434E>
  100378:	48 8b 45 f0          	mov    -0x10(%rbp),%rax
  10037c:	48 8b 4d f0          	mov    -0x10(%rbp),%rcx
  100380:	48 83 c1 02          	add    $0x2,%rcx
  100384:	48 89 cf             	mov    %rcx,%rdi
  100387:	48 89 45 d8          	mov    %rax,-0x28(%rbp)
  10038b:	e8 a0 03 00 00       	callq  100730 <_ZN40_$LT$core..cell..UnsafeCell$LT$T$GT$$GT$3get17h3ff4e6203bf13cffE>
  100390:	48 89 45 d0          	mov    %rax,-0x30(%rbp)
  100394:	48 8b 45 e0          	mov    -0x20(%rbp),%rax
  100398:	c6 40 10 d4          	movb   $0xd4,0x10(%rax)
  10039c:	48 8b 4d d8          	mov    -0x28(%rbp),%rcx
  1003a0:	48 89 08             	mov    %rcx,(%rax)
  1003a3:	48 8b 55 d0          	mov    -0x30(%rbp),%rdx
  1003a7:	48 89 50 08          	mov    %rdx,0x8(%rax)
  1003ab:	48 8b 45 e8          	mov    -0x18(%rbp),%rax
  1003af:	48 83 c4 30          	add    $0x30,%rsp
  1003b3:	5d                   	pop    %rbp
  1003b4:	c3                   	retq   
  1003b5:	66 2e 0f 1f 84 00 00 	nopw   %cs:0x0(%rax,%rax,1)
  1003bc:	00 00 00 
  1003bf:	90                   	nop

00000000001003c0 <_ZN36_$LT$spin..mutex..Mutex$LT$T$GT$$GT$4lock17hcc1d961b5e07eeebE>:
  1003c0:	55                   	push   %rbp
  1003c1:	48 89 e5             	mov    %rsp,%rbp
  1003c4:	48 83 ec 30          	sub    $0x30,%rsp
  1003c8:	48 89 f8             	mov    %rdi,%rax
  1003cb:	48 89 75 f8          	mov    %rsi,-0x8(%rbp)
  1003cf:	48 89 45 e8          	mov    %rax,-0x18(%rbp)
  1003d3:	48 89 7d e0          	mov    %rdi,-0x20(%rbp)
  1003d7:	48 8b 45 f8          	mov    -0x8(%rbp),%rax
  1003db:	48 89 45 f0          	mov    %rax,-0x10(%rbp)
  1003df:	48 8b 7d f0          	mov    -0x10(%rbp),%rdi
  1003e3:	e8 c8 fe ff ff       	callq  1002b0 <_ZN36_$LT$spin..mutex..Mutex$LT$T$GT$$GT$11obtain_lock17h9fdb6156d33e71eeE>
  1003e8:	48 8b 45 f0          	mov    -0x10(%rbp),%rax
  1003ec:	48 8b 4d f0          	mov    -0x10(%rbp),%rcx
  1003f0:	48 83 c1 08          	add    $0x8,%rcx
  1003f4:	48 89 cf             	mov    %rcx,%rdi
  1003f7:	48 89 45 d8          	mov    %rax,-0x28(%rbp)
  1003fb:	e8 60 03 00 00       	callq  100760 <_ZN40_$LT$core..cell..UnsafeCell$LT$T$GT$$GT$3get17h800469efd7168e40E>
  100400:	48 89 45 d0          	mov    %rax,-0x30(%rbp)
  100404:	48 8b 45 e0          	mov    -0x20(%rbp),%rax
  100408:	c6 40 10 d4          	movb   $0xd4,0x10(%rax)
  10040c:	48 8b 4d d8          	mov    -0x28(%rbp),%rcx
  100410:	48 89 08             	mov    %rcx,(%rax)
  100413:	48 8b 55 d0          	mov    -0x30(%rbp),%rdx
  100417:	48 89 50 08          	mov    %rdx,0x8(%rax)
  10041b:	48 8b 45 e8          	mov    -0x18(%rbp),%rax
  10041f:	48 83 c4 30          	add    $0x30,%rsp
  100423:	5d                   	pop    %rbp
  100424:	c3                   	retq   
  100425:	66 2e 0f 1f 84 00 00 	nopw   %cs:0x0(%rax,%rax,1)
  10042c:	00 00 00 
  10042f:	90                   	nop

0000000000100430 <_ZN38_$LT$core..option..Option$LT$T$GT$$GT$3map17h3f4d6bfb797995ebE>:
  100430:	55                   	push   %rbp
  100431:	48 89 e5             	mov    %rsp,%rbp
  100434:	48 81 ec 90 00 00 00 	sub    $0x90,%rsp
  10043b:	48 89 f8             	mov    %rdi,%rax
  10043e:	48 89 75 f8          	mov    %rsi,-0x8(%rbp)
  100442:	48 89 55 e8          	mov    %rdx,-0x18(%rbp)
  100446:	48 8b 55 e8          	mov    -0x18(%rbp),%rdx
  10044a:	48 89 55 f0          	mov    %rdx,-0x10(%rbp)
  10044e:	48 89 45 98          	mov    %rax,-0x68(%rbp)
  100452:	48 89 7d 90          	mov    %rdi,-0x70(%rbp)
  100456:	c6 45 bf 00          	movb   $0x0,-0x41(%rbp)
  10045a:	c6 45 be 00          	movb   $0x0,-0x42(%rbp)
  10045e:	c6 45 be 01          	movb   $0x1,-0x42(%rbp)
  100462:	48 8b 45 f8          	mov    -0x8(%rbp),%rax
  100466:	48 89 45 e0          	mov    %rax,-0x20(%rbp)
  10046a:	c6 45 bf 01          	movb   $0x1,-0x41(%rbp)
  10046e:	48 8b 45 f0          	mov    -0x10(%rbp),%rax
  100472:	48 89 45 d8          	mov    %rax,-0x28(%rbp)
  100476:	48 8b 45 e0          	mov    -0x20(%rbp),%rax
  10047a:	48 85 c0             	test   %rax,%rax
  10047d:	0f 95 c1             	setne  %cl
  100480:	88 4d 8f             	mov    %cl,-0x71(%rbp)
  100483:	75 1f                	jne    1004a4 <_ZN38_$LT$core..option..Option$LT$T$GT$$GT$3map17h3f4d6bfb797995ebE+0x74>
  100485:	eb 00                	jmp    100487 <_ZN38_$LT$core..option..Option$LT$T$GT$$GT$3map17h3f4d6bfb797995ebE+0x57>
  100487:	8a 45 8f             	mov    -0x71(%rbp),%al
  10048a:	f6 d0                	not    %al
  10048c:	a8 01                	test   $0x1,%al
  10048e:	0f 84 bc 00 00 00    	je     100550 <_ZN38_$LT$core..option..Option$LT$T$GT$$GT$3map17h7db3fffd5b1d18a3E>
  100494:	eb 00                	jmp    100496 <_ZN38_$LT$core..option..Option$LT$T$GT$$GT$3map17h3f4d6bfb797995ebE+0x66>
  100496:	48 8b 45 90          	mov    -0x70(%rbp),%rax
  10049a:	48 c7 40 08 00 00 00 	movq   $0x0,0x8(%rax)
  1004a1:	00 
  1004a2:	eb 76                	jmp    10051a <_ZN38_$LT$core..option..Option$LT$T$GT$$GT$3map17h3f4d6bfb797995ebE+0xea>
  1004a4:	48 8d 7d a8          	lea    -0x58(%rbp),%rdi
  1004a8:	c6 45 be 00          	movb   $0x0,-0x42(%rbp)
  1004ac:	48 8b 45 e0          	mov    -0x20(%rbp),%rax
  1004b0:	48 89 45 d0          	mov    %rax,-0x30(%rbp)
  1004b4:	c6 45 bf 00          	movb   $0x0,-0x41(%rbp)
  1004b8:	48 8b 45 d8          	mov    -0x28(%rbp),%rax
  1004bc:	48 89 45 c8          	mov    %rax,-0x38(%rbp)
  1004c0:	48 8b 45 d0          	mov    -0x30(%rbp),%rax
  1004c4:	48 89 45 c0          	mov    %rax,-0x40(%rbp)
  1004c8:	48 8b 45 c8          	mov    -0x38(%rbp),%rax
  1004cc:	48 89 45 a0          	mov    %rax,-0x60(%rbp)
  1004d0:	48 8b 55 c0          	mov    -0x40(%rbp),%rdx
  1004d4:	48 89 c6             	mov    %rax,%rsi
  1004d7:	e8 14 3b 00 00       	callq  103ff0 <_ZN81_$LT$core..iter..Enumerate$LT$I$GT$$u20$as$u20$core..iter..iterator..Iterator$GT$4next28_$u7b$$u7b$closure$u7d$$u7d$17h92081411776c22caE>
  1004dc:	48 8b 45 a8          	mov    -0x58(%rbp),%rax
  1004e0:	48 8b 55 b0          	mov    -0x50(%rbp),%rdx
  1004e4:	48 89 45 80          	mov    %rax,-0x80(%rbp)
  1004e8:	48 89 95 78 ff ff ff 	mov    %rdx,-0x88(%rbp)
  1004ef:	48 8b 45 90          	mov    -0x70(%rbp),%rax
  1004f3:	48 8b 4d 80          	mov    -0x80(%rbp),%rcx
  1004f7:	48 89 08             	mov    %rcx,(%rax)
  1004fa:	48 8b 95 78 ff ff ff 	mov    -0x88(%rbp),%rdx
  100501:	48 89 50 08          	mov    %rdx,0x8(%rax)
  100505:	eb 13                	jmp    10051a <_ZN38_$LT$core..option..Option$LT$T$GT$$GT$3map17h3f4d6bfb797995ebE+0xea>
  100507:	48 8b 45 98          	mov    -0x68(%rbp),%rax
  10050b:	48 81 c4 90 00 00 00 	add    $0x90,%rsp
  100512:	5d                   	pop    %rbp
  100513:	c3                   	retq   
  100514:	c6 45 bf 00          	movb   $0x0,-0x41(%rbp)
  100518:	eb 16                	jmp    100530 <_ZN38_$LT$core..option..Option$LT$T$GT$$GT$3map17h3f4d6bfb797995ebE+0x100>
  10051a:	f6 45 bf 01          	testb  $0x1,-0x41(%rbp)
  10051e:	75 f4                	jne    100514 <_ZN38_$LT$core..option..Option$LT$T$GT$$GT$3map17h3f4d6bfb797995ebE+0xe4>
  100520:	eb 0e                	jmp    100530 <_ZN38_$LT$core..option..Option$LT$T$GT$$GT$3map17h3f4d6bfb797995ebE+0x100>
  100522:	eb e3                	jmp    100507 <_ZN38_$LT$core..option..Option$LT$T$GT$$GT$3map17h3f4d6bfb797995ebE+0xd7>
  100524:	f6 45 be 01          	testb  $0x1,-0x42(%rbp)
  100528:	74 dd                	je     100507 <_ZN38_$LT$core..option..Option$LT$T$GT$$GT$3map17h3f4d6bfb797995ebE+0xd7>
  10052a:	c6 45 be 00          	movb   $0x0,-0x42(%rbp)
  10052e:	eb d7                	jmp    100507 <_ZN38_$LT$core..option..Option$LT$T$GT$$GT$3map17h3f4d6bfb797995ebE+0xd7>
  100530:	48 8b 45 e0          	mov    -0x20(%rbp),%rax
  100534:	48 85 c0             	test   %rax,%rax
  100537:	0f 95 c1             	setne  %cl
  10053a:	88 8d 77 ff ff ff    	mov    %cl,-0x89(%rbp)
  100540:	75 e2                	jne    100524 <_ZN38_$LT$core..option..Option$LT$T$GT$$GT$3map17h3f4d6bfb797995ebE+0xf4>
  100542:	eb 00                	jmp    100544 <_ZN38_$LT$core..option..Option$LT$T$GT$$GT$3map17h3f4d6bfb797995ebE+0x114>
  100544:	8a 85 77 ff ff ff    	mov    -0x89(%rbp),%al
  10054a:	a8 01                	test   $0x1,%al
  10054c:	74 d4                	je     100522 <_ZN38_$LT$core..option..Option$LT$T$GT$$GT$3map17h3f4d6bfb797995ebE+0xf2>
  10054e:	eb 00                	jmp    100550 <_ZN38_$LT$core..option..Option$LT$T$GT$$GT$3map17h7db3fffd5b1d18a3E>

0000000000100550 <_ZN38_$LT$core..option..Option$LT$T$GT$$GT$3map17h7db3fffd5b1d18a3E>:
  100550:	55                   	push   %rbp
  100551:	48 89 e5             	mov    %rsp,%rbp
  100554:	48 83 ec 50          	sub    $0x50,%rsp
  100558:	48 89 7d f0          	mov    %rdi,-0x10(%rbp)
  10055c:	c6 45 c7 00          	movb   $0x0,-0x39(%rbp)
  100560:	c6 45 c6 00          	movb   $0x0,-0x3a(%rbp)
  100564:	c6 45 c6 01          	movb   $0x1,-0x3a(%rbp)
  100568:	48 8b 45 f0          	mov    -0x10(%rbp),%rax
  10056c:	48 89 45 e0          	mov    %rax,-0x20(%rbp)
  100570:	c6 45 c7 01          	movb   $0x1,-0x39(%rbp)
  100574:	48 8b 45 e0          	mov    -0x20(%rbp),%rax
  100578:	48 85 c0             	test   %rax,%rax
  10057b:	0f 95 c1             	setne  %cl
  10057e:	88 4d bf             	mov    %cl,-0x41(%rbp)
  100581:	75 13                	jne    100596 <_ZN38_$LT$core..option..Option$LT$T$GT$$GT$3map17h7db3fffd5b1d18a3E+0x46>
  100583:	eb 00                	jmp    100585 <_ZN38_$LT$core..option..Option$LT$T$GT$$GT$3map17h7db3fffd5b1d18a3E+0x35>
  100585:	8a 45 bf             	mov    -0x41(%rbp),%al
  100588:	f6 d0                	not    %al
  10058a:	a8 01                	test   $0x1,%al
  10058c:	74 77                	je     100605 <_ZN38_$LT$core..option..Option$LT$T$GT$$GT$3map17h7db3fffd5b1d18a3E+0xb5>
  10058e:	eb 00                	jmp    100590 <_ZN38_$LT$core..option..Option$LT$T$GT$$GT$3map17h7db3fffd5b1d18a3E+0x40>
  100590:	c6 45 c0 00          	movb   $0x0,-0x40(%rbp)
  100594:	eb 3f                	jmp    1005d5 <_ZN38_$LT$core..option..Option$LT$T$GT$$GT$3map17h7db3fffd5b1d18a3E+0x85>
  100596:	c6 45 c6 00          	movb   $0x0,-0x3a(%rbp)
  10059a:	48 8b 45 e0          	mov    -0x20(%rbp),%rax
  10059e:	48 89 45 d0          	mov    %rax,-0x30(%rbp)
  1005a2:	c6 45 c7 00          	movb   $0x0,-0x39(%rbp)
  1005a6:	48 8b 45 d0          	mov    -0x30(%rbp),%rax
  1005aa:	48 89 45 c8          	mov    %rax,-0x38(%rbp)
  1005ae:	48 89 c7             	mov    %rax,%rdi
  1005b1:	e8 ca 3a 00 00       	callq  104080 <_ZN53_$LT$core..option..Option$LT$$RF$$u27$a$u20$T$GT$$GT$6cloned28_$u7b$$u7b$closure$u7d$$u7d$17h2956de0948f04beeE>
  1005b6:	88 45 be             	mov    %al,-0x42(%rbp)
  1005b9:	c6 45 c0 01          	movb   $0x1,-0x40(%rbp)
  1005bd:	8a 45 be             	mov    -0x42(%rbp),%al
  1005c0:	88 45 c1             	mov    %al,-0x3f(%rbp)
  1005c3:	eb 10                	jmp    1005d5 <_ZN38_$LT$core..option..Option$LT$T$GT$$GT$3map17h7db3fffd5b1d18a3E+0x85>
  1005c5:	66 8b 45 c0          	mov    -0x40(%rbp),%ax
  1005c9:	48 83 c4 50          	add    $0x50,%rsp
  1005cd:	5d                   	pop    %rbp
  1005ce:	c3                   	retq   
  1005cf:	c6 45 c7 00          	movb   $0x0,-0x39(%rbp)
  1005d3:	eb 16                	jmp    1005eb <_ZN38_$LT$core..option..Option$LT$T$GT$$GT$3map17h7db3fffd5b1d18a3E+0x9b>
  1005d5:	f6 45 c7 01          	testb  $0x1,-0x39(%rbp)
  1005d9:	75 f4                	jne    1005cf <_ZN38_$LT$core..option..Option$LT$T$GT$$GT$3map17h7db3fffd5b1d18a3E+0x7f>
  1005db:	eb 0e                	jmp    1005eb <_ZN38_$LT$core..option..Option$LT$T$GT$$GT$3map17h7db3fffd5b1d18a3E+0x9b>
  1005dd:	eb e6                	jmp    1005c5 <_ZN38_$LT$core..option..Option$LT$T$GT$$GT$3map17h7db3fffd5b1d18a3E+0x75>
  1005df:	f6 45 c6 01          	testb  $0x1,-0x3a(%rbp)
  1005e3:	74 e0                	je     1005c5 <_ZN38_$LT$core..option..Option$LT$T$GT$$GT$3map17h7db3fffd5b1d18a3E+0x75>
  1005e5:	c6 45 c6 00          	movb   $0x0,-0x3a(%rbp)
  1005e9:	eb da                	jmp    1005c5 <_ZN38_$LT$core..option..Option$LT$T$GT$$GT$3map17h7db3fffd5b1d18a3E+0x75>
  1005eb:	48 8b 45 e0          	mov    -0x20(%rbp),%rax
  1005ef:	48 85 c0             	test   %rax,%rax
  1005f2:	0f 95 c1             	setne  %cl
  1005f5:	88 4d bd             	mov    %cl,-0x43(%rbp)
  1005f8:	75 e5                	jne    1005df <_ZN38_$LT$core..option..Option$LT$T$GT$$GT$3map17h7db3fffd5b1d18a3E+0x8f>
  1005fa:	eb 00                	jmp    1005fc <_ZN38_$LT$core..option..Option$LT$T$GT$$GT$3map17h7db3fffd5b1d18a3E+0xac>
  1005fc:	8a 45 bd             	mov    -0x43(%rbp),%al
  1005ff:	a8 01                	test   $0x1,%al
  100601:	74 da                	je     1005dd <_ZN38_$LT$core..option..Option$LT$T$GT$$GT$3map17h7db3fffd5b1d18a3E+0x8d>
  100603:	eb 00                	jmp    100605 <_ZN38_$LT$core..option..Option$LT$T$GT$$GT$3map17h7db3fffd5b1d18a3E+0xb5>
  100605:	66 2e 0f 1f 84 00 00 	nopw   %cs:0x0(%rax,%rax,1)
  10060c:	00 00 00 
  10060f:	90                   	nop

0000000000100610 <_ZN38_$LT$core..option..Option$LT$T$GT$$GT$6expect17h3a279f31c26c0a71E>:
  100610:	55                   	push   %rbp
  100611:	48 89 e5             	mov    %rsp,%rbp
  100614:	48 83 ec 60          	sub    $0x60,%rsp
  100618:	48 89 7d f0          	mov    %rdi,-0x10(%rbp)
  10061c:	48 89 75 e0          	mov    %rsi,-0x20(%rbp)
  100620:	48 89 55 e8          	mov    %rdx,-0x18(%rbp)
  100624:	48 8b 45 f0          	mov    -0x10(%rbp),%rax
  100628:	48 89 45 d8          	mov    %rax,-0x28(%rbp)
  10062c:	48 8b 45 e0          	mov    -0x20(%rbp),%rax
  100630:	48 8b 4d e8          	mov    -0x18(%rbp),%rcx
  100634:	48 89 45 c8          	mov    %rax,-0x38(%rbp)
  100638:	48 89 4d d0          	mov    %rcx,-0x30(%rbp)
  10063c:	48 8b 45 d8          	mov    -0x28(%rbp),%rax
  100640:	48 85 c0             	test   %rax,%rax
  100643:	0f 95 c2             	setne  %dl
  100646:	88 55 bf             	mov    %dl,-0x41(%rbp)
  100649:	75 1a                	jne    100665 <_ZN38_$LT$core..option..Option$LT$T$GT$$GT$6expect17h3a279f31c26c0a71E+0x55>
  10064b:	eb 00                	jmp    10064d <_ZN38_$LT$core..option..Option$LT$T$GT$$GT$6expect17h3a279f31c26c0a71E+0x3d>
  10064d:	8a 45 bf             	mov    -0x41(%rbp),%al
  100650:	f6 d0                	not    %al
  100652:	a8 01                	test   $0x1,%al
  100654:	74 47                	je     10069d <_ZN38_$LT$core..option..Option$LT$T$GT$$GT$6expect17h3a279f31c26c0a71E+0x8d>
  100656:	eb 00                	jmp    100658 <_ZN38_$LT$core..option..Option$LT$T$GT$$GT$6expect17h3a279f31c26c0a71E+0x48>
  100658:	48 8b 7d c8          	mov    -0x38(%rbp),%rdi
  10065c:	48 8b 75 d0          	mov    -0x30(%rbp),%rsi
  100660:	e8 0b 68 00 00       	callq  106e70 <_ZN4core6option13expect_failed17h503df6cb4163e3efE>
  100665:	48 8b 45 d8          	mov    -0x28(%rbp),%rax
  100669:	48 89 45 c0          	mov    %rax,-0x40(%rbp)
  10066d:	48 8b 45 c0          	mov    -0x40(%rbp),%rax
  100671:	48 89 45 b0          	mov    %rax,-0x50(%rbp)
  100675:	eb 0c                	jmp    100683 <_ZN38_$LT$core..option..Option$LT$T$GT$$GT$6expect17h3a279f31c26c0a71E+0x73>
  100677:	48 8b 45 b0          	mov    -0x50(%rbp),%rax
  10067b:	48 83 c4 60          	add    $0x60,%rsp
  10067f:	5d                   	pop    %rbp
  100680:	c3                   	retq   
  100681:	eb f4                	jmp    100677 <_ZN38_$LT$core..option..Option$LT$T$GT$$GT$6expect17h3a279f31c26c0a71E+0x67>
  100683:	48 8b 45 d8          	mov    -0x28(%rbp),%rax
  100687:	48 85 c0             	test   %rax,%rax
  10068a:	0f 95 c1             	setne  %cl
  10068d:	88 4d af             	mov    %cl,-0x51(%rbp)
  100690:	75 e5                	jne    100677 <_ZN38_$LT$core..option..Option$LT$T$GT$$GT$6expect17h3a279f31c26c0a71E+0x67>
  100692:	eb 00                	jmp    100694 <_ZN38_$LT$core..option..Option$LT$T$GT$$GT$6expect17h3a279f31c26c0a71E+0x84>
  100694:	8a 45 af             	mov    -0x51(%rbp),%al
  100697:	a8 01                	test   $0x1,%al
  100699:	74 e6                	je     100681 <_ZN38_$LT$core..option..Option$LT$T$GT$$GT$6expect17h3a279f31c26c0a71E+0x71>
  10069b:	eb 00                	jmp    10069d <_ZN38_$LT$core..option..Option$LT$T$GT$$GT$6expect17h3a279f31c26c0a71E+0x8d>
  10069d:	0f 1f 00             	nopl   (%rax)

00000000001006a0 <_ZN38_$LT$core..option..Option$LT$T$GT$$GT$6expect17hc59c0f205e0f0dedE>:
  1006a0:	55                   	push   %rbp
  1006a1:	48 89 e5             	mov    %rsp,%rbp
  1006a4:	48 83 ec 60          	sub    $0x60,%rsp
  1006a8:	48 89 7d f0          	mov    %rdi,-0x10(%rbp)
  1006ac:	48 89 75 e0          	mov    %rsi,-0x20(%rbp)
  1006b0:	48 89 55 e8          	mov    %rdx,-0x18(%rbp)
  1006b4:	48 8b 45 f0          	mov    -0x10(%rbp),%rax
  1006b8:	48 89 45 d8          	mov    %rax,-0x28(%rbp)
  1006bc:	48 8b 45 e0          	mov    -0x20(%rbp),%rax
  1006c0:	48 8b 4d e8          	mov    -0x18(%rbp),%rcx
  1006c4:	48 89 45 c8          	mov    %rax,-0x38(%rbp)
  1006c8:	48 89 4d d0          	mov    %rcx,-0x30(%rbp)
  1006cc:	48 8b 45 d8          	mov    -0x28(%rbp),%rax
  1006d0:	48 85 c0             	test   %rax,%rax
  1006d3:	0f 95 c2             	setne  %dl
  1006d6:	88 55 bf             	mov    %dl,-0x41(%rbp)
  1006d9:	75 1a                	jne    1006f5 <_ZN38_$LT$core..option..Option$LT$T$GT$$GT$6expect17hc59c0f205e0f0dedE+0x55>
  1006db:	eb 00                	jmp    1006dd <_ZN38_$LT$core..option..Option$LT$T$GT$$GT$6expect17hc59c0f205e0f0dedE+0x3d>
  1006dd:	8a 45 bf             	mov    -0x41(%rbp),%al
  1006e0:	f6 d0                	not    %al
  1006e2:	a8 01                	test   $0x1,%al
  1006e4:	74 47                	je     10072d <_ZN38_$LT$core..option..Option$LT$T$GT$$GT$6expect17hc59c0f205e0f0dedE+0x8d>
  1006e6:	eb 00                	jmp    1006e8 <_ZN38_$LT$core..option..Option$LT$T$GT$$GT$6expect17hc59c0f205e0f0dedE+0x48>
  1006e8:	48 8b 7d c8          	mov    -0x38(%rbp),%rdi
  1006ec:	48 8b 75 d0          	mov    -0x30(%rbp),%rsi
  1006f0:	e8 7b 67 00 00       	callq  106e70 <_ZN4core6option13expect_failed17h503df6cb4163e3efE>
  1006f5:	48 8b 45 d8          	mov    -0x28(%rbp),%rax
  1006f9:	48 89 45 c0          	mov    %rax,-0x40(%rbp)
  1006fd:	48 8b 45 c0          	mov    -0x40(%rbp),%rax
  100701:	48 89 45 b0          	mov    %rax,-0x50(%rbp)
  100705:	eb 0c                	jmp    100713 <_ZN38_$LT$core..option..Option$LT$T$GT$$GT$6expect17hc59c0f205e0f0dedE+0x73>
  100707:	48 8b 45 b0          	mov    -0x50(%rbp),%rax
  10070b:	48 83 c4 60          	add    $0x60,%rsp
  10070f:	5d                   	pop    %rbp
  100710:	c3                   	retq   
  100711:	eb f4                	jmp    100707 <_ZN38_$LT$core..option..Option$LT$T$GT$$GT$6expect17hc59c0f205e0f0dedE+0x67>
  100713:	48 8b 45 d8          	mov    -0x28(%rbp),%rax
  100717:	48 85 c0             	test   %rax,%rax
  10071a:	0f 95 c1             	setne  %cl
  10071d:	88 4d af             	mov    %cl,-0x51(%rbp)
  100720:	75 e5                	jne    100707 <_ZN38_$LT$core..option..Option$LT$T$GT$$GT$6expect17hc59c0f205e0f0dedE+0x67>
  100722:	eb 00                	jmp    100724 <_ZN38_$LT$core..option..Option$LT$T$GT$$GT$6expect17hc59c0f205e0f0dedE+0x84>
  100724:	8a 45 af             	mov    -0x51(%rbp),%al
  100727:	a8 01                	test   $0x1,%al
  100729:	74 e6                	je     100711 <_ZN38_$LT$core..option..Option$LT$T$GT$$GT$6expect17hc59c0f205e0f0dedE+0x71>
  10072b:	eb 00                	jmp    10072d <_ZN38_$LT$core..option..Option$LT$T$GT$$GT$6expect17hc59c0f205e0f0dedE+0x8d>
  10072d:	0f 1f 00             	nopl   (%rax)

0000000000100730 <_ZN40_$LT$core..cell..UnsafeCell$LT$T$GT$$GT$3get17h3ff4e6203bf13cffE>:
  100730:	55                   	push   %rbp
  100731:	48 89 e5             	mov    %rsp,%rbp
  100734:	48 83 ec 20          	sub    $0x20,%rsp
  100738:	48 89 7d f0          	mov    %rdi,-0x10(%rbp)
  10073c:	48 8b 45 f0          	mov    -0x10(%rbp),%rax
  100740:	48 89 45 e8          	mov    %rax,-0x18(%rbp)
  100744:	48 8b 45 e8          	mov    -0x18(%rbp),%rax
  100748:	48 89 45 e0          	mov    %rax,-0x20(%rbp)
  10074c:	48 8b 45 e0          	mov    -0x20(%rbp),%rax
  100750:	48 83 c4 20          	add    $0x20,%rsp
  100754:	5d                   	pop    %rbp
  100755:	c3                   	retq   
  100756:	66 2e 0f 1f 84 00 00 	nopw   %cs:0x0(%rax,%rax,1)
  10075d:	00 00 00 

0000000000100760 <_ZN40_$LT$core..cell..UnsafeCell$LT$T$GT$$GT$3get17h800469efd7168e40E>:
  100760:	55                   	push   %rbp
  100761:	48 89 e5             	mov    %rsp,%rbp
  100764:	48 83 ec 20          	sub    $0x20,%rsp
  100768:	48 89 7d f0          	mov    %rdi,-0x10(%rbp)
  10076c:	48 8b 45 f0          	mov    -0x10(%rbp),%rax
  100770:	48 89 45 e8          	mov    %rax,-0x18(%rbp)
  100774:	48 8b 45 e8          	mov    -0x18(%rbp),%rax
  100778:	48 89 45 e0          	mov    %rax,-0x20(%rbp)
  10077c:	48 8b 45 e0          	mov    -0x20(%rbp),%rax
  100780:	48 83 c4 20          	add    $0x20,%rsp
  100784:	5d                   	pop    %rbp
  100785:	c3                   	retq   
  100786:	66 2e 0f 1f 84 00 00 	nopw   %cs:0x0(%rax,%rax,1)
  10078d:	00 00 00 

0000000000100790 <_ZN40_$LT$core..cell..UnsafeCell$LT$T$GT$$GT$3get17he661653c140a9841E>:
  100790:	55                   	push   %rbp
  100791:	48 89 e5             	mov    %rsp,%rbp
  100794:	48 83 ec 20          	sub    $0x20,%rsp
  100798:	48 89 7d f0          	mov    %rdi,-0x10(%rbp)
  10079c:	48 8b 45 f0          	mov    -0x10(%rbp),%rax
  1007a0:	48 89 45 e8          	mov    %rax,-0x18(%rbp)
  1007a4:	48 8b 45 e8          	mov    -0x18(%rbp),%rax
  1007a8:	48 89 45 e0          	mov    %rax,-0x20(%rbp)
  1007ac:	48 8b 45 e0          	mov    -0x20(%rbp),%rax
  1007b0:	48 83 c4 20          	add    $0x20,%rsp
  1007b4:	5d                   	pop    %rbp
  1007b5:	c3                   	retq   
  1007b6:	66 2e 0f 1f 84 00 00 	nopw   %cs:0x0(%rax,%rax,1)
  1007bd:	00 00 00 

00000000001007c0 <_ZN41_$LT$str$u20$as$u20$core..str..StrExt$GT$5bytes17h25d3c1eaab1c59c0E>:
  1007c0:	55                   	push   %rbp
  1007c1:	48 89 e5             	mov    %rsp,%rbp
  1007c4:	48 83 ec 60          	sub    $0x60,%rsp
  1007c8:	48 89 f8             	mov    %rdi,%rax
  1007cb:	48 89 75 f0          	mov    %rsi,-0x10(%rbp)
  1007cf:	48 89 55 f8          	mov    %rdx,-0x8(%rbp)
  1007d3:	48 89 45 b8          	mov    %rax,-0x48(%rbp)
  1007d7:	48 89 7d b0          	mov    %rdi,-0x50(%rbp)
  1007db:	48 8b 45 f0          	mov    -0x10(%rbp),%rax
  1007df:	48 8b 4d f8          	mov    -0x8(%rbp),%rcx
  1007e3:	48 89 45 e0          	mov    %rax,-0x20(%rbp)
  1007e7:	48 89 4d e8          	mov    %rcx,-0x18(%rbp)
  1007eb:	48 8b 7d e0          	mov    -0x20(%rbp),%rdi
  1007ef:	48 8b 75 e8          	mov    -0x18(%rbp),%rsi
  1007f3:	e8 48 00 00 00       	callq  100840 <_ZN41_$LT$str$u20$as$u20$core..str..StrExt$GT$8as_bytes17ha3a4e2a47e792cf8E>
  1007f8:	48 89 45 a8          	mov    %rax,-0x58(%rbp)
  1007fc:	48 89 55 a0          	mov    %rdx,-0x60(%rbp)
  100800:	48 8d 7d c0          	lea    -0x40(%rbp),%rdi
  100804:	48 8b 75 a8          	mov    -0x58(%rbp),%rsi
  100808:	48 8b 55 a0          	mov    -0x60(%rbp),%rdx
  10080c:	e8 4f 17 00 00       	callq  101f60 <_ZN53_$LT$$u5b$T$u5d$$u20$as$u20$core..slice..SliceExt$GT$4iter17h7b0dda1c92ba97edE>
  100811:	48 8d 7d d0          	lea    -0x30(%rbp),%rdi
  100815:	48 8d 75 c0          	lea    -0x40(%rbp),%rsi
  100819:	e8 a2 0a 00 00       	callq  1012c0 <_ZN4core4iter8iterator8Iterator6cloned17heb982401e12d39c6E>
  10081e:	48 8b 45 d0          	mov    -0x30(%rbp),%rax
  100822:	48 8b 4d b0          	mov    -0x50(%rbp),%rcx
  100826:	48 89 01             	mov    %rax,(%rcx)
  100829:	48 8b 45 d8          	mov    -0x28(%rbp),%rax
  10082d:	48 89 41 08          	mov    %rax,0x8(%rcx)
  100831:	48 8b 45 b8          	mov    -0x48(%rbp),%rax
  100835:	48 83 c4 60          	add    $0x60,%rsp
  100839:	5d                   	pop    %rbp
  10083a:	c3                   	retq   
  10083b:	0f 1f 44 00 00       	nopl   0x0(%rax,%rax,1)

0000000000100840 <_ZN41_$LT$str$u20$as$u20$core..str..StrExt$GT$8as_bytes17ha3a4e2a47e792cf8E>:
  100840:	55                   	push   %rbp
  100841:	48 89 e5             	mov    %rsp,%rbp
  100844:	48 83 ec 50          	sub    $0x50,%rsp
  100848:	48 89 7d e0          	mov    %rdi,-0x20(%rbp)
  10084c:	48 89 75 e8          	mov    %rsi,-0x18(%rbp)
  100850:	48 8b 45 e0          	mov    -0x20(%rbp),%rax
  100854:	48 8b 4d e8          	mov    -0x18(%rbp),%rcx
  100858:	48 89 45 d0          	mov    %rax,-0x30(%rbp)
  10085c:	48 89 4d d8          	mov    %rcx,-0x28(%rbp)
  100860:	48 8b 45 d0          	mov    -0x30(%rbp),%rax
  100864:	48 8b 4d d8          	mov    -0x28(%rbp),%rcx
  100868:	48 89 45 c0          	mov    %rax,-0x40(%rbp)
  10086c:	48 89 4d c8          	mov    %rcx,-0x38(%rbp)
  100870:	48 8b 45 c0          	mov    -0x40(%rbp),%rax
  100874:	48 8b 55 c8          	mov    -0x38(%rbp),%rdx
  100878:	48 89 45 b8          	mov    %rax,-0x48(%rbp)
  10087c:	48 89 55 b0          	mov    %rdx,-0x50(%rbp)
  100880:	48 8b 45 b8          	mov    -0x48(%rbp),%rax
  100884:	48 8b 55 b0          	mov    -0x50(%rbp),%rdx
  100888:	48 83 c4 50          	add    $0x50,%rsp
  10088c:	5d                   	pop    %rbp
  10088d:	c3                   	retq   
  10088e:	66 90                	xchg   %ax,%ax

0000000000100890 <_ZN41_$LT$u8$u20$as$u20$core..clone..Clone$GT$5clone17h6751b84c5ec0546dE>:
  100890:	55                   	push   %rbp
  100891:	48 89 e5             	mov    %rsp,%rbp
  100894:	48 83 ec 20          	sub    $0x20,%rsp
  100898:	48 89 7d f0          	mov    %rdi,-0x10(%rbp)
  10089c:	48 8b 45 f0          	mov    -0x10(%rbp),%rax
  1008a0:	48 89 45 e8          	mov    %rax,-0x18(%rbp)
  1008a4:	48 8b 45 e8          	mov    -0x18(%rbp),%rax
  1008a8:	8a 00                	mov    (%rax),%al
  1008aa:	88 45 e7             	mov    %al,-0x19(%rbp)
  1008ad:	8a 45 e7             	mov    -0x19(%rbp),%al
  1008b0:	48 83 c4 20          	add    $0x20,%rsp
  1008b4:	5d                   	pop    %rbp
  1008b5:	c3                   	retq   
  1008b6:	66 2e 0f 1f 84 00 00 	nopw   %cs:0x0(%rax,%rax,1)
  1008bd:	00 00 00 

00000000001008c0 <_ZN44_$LT$char$u20$as$u20$core..char..CharExt$GT$11encode_utf817h7df4fc3325f57883E>:
  1008c0:	55                   	push   %rbp
  1008c1:	48 89 e5             	mov    %rsp,%rbp
  1008c4:	48 83 ec 78          	sub    $0x78,%rsp
  1008c8:	48 89 f8             	mov    %rdi,%rax
  1008cb:	89 75 fc             	mov    %esi,-0x4(%rbp)
  1008ce:	48 89 45 d8          	mov    %rax,-0x28(%rbp)
  1008d2:	48 89 7d d0          	mov    %rdi,-0x30(%rbp)
  1008d6:	48 8d 45 f0          	lea    -0x10(%rbp),%rax
  1008da:	8b 4d fc             	mov    -0x4(%rbp),%ecx
  1008dd:	89 4d f8             	mov    %ecx,-0x8(%rbp)
  1008e0:	8b 4d f8             	mov    -0x8(%rbp),%ecx
  1008e3:	89 4d f4             	mov    %ecx,-0xc(%rbp)
  1008e6:	48 89 c2             	mov    %rax,%rdx
  1008e9:	48 83 c2 04          	add    $0x4,%rdx
  1008ed:	48 89 55 c8          	mov    %rdx,-0x38(%rbp)
  1008f1:	48 89 45 c0          	mov    %rax,-0x40(%rbp)
  1008f5:	e9 85 01 00 00       	jmpq   100a7f <_ZN44_$LT$char$u20$as$u20$core..char..CharExt$GT$11encode_utf817h7df4fc3325f57883E+0x1bf>
  1008fa:	8b 45 f4             	mov    -0xc(%rbp),%eax
  1008fd:	89 45 bc             	mov    %eax,-0x44(%rbp)
  100900:	eb 0b                	jmp    10090d <_ZN44_$LT$char$u20$as$u20$core..char..CharExt$GT$11encode_utf817h7df4fc3325f57883E+0x4d>
  100902:	81 7d f4 00 08 00 00 	cmpl   $0x800,-0xc(%rbp)
  100909:	72 17                	jb     100922 <_ZN44_$LT$char$u20$as$u20$core..char..CharExt$GT$11encode_utf817h7df4fc3325f57883E+0x62>
  10090b:	eb 20                	jmp    10092d <_ZN44_$LT$char$u20$as$u20$core..char..CharExt$GT$11encode_utf817h7df4fc3325f57883E+0x6d>
  10090d:	8b 45 bc             	mov    -0x44(%rbp),%eax
  100910:	88 c1                	mov    %al,%cl
  100912:	88 4d f3             	mov    %cl,-0xd(%rbp)
  100915:	48 c7 45 e8 03 00 00 	movq   $0x3,-0x18(%rbp)
  10091c:	00 
  10091d:	e9 11 01 00 00       	jmpq   100a33 <_ZN44_$LT$char$u20$as$u20$core..char..CharExt$GT$11encode_utf817h7df4fc3325f57883E+0x173>
  100922:	8b 45 f4             	mov    -0xc(%rbp),%eax
  100925:	c1 e8 06             	shr    $0x6,%eax
  100928:	89 45 b8             	mov    %eax,-0x48(%rbp)
  10092b:	eb 0b                	jmp    100938 <_ZN44_$LT$char$u20$as$u20$core..char..CharExt$GT$11encode_utf817h7df4fc3325f57883E+0x78>
  10092d:	81 7d f4 00 00 01 00 	cmpl   $0x10000,-0xc(%rbp)
  100934:	72 35                	jb     10096b <_ZN44_$LT$char$u20$as$u20$core..char..CharExt$GT$11encode_utf817h7df4fc3325f57883E+0xab>
  100936:	eb 3e                	jmp    100976 <_ZN44_$LT$char$u20$as$u20$core..char..CharExt$GT$11encode_utf817h7df4fc3325f57883E+0xb6>
  100938:	8b 45 b8             	mov    -0x48(%rbp),%eax
  10093b:	83 e0 1f             	and    $0x1f,%eax
  10093e:	88 c1                	mov    %al,%cl
  100940:	88 4d b7             	mov    %cl,-0x49(%rbp)
  100943:	8a 45 b7             	mov    -0x49(%rbp),%al
  100946:	0c c0                	or     $0xc0,%al
  100948:	88 45 f2             	mov    %al,-0xe(%rbp)
  10094b:	8b 4d f4             	mov    -0xc(%rbp),%ecx
  10094e:	83 e1 3f             	and    $0x3f,%ecx
  100951:	88 c8                	mov    %cl,%al
  100953:	88 45 b6             	mov    %al,-0x4a(%rbp)
  100956:	8a 45 b6             	mov    -0x4a(%rbp),%al
  100959:	0c 80                	or     $0x80,%al
  10095b:	88 45 f3             	mov    %al,-0xd(%rbp)
  10095e:	48 c7 45 e8 02 00 00 	movq   $0x2,-0x18(%rbp)
  100965:	00 
  100966:	e9 c8 00 00 00       	jmpq   100a33 <_ZN44_$LT$char$u20$as$u20$core..char..CharExt$GT$11encode_utf817h7df4fc3325f57883E+0x173>
  10096b:	8b 45 f4             	mov    -0xc(%rbp),%eax
  10096e:	c1 e8 0c             	shr    $0xc,%eax
  100971:	89 45 b0             	mov    %eax,-0x50(%rbp)
  100974:	eb 0b                	jmp    100981 <_ZN44_$LT$char$u20$as$u20$core..char..CharExt$GT$11encode_utf817h7df4fc3325f57883E+0xc1>
  100976:	8b 45 f4             	mov    -0xc(%rbp),%eax
  100979:	c1 e8 12             	shr    $0x12,%eax
  10097c:	89 45 ac             	mov    %eax,-0x54(%rbp)
  10097f:	eb 4c                	jmp    1009cd <_ZN44_$LT$char$u20$as$u20$core..char..CharExt$GT$11encode_utf817h7df4fc3325f57883E+0x10d>
  100981:	8b 45 b0             	mov    -0x50(%rbp),%eax
  100984:	83 e0 0f             	and    $0xf,%eax
  100987:	88 c1                	mov    %al,%cl
  100989:	88 4d ab             	mov    %cl,-0x55(%rbp)
  10098c:	8a 45 ab             	mov    -0x55(%rbp),%al
  10098f:	0c e0                	or     $0xe0,%al
  100991:	88 45 f1             	mov    %al,-0xf(%rbp)
  100994:	8b 4d f4             	mov    -0xc(%rbp),%ecx
  100997:	c1 e9 06             	shr    $0x6,%ecx
  10099a:	89 4d a4             	mov    %ecx,-0x5c(%rbp)
  10099d:	8b 45 a4             	mov    -0x5c(%rbp),%eax
  1009a0:	83 e0 3f             	and    $0x3f,%eax
  1009a3:	88 c1                	mov    %al,%cl
  1009a5:	88 4d a3             	mov    %cl,-0x5d(%rbp)
  1009a8:	8a 45 a3             	mov    -0x5d(%rbp),%al
  1009ab:	0c 80                	or     $0x80,%al
  1009ad:	88 45 f2             	mov    %al,-0xe(%rbp)
  1009b0:	8b 4d f4             	mov    -0xc(%rbp),%ecx
  1009b3:	83 e1 3f             	and    $0x3f,%ecx
  1009b6:	88 c8                	mov    %cl,%al
  1009b8:	88 45 a2             	mov    %al,-0x5e(%rbp)
  1009bb:	8a 45 a2             	mov    -0x5e(%rbp),%al
  1009be:	0c 80                	or     $0x80,%al
  1009c0:	88 45 f3             	mov    %al,-0xd(%rbp)
  1009c3:	48 c7 45 e8 01 00 00 	movq   $0x1,-0x18(%rbp)
  1009ca:	00 
  1009cb:	eb 66                	jmp    100a33 <_ZN44_$LT$char$u20$as$u20$core..char..CharExt$GT$11encode_utf817h7df4fc3325f57883E+0x173>
  1009cd:	8b 45 ac             	mov    -0x54(%rbp),%eax
  1009d0:	83 e0 07             	and    $0x7,%eax
  1009d3:	88 c1                	mov    %al,%cl
  1009d5:	88 4d a1             	mov    %cl,-0x5f(%rbp)
  1009d8:	8a 45 a1             	mov    -0x5f(%rbp),%al
  1009db:	0c f0                	or     $0xf0,%al
  1009dd:	88 45 f0             	mov    %al,-0x10(%rbp)
  1009e0:	8b 4d f4             	mov    -0xc(%rbp),%ecx
  1009e3:	c1 e9 0c             	shr    $0xc,%ecx
  1009e6:	89 4d 9c             	mov    %ecx,-0x64(%rbp)
  1009e9:	8b 45 9c             	mov    -0x64(%rbp),%eax
  1009ec:	83 e0 3f             	and    $0x3f,%eax
  1009ef:	88 c1                	mov    %al,%cl
  1009f1:	88 4d 9b             	mov    %cl,-0x65(%rbp)
  1009f4:	8a 45 9b             	mov    -0x65(%rbp),%al
  1009f7:	0c 80                	or     $0x80,%al
  1009f9:	88 45 f1             	mov    %al,-0xf(%rbp)
  1009fc:	8b 4d f4             	mov    -0xc(%rbp),%ecx
  1009ff:	c1 e9 06             	shr    $0x6,%ecx
  100a02:	89 4d 94             	mov    %ecx,-0x6c(%rbp)
  100a05:	8b 45 94             	mov    -0x6c(%rbp),%eax
  100a08:	83 e0 3f             	and    $0x3f,%eax
  100a0b:	88 c1                	mov    %al,%cl
  100a0d:	88 4d 93             	mov    %cl,-0x6d(%rbp)
  100a10:	8a 45 93             	mov    -0x6d(%rbp),%al
  100a13:	0c 80                	or     $0x80,%al
  100a15:	88 45 f2             	mov    %al,-0xe(%rbp)
  100a18:	8b 4d f4             	mov    -0xc(%rbp),%ecx
  100a1b:	83 e1 3f             	and    $0x3f,%ecx
  100a1e:	88 c8                	mov    %cl,%al
  100a20:	88 45 92             	mov    %al,-0x6e(%rbp)
  100a23:	8a 45 92             	mov    -0x6e(%rbp),%al
  100a26:	0c 80                	or     $0x80,%al
  100a28:	88 45 f3             	mov    %al,-0xd(%rbp)
  100a2b:	48 c7 45 e8 00 00 00 	movq   $0x0,-0x18(%rbp)
  100a32:	00 
  100a33:	8a 45 f0             	mov    -0x10(%rbp),%al
  100a36:	8a 4d f1             	mov    -0xf(%rbp),%cl
  100a39:	8a 55 f2             	mov    -0xe(%rbp),%dl
  100a3c:	40 8a 75 f3          	mov    -0xd(%rbp),%sil
  100a40:	40 88 75 e7          	mov    %sil,-0x19(%rbp)
  100a44:	88 55 e6             	mov    %dl,-0x1a(%rbp)
  100a47:	88 4d e5             	mov    %cl,-0x1b(%rbp)
  100a4a:	88 45 e4             	mov    %al,-0x1c(%rbp)
  100a4d:	48 8b 7d e8          	mov    -0x18(%rbp),%rdi
  100a51:	8a 45 e4             	mov    -0x1c(%rbp),%al
  100a54:	8a 4d e5             	mov    -0x1b(%rbp),%cl
  100a57:	8a 55 e6             	mov    -0x1a(%rbp),%dl
  100a5a:	40 8a 75 e7          	mov    -0x19(%rbp),%sil
  100a5e:	4c 8b 45 d0          	mov    -0x30(%rbp),%r8
  100a62:	41 88 70 03          	mov    %sil,0x3(%r8)
  100a66:	41 88 50 02          	mov    %dl,0x2(%r8)
  100a6a:	41 88 48 01          	mov    %cl,0x1(%r8)
  100a6e:	41 88 00             	mov    %al,(%r8)
  100a71:	49 89 78 08          	mov    %rdi,0x8(%r8)
  100a75:	48 8b 45 d8          	mov    -0x28(%rbp),%rax
  100a79:	48 83 c4 78          	add    $0x78,%rsp
  100a7d:	5d                   	pop    %rbp
  100a7e:	c3                   	retq   
  100a7f:	48 8b 45 c0          	mov    -0x40(%rbp),%rax
  100a83:	48 8b 4d c8          	mov    -0x38(%rbp),%rcx
  100a87:	48 39 c8             	cmp    %rcx,%rax
  100a8a:	48 89 45 88          	mov    %rax,-0x78(%rbp)
  100a8e:	73 11                	jae    100aa1 <_ZN44_$LT$char$u20$as$u20$core..char..CharExt$GT$11encode_utf817h7df4fc3325f57883E+0x1e1>
  100a90:	48 8b 45 88          	mov    -0x78(%rbp),%rax
  100a94:	c6 00 00             	movb   $0x0,(%rax)
  100a97:	48 83 c0 01          	add    $0x1,%rax
  100a9b:	48 89 45 c0          	mov    %rax,-0x40(%rbp)
  100a9f:	eb de                	jmp    100a7f <_ZN44_$LT$char$u20$as$u20$core..char..CharExt$GT$11encode_utf817h7df4fc3325f57883E+0x1bf>
  100aa1:	81 7d f4 80 00 00 00 	cmpl   $0x80,-0xc(%rbp)
  100aa8:	0f 82 4c fe ff ff    	jb     1008fa <_ZN44_$LT$char$u20$as$u20$core..char..CharExt$GT$11encode_utf817h7df4fc3325f57883E+0x3a>
  100aae:	e9 4f fe ff ff       	jmpq   100902 <_ZN44_$LT$char$u20$as$u20$core..char..CharExt$GT$11encode_utf817h7df4fc3325f57883E+0x42>
  100ab3:	66 2e 0f 1f 84 00 00 	nopw   %cs:0x0(%rax,%rax,1)
  100aba:	00 00 00 
  100abd:	0f 1f 00             	nopl   (%rax)

0000000000100ac0 <_ZN47_$LT$core..result..Result$LT$T$C$$u20$E$GT$$GT$6unwrap17h6a65383c3a5182fcE>:
  100ac0:	55                   	push   %rbp
  100ac1:	48 89 e5             	mov    %rsp,%rbp
  100ac4:	48 83 ec 30          	sub    $0x30,%rsp
  100ac8:	40 88 f8             	mov    %dil,%al
  100acb:	88 45 f7             	mov    %al,-0x9(%rbp)
  100ace:	8a 45 f7             	mov    -0x9(%rbp),%al
  100ad1:	88 45 f8             	mov    %al,-0x8(%rbp)
  100ad4:	8a 45 f8             	mov    -0x8(%rbp),%al
  100ad7:	88 45 f0             	mov    %al,-0x10(%rbp)
  100ada:	84 c0                	test   %al,%al
  100adc:	88 45 df             	mov    %al,-0x21(%rbp)
  100adf:	74 0e                	je     100aef <_ZN47_$LT$core..result..Result$LT$T$C$$u20$E$GT$$GT$6unwrap17h6a65383c3a5182fcE+0x2f>
  100ae1:	eb 00                	jmp    100ae3 <_ZN47_$LT$core..result..Result$LT$T$C$$u20$E$GT$$GT$6unwrap17h6a65383c3a5182fcE+0x23>
  100ae3:	8a 45 df             	mov    -0x21(%rbp),%al
  100ae6:	2c 01                	sub    $0x1,%al
  100ae8:	88 45 de             	mov    %al,-0x22(%rbp)
  100aeb:	74 04                	je     100af1 <_ZN47_$LT$core..result..Result$LT$T$C$$u20$E$GT$$GT$6unwrap17h6a65383c3a5182fcE+0x31>
  100aed:	eb 35                	jmp    100b24 <_ZN47_$LT$core..result..Result$LT$T$C$$u20$E$GT$$GT$6unwrap17h6a65383c3a5182fcE+0x64>
  100aef:	eb 1b                	jmp    100b0c <_ZN47_$LT$core..result..Result$LT$T$C$$u20$E$GT$$GT$6unwrap17h6a65383c3a5182fcE+0x4c>
  100af1:	48 8d 3d 38 e8 00 00 	lea    0xe838(%rip),%rdi        # 10f330 <str3362>
  100af8:	b8 2b 00 00 00       	mov    $0x2b,%eax
  100afd:	89 c6                	mov    %eax,%esi
  100aff:	e8 cc 10 00 00       	callq  101bd0 <_ZN4core6result13unwrap_failed17h2281db82013e9106E>
  100b04:	48 83 c4 30          	add    $0x30,%rsp
  100b08:	5d                   	pop    %rbp
  100b09:	c3                   	retq   
  100b0a:	eb f8                	jmp    100b04 <_ZN47_$LT$core..result..Result$LT$T$C$$u20$E$GT$$GT$6unwrap17h6a65383c3a5182fcE+0x44>
  100b0c:	8a 45 f0             	mov    -0x10(%rbp),%al
  100b0f:	84 c0                	test   %al,%al
  100b11:	88 45 dd             	mov    %al,-0x23(%rbp)
  100b14:	74 ee                	je     100b04 <_ZN47_$LT$core..result..Result$LT$T$C$$u20$E$GT$$GT$6unwrap17h6a65383c3a5182fcE+0x44>
  100b16:	eb 00                	jmp    100b18 <_ZN47_$LT$core..result..Result$LT$T$C$$u20$E$GT$$GT$6unwrap17h6a65383c3a5182fcE+0x58>
  100b18:	8a 45 dd             	mov    -0x23(%rbp),%al
  100b1b:	2c 01                	sub    $0x1,%al
  100b1d:	88 45 dc             	mov    %al,-0x24(%rbp)
  100b20:	74 e8                	je     100b0a <_ZN47_$LT$core..result..Result$LT$T$C$$u20$E$GT$$GT$6unwrap17h6a65383c3a5182fcE+0x4a>
  100b22:	eb 00                	jmp    100b24 <_ZN47_$LT$core..result..Result$LT$T$C$$u20$E$GT$$GT$6unwrap17h6a65383c3a5182fcE+0x64>
  100b24:	66 2e 0f 1f 84 00 00 	nopw   %cs:0x0(%rax,%rax,1)
  100b2b:	00 00 00 
  100b2e:	66 90                	xchg   %ax,%ax

0000000000100b30 <_ZN49_$LT$usize$u20$as$u20$core..iter..range..Step$GT$7add_one17hf8bf05f63b081aa0E>:
  100b30:	55                   	push   %rbp
  100b31:	48 89 e5             	mov    %rsp,%rbp
  100b34:	48 83 ec 20          	sub    $0x20,%rsp
  100b38:	48 89 7d f0          	mov    %rdi,-0x10(%rbp)
  100b3c:	48 8b 45 f0          	mov    -0x10(%rbp),%rax
  100b40:	48 89 45 e8          	mov    %rax,-0x18(%rbp)
  100b44:	48 8b 45 e8          	mov    -0x18(%rbp),%rax
  100b48:	48 8b 00             	mov    (%rax),%rax
  100b4b:	48 83 c0 01          	add    $0x1,%rax
  100b4f:	0f 92 c1             	setb   %cl
  100b52:	f6 c1 01             	test   $0x1,%cl
  100b55:	48 89 45 e0          	mov    %rax,-0x20(%rbp)
  100b59:	75 0a                	jne    100b65 <_ZN49_$LT$usize$u20$as$u20$core..iter..range..Step$GT$7add_one17hf8bf05f63b081aa0E+0x35>
  100b5b:	48 8b 45 e0          	mov    -0x20(%rbp),%rax
  100b5f:	48 83 c4 20          	add    $0x20,%rsp
  100b63:	5d                   	pop    %rbp
  100b64:	c3                   	retq   
  100b65:	48 8d 3d b4 f3 00 00 	lea    0xf3b4(%rip),%rdi        # 10ff20 <panic_loc3367>
  100b6c:	e8 1f 49 00 00       	callq  105490 <_ZN4core9panicking5panic17h585bd70cda921012E>
  100b71:	66 2e 0f 1f 84 00 00 	nopw   %cs:0x0(%rax,%rax,1)
  100b78:	00 00 00 
  100b7b:	0f 1f 44 00 00       	nopl   0x0(%rax,%rax,1)

0000000000100b80 <_ZN4core3cmp5impls57_$LT$impl$u20$core..cmp..PartialOrd$u20$for$u20$usize$GT$2lt17hd644d2d93a548c2aE>:
  100b80:	55                   	push   %rbp
  100b81:	48 89 e5             	mov    %rsp,%rbp
  100b84:	48 83 ec 30          	sub    $0x30,%rsp
  100b88:	48 89 7d f0          	mov    %rdi,-0x10(%rbp)
  100b8c:	48 89 75 e8          	mov    %rsi,-0x18(%rbp)
  100b90:	48 8b 45 f0          	mov    -0x10(%rbp),%rax
  100b94:	48 89 45 e0          	mov    %rax,-0x20(%rbp)
  100b98:	48 8b 45 e8          	mov    -0x18(%rbp),%rax
  100b9c:	48 89 45 d8          	mov    %rax,-0x28(%rbp)
  100ba0:	48 8b 45 e0          	mov    -0x20(%rbp),%rax
  100ba4:	48 8b 00             	mov    (%rax),%rax
  100ba7:	48 8b 4d d8          	mov    -0x28(%rbp),%rcx
  100bab:	48 3b 01             	cmp    (%rcx),%rax
  100bae:	0f 92 c2             	setb   %dl
  100bb1:	88 55 d7             	mov    %dl,-0x29(%rbp)
  100bb4:	8a 45 d7             	mov    -0x29(%rbp),%al
  100bb7:	24 01                	and    $0x1,%al
  100bb9:	0f b6 c0             	movzbl %al,%eax
  100bbc:	48 83 c4 30          	add    $0x30,%rsp
  100bc0:	5d                   	pop    %rbp
  100bc1:	c3                   	retq   
  100bc2:	66 2e 0f 1f 84 00 00 	nopw   %cs:0x0(%rax,%rax,1)
  100bc9:	00 00 00 
  100bcc:	0f 1f 40 00          	nopl   0x0(%rax)

0000000000100bd0 <_ZN4core3fmt10ArgumentV13new17h190f0d83f1bf27fdE>:
  100bd0:	55                   	push   %rbp
  100bd1:	48 89 e5             	mov    %rsp,%rbp
  100bd4:	48 83 ec 50          	sub    $0x50,%rsp
  100bd8:	48 89 f8             	mov    %rdi,%rax
  100bdb:	48 89 75 f8          	mov    %rsi,-0x8(%rbp)
  100bdf:	48 89 55 f0          	mov    %rdx,-0x10(%rbp)
  100be3:	48 89 45 c8          	mov    %rax,-0x38(%rbp)
  100be7:	48 89 7d c0          	mov    %rdi,-0x40(%rbp)
  100beb:	48 8b 45 f8          	mov    -0x8(%rbp),%rax
  100bef:	48 89 45 e8          	mov    %rax,-0x18(%rbp)
  100bf3:	48 8b 45 f0          	mov    -0x10(%rbp),%rax
  100bf7:	48 89 45 e0          	mov    %rax,-0x20(%rbp)
  100bfb:	48 8b 45 e0          	mov    -0x20(%rbp),%rax
  100bff:	48 89 45 d8          	mov    %rax,-0x28(%rbp)
  100c03:	48 8b 45 d8          	mov    -0x28(%rbp),%rax
  100c07:	48 89 45 b8          	mov    %rax,-0x48(%rbp)
  100c0b:	48 8b 45 e8          	mov    -0x18(%rbp),%rax
  100c0f:	48 89 45 d0          	mov    %rax,-0x30(%rbp)
  100c13:	48 8b 45 d0          	mov    -0x30(%rbp),%rax
  100c17:	48 89 45 b0          	mov    %rax,-0x50(%rbp)
  100c1b:	48 8b 45 c0          	mov    -0x40(%rbp),%rax
  100c1f:	48 8b 4d b0          	mov    -0x50(%rbp),%rcx
  100c23:	48 89 08             	mov    %rcx,(%rax)
  100c26:	48 8b 55 b8          	mov    -0x48(%rbp),%rdx
  100c2a:	48 89 50 08          	mov    %rdx,0x8(%rax)
  100c2e:	48 8b 45 c8          	mov    -0x38(%rbp),%rax
  100c32:	48 83 c4 50          	add    $0x50,%rsp
  100c36:	5d                   	pop    %rbp
  100c37:	c3                   	retq   
  100c38:	0f 1f 84 00 00 00 00 	nopl   0x0(%rax,%rax,1)
  100c3f:	00 

0000000000100c40 <_ZN4core3fmt10ArgumentV13new17h5896756d47a52523E>:
  100c40:	55                   	push   %rbp
  100c41:	48 89 e5             	mov    %rsp,%rbp
  100c44:	48 83 ec 50          	sub    $0x50,%rsp
  100c48:	48 89 f8             	mov    %rdi,%rax
  100c4b:	48 89 75 f8          	mov    %rsi,-0x8(%rbp)
  100c4f:	48 89 55 f0          	mov    %rdx,-0x10(%rbp)
  100c53:	48 89 45 c8          	mov    %rax,-0x38(%rbp)
  100c57:	48 89 7d c0          	mov    %rdi,-0x40(%rbp)
  100c5b:	48 8b 45 f8          	mov    -0x8(%rbp),%rax
  100c5f:	48 89 45 e8          	mov    %rax,-0x18(%rbp)
  100c63:	48 8b 45 f0          	mov    -0x10(%rbp),%rax
  100c67:	48 89 45 e0          	mov    %rax,-0x20(%rbp)
  100c6b:	48 8b 45 e0          	mov    -0x20(%rbp),%rax
  100c6f:	48 89 45 d8          	mov    %rax,-0x28(%rbp)
  100c73:	48 8b 45 d8          	mov    -0x28(%rbp),%rax
  100c77:	48 89 45 b8          	mov    %rax,-0x48(%rbp)
  100c7b:	48 8b 45 e8          	mov    -0x18(%rbp),%rax
  100c7f:	48 89 45 d0          	mov    %rax,-0x30(%rbp)
  100c83:	48 8b 45 d0          	mov    -0x30(%rbp),%rax
  100c87:	48 89 45 b0          	mov    %rax,-0x50(%rbp)
  100c8b:	48 8b 45 c0          	mov    -0x40(%rbp),%rax
  100c8f:	48 8b 4d b0          	mov    -0x50(%rbp),%rcx
  100c93:	48 89 08             	mov    %rcx,(%rax)
  100c96:	48 8b 55 b8          	mov    -0x48(%rbp),%rdx
  100c9a:	48 89 50 08          	mov    %rdx,0x8(%rax)
  100c9e:	48 8b 45 c8          	mov    -0x38(%rbp),%rax
  100ca2:	48 83 c4 50          	add    $0x50,%rsp
  100ca6:	5d                   	pop    %rbp
  100ca7:	c3                   	retq   
  100ca8:	0f 1f 84 00 00 00 00 	nopl   0x0(%rax,%rax,1)
  100caf:	00 

0000000000100cb0 <_ZN4core3fmt10ArgumentV13new17h710935a10de9157aE>:
  100cb0:	55                   	push   %rbp
  100cb1:	48 89 e5             	mov    %rsp,%rbp
  100cb4:	48 83 ec 50          	sub    $0x50,%rsp
  100cb8:	48 89 f8             	mov    %rdi,%rax
  100cbb:	48 89 75 f8          	mov    %rsi,-0x8(%rbp)
  100cbf:	48 89 55 f0          	mov    %rdx,-0x10(%rbp)
  100cc3:	48 89 45 c8          	mov    %rax,-0x38(%rbp)
  100cc7:	48 89 7d c0          	mov    %rdi,-0x40(%rbp)
  100ccb:	48 8b 45 f8          	mov    -0x8(%rbp),%rax
  100ccf:	48 89 45 e8          	mov    %rax,-0x18(%rbp)
  100cd3:	48 8b 45 f0          	mov    -0x10(%rbp),%rax
  100cd7:	48 89 45 e0          	mov    %rax,-0x20(%rbp)
  100cdb:	48 8b 45 e0          	mov    -0x20(%rbp),%rax
  100cdf:	48 89 45 d8          	mov    %rax,-0x28(%rbp)
  100ce3:	48 8b 45 d8          	mov    -0x28(%rbp),%rax
  100ce7:	48 89 45 b8          	mov    %rax,-0x48(%rbp)
  100ceb:	48 8b 45 e8          	mov    -0x18(%rbp),%rax
  100cef:	48 89 45 d0          	mov    %rax,-0x30(%rbp)
  100cf3:	48 8b 45 d0          	mov    -0x30(%rbp),%rax
  100cf7:	48 89 45 b0          	mov    %rax,-0x50(%rbp)
  100cfb:	48 8b 45 c0          	mov    -0x40(%rbp),%rax
  100cff:	48 8b 4d b0          	mov    -0x50(%rbp),%rcx
  100d03:	48 89 08             	mov    %rcx,(%rax)
  100d06:	48 8b 55 b8          	mov    -0x48(%rbp),%rdx
  100d0a:	48 89 50 08          	mov    %rdx,0x8(%rax)
  100d0e:	48 8b 45 c8          	mov    -0x38(%rbp),%rax
  100d12:	48 83 c4 50          	add    $0x50,%rsp
  100d16:	5d                   	pop    %rbp
  100d17:	c3                   	retq   
  100d18:	0f 1f 84 00 00 00 00 	nopl   0x0(%rax,%rax,1)
  100d1f:	00 

0000000000100d20 <_ZN4core3fmt10ArgumentV13new17ha44b0589c3ad86f4E>:
  100d20:	55                   	push   %rbp
  100d21:	48 89 e5             	mov    %rsp,%rbp
  100d24:	48 83 ec 50          	sub    $0x50,%rsp
  100d28:	48 89 f8             	mov    %rdi,%rax
  100d2b:	48 89 75 f8          	mov    %rsi,-0x8(%rbp)
  100d2f:	48 89 55 f0          	mov    %rdx,-0x10(%rbp)
  100d33:	48 89 45 c8          	mov    %rax,-0x38(%rbp)
  100d37:	48 89 7d c0          	mov    %rdi,-0x40(%rbp)
  100d3b:	48 8b 45 f8          	mov    -0x8(%rbp),%rax
  100d3f:	48 89 45 e8          	mov    %rax,-0x18(%rbp)
  100d43:	48 8b 45 f0          	mov    -0x10(%rbp),%rax
  100d47:	48 89 45 e0          	mov    %rax,-0x20(%rbp)
  100d4b:	48 8b 45 e0          	mov    -0x20(%rbp),%rax
  100d4f:	48 89 45 d8          	mov    %rax,-0x28(%rbp)
  100d53:	48 8b 45 d8          	mov    -0x28(%rbp),%rax
  100d57:	48 89 45 b8          	mov    %rax,-0x48(%rbp)
  100d5b:	48 8b 45 e8          	mov    -0x18(%rbp),%rax
  100d5f:	48 89 45 d0          	mov    %rax,-0x30(%rbp)
  100d63:	48 8b 45 d0          	mov    -0x30(%rbp),%rax
  100d67:	48 89 45 b0          	mov    %rax,-0x50(%rbp)
  100d6b:	48 8b 45 c0          	mov    -0x40(%rbp),%rax
  100d6f:	48 8b 4d b0          	mov    -0x50(%rbp),%rcx
  100d73:	48 89 08             	mov    %rcx,(%rax)
  100d76:	48 8b 55 b8          	mov    -0x48(%rbp),%rdx
  100d7a:	48 89 50 08          	mov    %rdx,0x8(%rax)
  100d7e:	48 8b 45 c8          	mov    -0x38(%rbp),%rax
  100d82:	48 83 c4 50          	add    $0x50,%rsp
  100d86:	5d                   	pop    %rbp
  100d87:	c3                   	retq   
  100d88:	0f 1f 84 00 00 00 00 	nopl   0x0(%rax,%rax,1)
  100d8f:	00 

0000000000100d90 <_ZN4core3fmt10ArgumentV13new17hb135dd234f17800cE>:
  100d90:	55                   	push   %rbp
  100d91:	48 89 e5             	mov    %rsp,%rbp
  100d94:	48 83 ec 50          	sub    $0x50,%rsp
  100d98:	48 89 f8             	mov    %rdi,%rax
  100d9b:	48 89 75 f8          	mov    %rsi,-0x8(%rbp)
  100d9f:	48 89 55 f0          	mov    %rdx,-0x10(%rbp)
  100da3:	48 89 45 c8          	mov    %rax,-0x38(%rbp)
  100da7:	48 89 7d c0          	mov    %rdi,-0x40(%rbp)
  100dab:	48 8b 45 f8          	mov    -0x8(%rbp),%rax
  100daf:	48 89 45 e8          	mov    %rax,-0x18(%rbp)
  100db3:	48 8b 45 f0          	mov    -0x10(%rbp),%rax
  100db7:	48 89 45 e0          	mov    %rax,-0x20(%rbp)
  100dbb:	48 8b 45 e0          	mov    -0x20(%rbp),%rax
  100dbf:	48 89 45 d8          	mov    %rax,-0x28(%rbp)
  100dc3:	48 8b 45 d8          	mov    -0x28(%rbp),%rax
  100dc7:	48 89 45 b8          	mov    %rax,-0x48(%rbp)
  100dcb:	48 8b 45 e8          	mov    -0x18(%rbp),%rax
  100dcf:	48 89 45 d0          	mov    %rax,-0x30(%rbp)
  100dd3:	48 8b 45 d0          	mov    -0x30(%rbp),%rax
  100dd7:	48 89 45 b0          	mov    %rax,-0x50(%rbp)
  100ddb:	48 8b 45 c0          	mov    -0x40(%rbp),%rax
  100ddf:	48 8b 4d b0          	mov    -0x50(%rbp),%rcx
  100de3:	48 89 08             	mov    %rcx,(%rax)
  100de6:	48 8b 55 b8          	mov    -0x48(%rbp),%rdx
  100dea:	48 89 50 08          	mov    %rdx,0x8(%rax)
  100dee:	48 8b 45 c8          	mov    -0x38(%rbp),%rax
  100df2:	48 83 c4 50          	add    $0x50,%rsp
  100df6:	5d                   	pop    %rbp
  100df7:	c3                   	retq   
  100df8:	0f 1f 84 00 00 00 00 	nopl   0x0(%rax,%rax,1)
  100dff:	00 

0000000000100e00 <_ZN4core3fmt5Write10write_char17haa7b585e8a6f2d29E>:
  100e00:	55                   	push   %rbp
  100e01:	48 89 e5             	mov    %rsp,%rbp
  100e04:	48 81 ec a0 00 00 00 	sub    $0xa0,%rsp
  100e0b:	48 89 7d c0          	mov    %rdi,-0x40(%rbp)
  100e0f:	89 75 bc             	mov    %esi,-0x44(%rbp)
  100e12:	48 8d 7d 98          	lea    -0x68(%rbp),%rdi
  100e16:	48 8b 45 c0          	mov    -0x40(%rbp),%rax
  100e1a:	48 89 45 b0          	mov    %rax,-0x50(%rbp)
  100e1e:	8b 4d bc             	mov    -0x44(%rbp),%ecx
  100e21:	89 4d ac             	mov    %ecx,-0x54(%rbp)
  100e24:	48 8b 45 b0          	mov    -0x50(%rbp),%rax
  100e28:	8b 75 ac             	mov    -0x54(%rbp),%esi
  100e2b:	48 89 45 80          	mov    %rax,-0x80(%rbp)
  100e2f:	e8 8c fa ff ff       	callq  1008c0 <_ZN44_$LT$char$u20$as$u20$core..char..CharExt$GT$11encode_utf817h7df4fc3325f57883E>
  100e34:	48 8d 7d 98          	lea    -0x68(%rbp),%rdi
  100e38:	e8 03 46 00 00       	callq  105440 <_ZN4core4char10EncodeUtf88as_slice17h087b7807397e0642E>
  100e3d:	48 89 85 78 ff ff ff 	mov    %rax,-0x88(%rbp)
  100e44:	48 89 95 70 ff ff ff 	mov    %rdx,-0x90(%rbp)
  100e4b:	48 8b 85 78 ff ff ff 	mov    -0x88(%rbp),%rax
  100e52:	48 89 45 f0          	mov    %rax,-0x10(%rbp)
  100e56:	48 8b 8d 70 ff ff ff 	mov    -0x90(%rbp),%rcx
  100e5d:	48 89 4d f8          	mov    %rcx,-0x8(%rbp)
  100e61:	48 8b 55 f0          	mov    -0x10(%rbp),%rdx
  100e65:	48 89 55 e0          	mov    %rdx,-0x20(%rbp)
  100e69:	48 89 4d e8          	mov    %rcx,-0x18(%rbp)
  100e6d:	48 8b 55 e0          	mov    -0x20(%rbp),%rdx
  100e71:	48 89 55 d0          	mov    %rdx,-0x30(%rbp)
  100e75:	48 89 4d d8          	mov    %rcx,-0x28(%rbp)
  100e79:	48 8b 75 d0          	mov    -0x30(%rbp),%rsi
  100e7d:	48 89 8d 68 ff ff ff 	mov    %rcx,-0x98(%rbp)
  100e84:	48 89 b5 60 ff ff ff 	mov    %rsi,-0xa0(%rbp)
  100e8b:	48 8b 7d 80          	mov    -0x80(%rbp),%rdi
  100e8f:	48 8b b5 60 ff ff ff 	mov    -0xa0(%rbp),%rsi
  100e96:	48 8b 95 68 ff ff ff 	mov    -0x98(%rbp),%rdx
  100e9d:	e8 9e 1e 00 00       	callq  102d40 <_ZN64_$LT$rich_os..vga_buffer..Writer$u20$as$u20$core..fmt..Write$GT$9write_str17h33f53848afa97612E>
  100ea2:	88 45 8f             	mov    %al,-0x71(%rbp)
  100ea5:	8a 45 8f             	mov    -0x71(%rbp),%al
  100ea8:	88 45 90             	mov    %al,-0x70(%rbp)
  100eab:	8a 45 90             	mov    -0x70(%rbp),%al
  100eae:	48 81 c4 a0 00 00 00 	add    $0xa0,%rsp
  100eb5:	5d                   	pop    %rbp
  100eb6:	c3                   	retq   
  100eb7:	66 0f 1f 84 00 00 00 	nopw   0x0(%rax,%rax,1)
  100ebe:	00 00 

0000000000100ec0 <_ZN4core3fmt5Write9write_fmt17h7ffd43ad7946567dE>:
  100ec0:	55                   	push   %rbp
  100ec1:	48 89 e5             	mov    %rsp,%rbp
  100ec4:	48 81 ec f0 00 00 00 	sub    $0xf0,%rsp
  100ecb:	b8 30 00 00 00       	mov    $0x30,%eax
  100ed0:	89 c2                	mov    %eax,%edx
  100ed2:	48 8d 4d c0          	lea    -0x40(%rbp),%rcx
  100ed6:	48 89 7d f0          	mov    %rdi,-0x10(%rbp)
  100eda:	48 89 cf             	mov    %rcx,%rdi
  100edd:	e8 6e 32 00 00       	callq  104150 <memcpy>
  100ee2:	48 8d 35 5f f0 00 00 	lea    0xf05f(%rip),%rsi        # 10ff48 <vtable3369>
  100ee9:	48 8d 85 50 ff ff ff 	lea    -0xb0(%rbp),%rax
  100ef0:	b9 30 00 00 00       	mov    $0x30,%ecx
  100ef5:	89 ca                	mov    %ecx,%edx
  100ef7:	48 8d 7d 88          	lea    -0x78(%rbp),%rdi
  100efb:	4c 8d 45 80          	lea    -0x80(%rbp),%r8
  100eff:	4c 8d 4d c0          	lea    -0x40(%rbp),%r9
  100f03:	4c 8b 55 f0          	mov    -0x10(%rbp),%r10
  100f07:	4c 89 55 b8          	mov    %r10,-0x48(%rbp)
  100f0b:	49 89 fa             	mov    %rdi,%r10
  100f0e:	48 89 bd 38 ff ff ff 	mov    %rdi,-0xc8(%rbp)
  100f15:	4c 89 d7             	mov    %r10,%rdi
  100f18:	48 89 b5 30 ff ff ff 	mov    %rsi,-0xd0(%rbp)
  100f1f:	4c 89 ce             	mov    %r9,%rsi
  100f22:	48 89 95 28 ff ff ff 	mov    %rdx,-0xd8(%rbp)
  100f29:	4c 89 85 20 ff ff ff 	mov    %r8,-0xe0(%rbp)
  100f30:	48 89 85 18 ff ff ff 	mov    %rax,-0xe8(%rbp)
  100f37:	e8 14 32 00 00       	callq  104150 <memcpy>
  100f3c:	48 8b 45 b8          	mov    -0x48(%rbp),%rax
  100f40:	48 89 45 80          	mov    %rax,-0x80(%rbp)
  100f44:	48 8b 85 20 ff ff ff 	mov    -0xe0(%rbp),%rax
  100f4b:	48 8b 95 38 ff ff ff 	mov    -0xc8(%rbp),%rdx
  100f52:	48 8b b5 18 ff ff ff 	mov    -0xe8(%rbp),%rsi
  100f59:	48 89 f7             	mov    %rsi,%rdi
  100f5c:	48 89 d6             	mov    %rdx,%rsi
  100f5f:	48 8b 95 28 ff ff ff 	mov    -0xd8(%rbp),%rdx
  100f66:	48 89 85 10 ff ff ff 	mov    %rax,-0xf0(%rbp)
  100f6d:	e8 de 31 00 00       	callq  104150 <memcpy>
  100f72:	48 8b bd 10 ff ff ff 	mov    -0xf0(%rbp),%rdi
  100f79:	48 8b b5 30 ff ff ff 	mov    -0xd0(%rbp),%rsi
  100f80:	48 8b 95 18 ff ff ff 	mov    -0xe8(%rbp),%rdx
  100f87:	e8 b4 b1 00 00       	callq  10c140 <_ZN4core3fmt5write17hdcfad2ffcde93598E>
  100f8c:	88 85 47 ff ff ff    	mov    %al,-0xb9(%rbp)
  100f92:	8a 85 47 ff ff ff    	mov    -0xb9(%rbp),%al
  100f98:	88 85 48 ff ff ff    	mov    %al,-0xb8(%rbp)
  100f9e:	8a 85 48 ff ff ff    	mov    -0xb8(%rbp),%al
  100fa4:	48 81 c4 f0 00 00 00 	add    $0xf0,%rsp
  100fab:	5d                   	pop    %rbp
  100fac:	c3                   	retq   
  100fad:	0f 1f 00             	nopl   (%rax)

0000000000100fb0 <_ZN4core3fmt9Arguments6new_v117h2ee48eb28c0cff0aE>:
  100fb0:	55                   	push   %rbp
  100fb1:	48 89 e5             	mov    %rsp,%rbp
  100fb4:	48 83 ec 60          	sub    $0x60,%rsp
  100fb8:	48 89 f8             	mov    %rdi,%rax
  100fbb:	48 89 75 f0          	mov    %rsi,-0x10(%rbp)
  100fbf:	48 89 55 f8          	mov    %rdx,-0x8(%rbp)
  100fc3:	48 89 4d e0          	mov    %rcx,-0x20(%rbp)
  100fc7:	4c 89 45 e8          	mov    %r8,-0x18(%rbp)
  100fcb:	48 89 45 a8          	mov    %rax,-0x58(%rbp)
  100fcf:	48 89 7d a0          	mov    %rdi,-0x60(%rbp)
  100fd3:	48 8b 45 f0          	mov    -0x10(%rbp),%rax
  100fd7:	48 8b 4d f8          	mov    -0x8(%rbp),%rcx
  100fdb:	48 89 45 d0          	mov    %rax,-0x30(%rbp)
  100fdf:	48 89 4d d8          	mov    %rcx,-0x28(%rbp)
  100fe3:	48 8b 45 e0          	mov    -0x20(%rbp),%rax
  100fe7:	48 8b 4d e8          	mov    -0x18(%rbp),%rcx
  100feb:	48 89 45 c0          	mov    %rax,-0x40(%rbp)
  100fef:	48 89 4d c8          	mov    %rcx,-0x38(%rbp)
  100ff3:	48 8b 45 d0          	mov    -0x30(%rbp),%rax
  100ff7:	48 8b 4d d8          	mov    -0x28(%rbp),%rcx
  100ffb:	48 c7 45 b0 00 00 00 	movq   $0x0,-0x50(%rbp)
  101002:	00 
  101003:	48 8b 55 c0          	mov    -0x40(%rbp),%rdx
  101007:	48 8b 75 c8          	mov    -0x38(%rbp),%rsi
  10100b:	48 8b 7d a0          	mov    -0x60(%rbp),%rdi
  10100f:	48 89 07             	mov    %rax,(%rdi)
  101012:	48 89 4f 08          	mov    %rcx,0x8(%rdi)
  101016:	48 8b 45 b0          	mov    -0x50(%rbp),%rax
  10101a:	48 89 47 10          	mov    %rax,0x10(%rdi)
  10101e:	48 8b 45 b8          	mov    -0x48(%rbp),%rax
  101022:	48 89 47 18          	mov    %rax,0x18(%rdi)
  101026:	48 89 57 20          	mov    %rdx,0x20(%rdi)
  10102a:	48 89 77 28          	mov    %rsi,0x28(%rdi)
  10102e:	48 8b 45 a8          	mov    -0x58(%rbp),%rax
  101032:	48 83 c4 60          	add    $0x60,%rsp
  101036:	5d                   	pop    %rbp
  101037:	c3                   	retq   
  101038:	0f 1f 84 00 00 00 00 	nopl   0x0(%rax,%rax,1)
  10103f:	00 

0000000000101040 <_ZN4core3mem13uninitialized17hcc7bbf736b8e680eE>:
  101040:	55                   	push   %rbp
  101041:	48 89 e5             	mov    %rsp,%rbp
  101044:	48 83 ec 18          	sub    $0x18,%rsp
  101048:	48 8b 45 f0          	mov    -0x10(%rbp),%rax
  10104c:	48 89 45 e8          	mov    %rax,-0x18(%rbp)
  101050:	48 8b 45 e8          	mov    -0x18(%rbp),%rax
  101054:	48 83 c4 18          	add    $0x18,%rsp
  101058:	5d                   	pop    %rbp
  101059:	c3                   	retq   
  10105a:	66 0f 1f 44 00 00    	nopw   0x0(%rax,%rax,1)

0000000000101060 <_ZN4core3mem4swap17he49de6341082a5f9E>:
  101060:	55                   	push   %rbp
  101061:	48 89 e5             	mov    %rsp,%rbp
  101064:	48 83 ec 30          	sub    $0x30,%rsp
  101068:	48 89 7d f8          	mov    %rdi,-0x8(%rbp)
  10106c:	48 89 75 f0          	mov    %rsi,-0x10(%rbp)
  101070:	48 8b 45 f8          	mov    -0x8(%rbp),%rax
  101074:	48 89 45 e8          	mov    %rax,-0x18(%rbp)
  101078:	48 8b 45 f0          	mov    -0x10(%rbp),%rax
  10107c:	48 89 45 e0          	mov    %rax,-0x20(%rbp)
  101080:	e8 bb ff ff ff       	callq  101040 <_ZN4core3mem13uninitialized17hcc7bbf736b8e680eE>
  101085:	48 89 45 d8          	mov    %rax,-0x28(%rbp)
  101089:	48 8b 45 e8          	mov    -0x18(%rbp),%rax
  10108d:	48 8b 00             	mov    (%rax),%rax
  101090:	48 89 45 d8          	mov    %rax,-0x28(%rbp)
  101094:	48 8b 45 e0          	mov    -0x20(%rbp),%rax
  101098:	48 8b 4d e8          	mov    -0x18(%rbp),%rcx
  10109c:	48 8b 00             	mov    (%rax),%rax
  10109f:	48 89 01             	mov    %rax,(%rcx)
  1010a2:	48 8b 45 e0          	mov    -0x20(%rbp),%rax
  1010a6:	48 8b 4d d8          	mov    -0x28(%rbp),%rcx
  1010aa:	48 89 08             	mov    %rcx,(%rax)
  1010ad:	48 8b 7d d8          	mov    -0x28(%rbp),%rdi
  1010b1:	e8 0a 00 00 00       	callq  1010c0 <_ZN4core3mem6forget17h75fdb96bad032ef5E>
  1010b6:	48 83 c4 30          	add    $0x30,%rsp
  1010ba:	5d                   	pop    %rbp
  1010bb:	c3                   	retq   
  1010bc:	0f 1f 40 00          	nopl   0x0(%rax)

00000000001010c0 <_ZN4core3mem6forget17h75fdb96bad032ef5E>:
  1010c0:	55                   	push   %rbp
  1010c1:	48 89 e5             	mov    %rsp,%rbp
  1010c4:	48 83 ec 10          	sub    $0x10,%rsp
  1010c8:	48 89 7d f8          	mov    %rdi,-0x8(%rbp)
  1010cc:	48 8b 45 f8          	mov    -0x8(%rbp),%rax
  1010d0:	48 89 45 f0          	mov    %rax,-0x10(%rbp)
  1010d4:	eb 00                	jmp    1010d6 <_ZN4core3mem6forget17h75fdb96bad032ef5E+0x16>
  1010d6:	48 83 c4 10          	add    $0x10,%rsp
  1010da:	5d                   	pop    %rbp
  1010db:	c3                   	retq   
  1010dc:	0f 1f 40 00          	nopl   0x0(%rax)

00000000001010e0 <_ZN4core3mem7size_of17hb7c38d54091f1b39E>:
  1010e0:	55                   	push   %rbp
  1010e1:	48 89 e5             	mov    %rsp,%rbp
  1010e4:	48 83 ec 18          	sub    $0x18,%rsp
  1010e8:	48 c7 45 f0 01 00 00 	movq   $0x1,-0x10(%rbp)
  1010ef:	00 
  1010f0:	48 8b 45 f0          	mov    -0x10(%rbp),%rax
  1010f4:	48 89 45 e8          	mov    %rax,-0x18(%rbp)
  1010f8:	48 8b 45 e8          	mov    -0x18(%rbp),%rax
  1010fc:	48 83 c4 18          	add    $0x18,%rsp
  101100:	5d                   	pop    %rbp
  101101:	c3                   	retq   
  101102:	66 2e 0f 1f 84 00 00 	nopw   %cs:0x0(%rax,%rax,1)
  101109:	00 00 00 
  10110c:	0f 1f 40 00          	nopl   0x0(%rax)

0000000000101110 <_ZN4core3ptr31_$LT$impl$u20$$BP$mut$u20$T$GT$6offset17hd699195ba756a29fE>:
  101110:	55                   	push   %rbp
  101111:	48 89 e5             	mov    %rsp,%rbp
  101114:	48 83 ec 38          	sub    $0x38,%rsp
  101118:	48 89 7d f0          	mov    %rdi,-0x10(%rbp)
  10111c:	48 89 75 e8          	mov    %rsi,-0x18(%rbp)
  101120:	48 8b 45 f0          	mov    -0x10(%rbp),%rax
  101124:	48 89 45 e0          	mov    %rax,-0x20(%rbp)
  101128:	48 8b 45 e8          	mov    -0x18(%rbp),%rax
  10112c:	48 89 45 d8          	mov    %rax,-0x28(%rbp)
  101130:	48 8b 45 e0          	mov    -0x20(%rbp),%rax
  101134:	48 03 45 d8          	add    -0x28(%rbp),%rax
  101138:	48 89 45 d0          	mov    %rax,-0x30(%rbp)
  10113c:	48 8b 45 d0          	mov    -0x30(%rbp),%rax
  101140:	48 89 45 c8          	mov    %rax,-0x38(%rbp)
  101144:	48 8b 45 c8          	mov    -0x38(%rbp),%rax
  101148:	48 83 c4 38          	add    $0x38,%rsp
  10114c:	5d                   	pop    %rbp
  10114d:	c3                   	retq   
  10114e:	66 90                	xchg   %ax,%ax

0000000000101150 <_ZN4core3ptr33_$LT$impl$u20$$BP$const$u20$T$GT$6offset17h0d62b7cbced53ff4E>:
  101150:	55                   	push   %rbp
  101151:	48 89 e5             	mov    %rsp,%rbp
  101154:	48 83 ec 38          	sub    $0x38,%rsp
  101158:	48 89 7d f0          	mov    %rdi,-0x10(%rbp)
  10115c:	48 89 75 e8          	mov    %rsi,-0x18(%rbp)
  101160:	48 8b 45 f0          	mov    -0x10(%rbp),%rax
  101164:	48 89 45 e0          	mov    %rax,-0x20(%rbp)
  101168:	48 8b 45 e8          	mov    -0x18(%rbp),%rax
  10116c:	48 89 45 d8          	mov    %rax,-0x28(%rbp)
  101170:	48 8b 45 e0          	mov    -0x20(%rbp),%rax
  101174:	48 03 45 d8          	add    -0x28(%rbp),%rax
  101178:	48 89 45 d0          	mov    %rax,-0x30(%rbp)
  10117c:	48 8b 45 d0          	mov    -0x30(%rbp),%rax
  101180:	48 89 45 c8          	mov    %rax,-0x38(%rbp)
  101184:	48 8b 45 c8          	mov    -0x38(%rbp),%rax
  101188:	48 83 c4 38          	add    $0x38,%rsp
  10118c:	5d                   	pop    %rbp
  10118d:	c3                   	retq   
  10118e:	66 90                	xchg   %ax,%ax

0000000000101190 <_ZN4core3ptr33_$LT$impl$u20$$BP$const$u20$T$GT$6offset17h991e076664d68775E>:
  101190:	55                   	push   %rbp
  101191:	48 89 e5             	mov    %rsp,%rbp
  101194:	48 83 ec 38          	sub    $0x38,%rsp
  101198:	48 89 7d f0          	mov    %rdi,-0x10(%rbp)
  10119c:	48 89 75 e8          	mov    %rsi,-0x18(%rbp)
  1011a0:	48 8b 45 f0          	mov    -0x10(%rbp),%rax
  1011a4:	48 89 45 e0          	mov    %rax,-0x20(%rbp)
  1011a8:	48 8b 45 e8          	mov    -0x18(%rbp),%rax
  1011ac:	48 89 45 d8          	mov    %rax,-0x28(%rbp)
  1011b0:	48 8b 45 e0          	mov    -0x20(%rbp),%rax
  1011b4:	48 69 4d d8 a0 00 00 	imul   $0xa0,-0x28(%rbp),%rcx
  1011bb:	00 
  1011bc:	48 01 c8             	add    %rcx,%rax
  1011bf:	48 89 45 d0          	mov    %rax,-0x30(%rbp)
  1011c3:	48 8b 45 d0          	mov    -0x30(%rbp),%rax
  1011c7:	48 89 45 c8          	mov    %rax,-0x38(%rbp)
  1011cb:	48 8b 45 c8          	mov    -0x38(%rbp),%rax
  1011cf:	48 83 c4 38          	add    $0x38,%rsp
  1011d3:	5d                   	pop    %rbp
  1011d4:	c3                   	retq   
  1011d5:	66 2e 0f 1f 84 00 00 	nopw   %cs:0x0(%rax,%rax,1)
  1011dc:	00 00 00 
  1011df:	90                   	nop

00000000001011e0 <_ZN4core3ptr33_$LT$impl$u20$$BP$const$u20$T$GT$7is_null17h99216fd405cc08a2E>:
  1011e0:	55                   	push   %rbp
  1011e1:	48 89 e5             	mov    %rsp,%rbp
  1011e4:	48 83 ec 30          	sub    $0x30,%rsp
  1011e8:	48 89 7d f0          	mov    %rdi,-0x10(%rbp)
  1011ec:	48 8b 45 f0          	mov    -0x10(%rbp),%rax
  1011f0:	48 89 45 e8          	mov    %rax,-0x18(%rbp)
  1011f4:	48 8b 45 e8          	mov    -0x18(%rbp),%rax
  1011f8:	48 89 45 e0          	mov    %rax,-0x20(%rbp)
  1011fc:	e8 1f 00 00 00       	callq  101220 <_ZN4core3ptr4null17h38bc82616197e7b7E>
  101201:	48 89 45 d8          	mov    %rax,-0x28(%rbp)
  101205:	48 8b 45 e0          	mov    -0x20(%rbp),%rax
  101209:	48 8b 4d d8          	mov    -0x28(%rbp),%rcx
  10120d:	48 39 c8             	cmp    %rcx,%rax
  101210:	0f 94 c2             	sete   %dl
  101213:	80 e2 01             	and    $0x1,%dl
  101216:	0f b6 c2             	movzbl %dl,%eax
  101219:	48 83 c4 30          	add    $0x30,%rsp
  10121d:	5d                   	pop    %rbp
  10121e:	c3                   	retq   
  10121f:	90                   	nop

0000000000101220 <_ZN4core3ptr4null17h38bc82616197e7b7E>:
  101220:	55                   	push   %rbp
  101221:	48 89 e5             	mov    %rsp,%rbp
  101224:	50                   	push   %rax
  101225:	eb 00                	jmp    101227 <_ZN4core3ptr4null17h38bc82616197e7b7E+0x7>
  101227:	31 c0                	xor    %eax,%eax
  101229:	48 83 c4 08          	add    $0x8,%rsp
  10122d:	5d                   	pop    %rbp
  10122e:	c3                   	retq   
  10122f:	90                   	nop

0000000000101230 <_ZN4core4iter5range86_$LT$impl$u20$core..iter..iterator..Iterator$u20$for$u20$core..ops..Range$LT$A$GT$$GT$4next17h05ed5ee39168d888E>:
  101230:	55                   	push   %rbp
  101231:	48 89 e5             	mov    %rsp,%rbp
  101234:	48 83 ec 30          	sub    $0x30,%rsp
  101238:	48 89 f8             	mov    %rdi,%rax
  10123b:	48 89 75 f8          	mov    %rsi,-0x8(%rbp)
  10123f:	48 89 45 e0          	mov    %rax,-0x20(%rbp)
  101243:	48 89 7d d8          	mov    %rdi,-0x28(%rbp)
  101247:	48 8b 45 f8          	mov    -0x8(%rbp),%rax
  10124b:	48 89 45 f0          	mov    %rax,-0x10(%rbp)
  10124f:	48 8b 7d f0          	mov    -0x10(%rbp),%rdi
  101253:	48 8b 45 f0          	mov    -0x10(%rbp),%rax
  101257:	48 83 c0 08          	add    $0x8,%rax
  10125b:	48 89 c6             	mov    %rax,%rsi
  10125e:	e8 1d f9 ff ff       	callq  100b80 <_ZN4core3cmp5impls57_$LT$impl$u20$core..cmp..PartialOrd$u20$for$u20$usize$GT$2lt17hd644d2d93a548c2aE>
  101263:	88 45 d7             	mov    %al,-0x29(%rbp)
  101266:	8a 45 d7             	mov    -0x29(%rbp),%al
  101269:	a8 01                	test   $0x1,%al
  10126b:	75 02                	jne    10126f <_ZN4core4iter5range86_$LT$impl$u20$core..iter..iterator..Iterator$u20$for$u20$core..ops..Range$LT$A$GT$$GT$4next17h05ed5ee39168d888E+0x3f>
  10126d:	eb 0f                	jmp    10127e <_ZN4core4iter5range86_$LT$impl$u20$core..iter..iterator..Iterator$u20$for$u20$core..ops..Range$LT$A$GT$$GT$4next17h05ed5ee39168d888E+0x4e>
  10126f:	48 8b 7d f0          	mov    -0x10(%rbp),%rdi
  101273:	e8 b8 f8 ff ff       	callq  100b30 <_ZN49_$LT$usize$u20$as$u20$core..iter..range..Step$GT$7add_one17hf8bf05f63b081aa0E>
  101278:	48 89 45 e8          	mov    %rax,-0x18(%rbp)
  10127c:	eb 0d                	jmp    10128b <_ZN4core4iter5range86_$LT$impl$u20$core..iter..iterator..Iterator$u20$for$u20$core..ops..Range$LT$A$GT$$GT$4next17h05ed5ee39168d888E+0x5b>
  10127e:	48 8b 45 d8          	mov    -0x28(%rbp),%rax
  101282:	48 c7 00 00 00 00 00 	movq   $0x0,(%rax)
  101289:	eb 20                	jmp    1012ab <_ZN4core4iter5range86_$LT$impl$u20$core..iter..iterator..Iterator$u20$for$u20$core..ops..Range$LT$A$GT$$GT$4next17h05ed5ee39168d888E+0x7b>
  10128b:	48 8d 7d e8          	lea    -0x18(%rbp),%rdi
  10128f:	48 8b 75 f0          	mov    -0x10(%rbp),%rsi
  101293:	e8 c8 fd ff ff       	callq  101060 <_ZN4core3mem4swap17he49de6341082a5f9E>
  101298:	48 8b 45 e8          	mov    -0x18(%rbp),%rax
  10129c:	48 8b 4d d8          	mov    -0x28(%rbp),%rcx
  1012a0:	48 c7 01 01 00 00 00 	movq   $0x1,(%rcx)
  1012a7:	48 89 41 08          	mov    %rax,0x8(%rcx)
  1012ab:	48 8b 45 e0          	mov    -0x20(%rbp),%rax
  1012af:	48 83 c4 30          	add    $0x30,%rsp
  1012b3:	5d                   	pop    %rbp
  1012b4:	c3                   	retq   
  1012b5:	66 2e 0f 1f 84 00 00 	nopw   %cs:0x0(%rax,%rax,1)
  1012bc:	00 00 00 
  1012bf:	90                   	nop

00000000001012c0 <_ZN4core4iter8iterator8Iterator6cloned17heb982401e12d39c6E>:
  1012c0:	55                   	push   %rbp
  1012c1:	48 89 e5             	mov    %rsp,%rbp
  1012c4:	48 83 ec 40          	sub    $0x40,%rsp
  1012c8:	48 89 f8             	mov    %rdi,%rax
  1012cb:	48 8b 0e             	mov    (%rsi),%rcx
  1012ce:	48 89 4d f0          	mov    %rcx,-0x10(%rbp)
  1012d2:	48 8b 4e 08          	mov    0x8(%rsi),%rcx
  1012d6:	48 89 4d f8          	mov    %rcx,-0x8(%rbp)
  1012da:	48 89 45 c8          	mov    %rax,-0x38(%rbp)
  1012de:	48 89 7d c0          	mov    %rdi,-0x40(%rbp)
  1012e2:	48 8b 45 f0          	mov    -0x10(%rbp),%rax
  1012e6:	48 89 45 e0          	mov    %rax,-0x20(%rbp)
  1012ea:	48 8b 45 f8          	mov    -0x8(%rbp),%rax
  1012ee:	48 89 45 e8          	mov    %rax,-0x18(%rbp)
  1012f2:	48 8b 45 e0          	mov    -0x20(%rbp),%rax
  1012f6:	48 89 45 d0          	mov    %rax,-0x30(%rbp)
  1012fa:	48 8b 45 e8          	mov    -0x18(%rbp),%rax
  1012fe:	48 89 45 d8          	mov    %rax,-0x28(%rbp)
  101302:	48 8b 45 d0          	mov    -0x30(%rbp),%rax
  101306:	48 8b 4d c0          	mov    -0x40(%rbp),%rcx
  10130a:	48 89 01             	mov    %rax,(%rcx)
  10130d:	48 8b 45 d8          	mov    -0x28(%rbp),%rax
  101311:	48 89 41 08          	mov    %rax,0x8(%rcx)
  101315:	eb 00                	jmp    101317 <_ZN4core4iter8iterator8Iterator6cloned17heb982401e12d39c6E+0x57>
  101317:	48 8b 45 c8          	mov    -0x38(%rbp),%rax
  10131b:	48 83 c4 40          	add    $0x40,%rsp
  10131f:	5d                   	pop    %rbp
  101320:	c3                   	retq   
  101321:	66 2e 0f 1f 84 00 00 	nopw   %cs:0x0(%rax,%rax,1)
  101328:	00 00 00 
  10132b:	0f 1f 44 00 00       	nopl   0x0(%rax,%rax,1)

0000000000101330 <_ZN4core4iter8iterator8Iterator9enumerate17hfb7c2681ab9a4c93E>:
  101330:	55                   	push   %rbp
  101331:	48 89 e5             	mov    %rsp,%rbp
  101334:	48 83 ec 40          	sub    $0x40,%rsp
  101338:	48 89 f8             	mov    %rdi,%rax
  10133b:	48 8b 0e             	mov    (%rsi),%rcx
  10133e:	48 89 4d f0          	mov    %rcx,-0x10(%rbp)
  101342:	48 8b 4e 08          	mov    0x8(%rsi),%rcx
  101346:	48 89 4d f8          	mov    %rcx,-0x8(%rbp)
  10134a:	48 89 45 c8          	mov    %rax,-0x38(%rbp)
  10134e:	48 89 7d c0          	mov    %rdi,-0x40(%rbp)
  101352:	48 8b 45 f0          	mov    -0x10(%rbp),%rax
  101356:	48 89 45 e0          	mov    %rax,-0x20(%rbp)
  10135a:	48 8b 45 f8          	mov    -0x8(%rbp),%rax
  10135e:	48 89 45 e8          	mov    %rax,-0x18(%rbp)
  101362:	48 8b 45 e0          	mov    -0x20(%rbp),%rax
  101366:	48 89 45 d0          	mov    %rax,-0x30(%rbp)
  10136a:	48 8b 45 e8          	mov    -0x18(%rbp),%rax
  10136e:	48 89 45 d8          	mov    %rax,-0x28(%rbp)
  101372:	48 8b 45 d0          	mov    -0x30(%rbp),%rax
  101376:	48 8b 4d c0          	mov    -0x40(%rbp),%rcx
  10137a:	48 89 01             	mov    %rax,(%rcx)
  10137d:	48 8b 45 d8          	mov    -0x28(%rbp),%rax
  101381:	48 89 41 08          	mov    %rax,0x8(%rcx)
  101385:	48 c7 41 10 00 00 00 	movq   $0x0,0x10(%rcx)
  10138c:	00 
  10138d:	eb 00                	jmp    10138f <_ZN4core4iter8iterator8Iterator9enumerate17hfb7c2681ab9a4c93E+0x5f>
  10138f:	48 8b 45 c8          	mov    -0x38(%rbp),%rax
  101393:	48 83 c4 40          	add    $0x40,%rsp
  101397:	5d                   	pop    %rbp
  101398:	c3                   	retq   
  101399:	0f 1f 80 00 00 00 00 	nopl   0x0(%rax)

00000000001013a0 <_ZN4core4sync6atomic10AtomicBool16compare_and_swap17h9c902c6fd9ec24ccE>:
  1013a0:	55                   	push   %rbp
  1013a1:	48 89 e5             	mov    %rsp,%rbp
  1013a4:	48 83 ec 50          	sub    $0x50,%rsp
  1013a8:	88 c8                	mov    %cl,%al
  1013aa:	41 88 d0             	mov    %dl,%r8b
  1013ad:	41 88 f1             	mov    %sil,%r9b
  1013b0:	48 89 7d f0          	mov    %rdi,-0x10(%rbp)
  1013b4:	41 80 e1 01          	and    $0x1,%r9b
  1013b8:	44 88 4d ef          	mov    %r9b,-0x11(%rbp)
  1013bc:	41 80 e0 01          	and    $0x1,%r8b
  1013c0:	44 88 45 ee          	mov    %r8b,-0x12(%rbp)
  1013c4:	88 45 ed             	mov    %al,-0x13(%rbp)
  1013c7:	48 8b 45 f0          	mov    -0x10(%rbp),%rax
  1013cb:	48 89 45 e0          	mov    %rax,-0x20(%rbp)
  1013cf:	8a 4d ef             	mov    -0x11(%rbp),%cl
  1013d2:	80 e1 01             	and    $0x1,%cl
  1013d5:	88 4d df             	mov    %cl,-0x21(%rbp)
  1013d8:	8a 4d ee             	mov    -0x12(%rbp),%cl
  1013db:	80 e1 01             	and    $0x1,%cl
  1013de:	88 4d de             	mov    %cl,-0x22(%rbp)
  1013e1:	8a 4d ed             	mov    -0x13(%rbp),%cl
  1013e4:	88 4d dd             	mov    %cl,-0x23(%rbp)
  1013e7:	48 8b 7d e0          	mov    -0x20(%rbp),%rdi
  1013eb:	8a 4d df             	mov    -0x21(%rbp),%cl
  1013ee:	8a 55 de             	mov    -0x22(%rbp),%dl
  1013f1:	40 8a 75 dd          	mov    -0x23(%rbp),%sil
  1013f5:	40 88 75 d7          	mov    %sil,-0x29(%rbp)
  1013f9:	40 8a 75 dd          	mov    -0x23(%rbp),%sil
  1013fd:	40 88 75 d5          	mov    %sil,-0x2b(%rbp)
  101401:	44 0f b6 45 d5       	movzbl -0x2b(%rbp),%r8d
  101406:	48 89 7d c8          	mov    %rdi,-0x38(%rbp)
  10140a:	44 89 c7             	mov    %r8d,%edi
  10140d:	88 55 c7             	mov    %dl,-0x39(%rbp)
  101410:	88 4d c6             	mov    %cl,-0x3a(%rbp)
  101413:	e8 e8 05 00 00       	callq  101a00 <_ZN4core4sync6atomic26strongest_failure_ordering17h0f22157647a2f2f1E>
  101418:	88 45 d6             	mov    %al,-0x2a(%rbp)
  10141b:	8a 45 d7             	mov    -0x29(%rbp),%al
  10141e:	8a 4d d6             	mov    -0x2a(%rbp),%cl
  101421:	0f b6 d0             	movzbl %al,%edx
  101424:	44 0f b6 c1          	movzbl %cl,%r8d
  101428:	8a 45 c6             	mov    -0x3a(%rbp),%al
  10142b:	24 01                	and    $0x1,%al
  10142d:	0f b6 f0             	movzbl %al,%esi
  101430:	8a 45 c7             	mov    -0x39(%rbp),%al
  101433:	24 01                	and    $0x1,%al
  101435:	0f b6 f8             	movzbl %al,%edi
  101438:	4c 8b 4d c8          	mov    -0x38(%rbp),%r9
  10143c:	89 7d c0             	mov    %edi,-0x40(%rbp)
  10143f:	4c 89 cf             	mov    %r9,%rdi
  101442:	44 8b 55 c0          	mov    -0x40(%rbp),%r10d
  101446:	89 55 bc             	mov    %edx,-0x44(%rbp)
  101449:	44 89 d2             	mov    %r10d,%edx
  10144c:	8b 4d bc             	mov    -0x44(%rbp),%ecx
  10144f:	e8 5c 00 00 00       	callq  1014b0 <_ZN4core4sync6atomic10AtomicBool16compare_exchange17h0d9e239c751e6b6dE>
  101454:	66 89 45 d2          	mov    %ax,-0x2e(%rbp)
  101458:	66 8b 45 d2          	mov    -0x2e(%rbp),%ax
  10145c:	66 89 45 d8          	mov    %ax,-0x28(%rbp)
  101460:	8a 45 d8             	mov    -0x28(%rbp),%al
  101463:	84 c0                	test   %al,%al
  101465:	88 45 bb             	mov    %al,-0x45(%rbp)
  101468:	74 0e                	je     101478 <_ZN4core4sync6atomic10AtomicBool16compare_and_swap17h9c902c6fd9ec24ccE+0xd8>
  10146a:	eb 00                	jmp    10146c <_ZN4core4sync6atomic10AtomicBool16compare_and_swap17h9c902c6fd9ec24ccE+0xcc>
  10146c:	8a 45 bb             	mov    -0x45(%rbp),%al
  10146f:	2c 01                	sub    $0x1,%al
  101471:	88 45 ba             	mov    %al,-0x46(%rbp)
  101474:	74 14                	je     10148a <_ZN4core4sync6atomic10AtomicBool16compare_and_swap17h9c902c6fd9ec24ccE+0xea>
  101476:	eb 30                	jmp    1014a8 <_ZN4core4sync6atomic10AtomicBool16compare_and_swap17h9c902c6fd9ec24ccE+0x108>
  101478:	8a 45 d9             	mov    -0x27(%rbp),%al
  10147b:	24 01                	and    $0x1,%al
  10147d:	88 45 dc             	mov    %al,-0x24(%rbp)
  101480:	8a 45 dc             	mov    -0x24(%rbp),%al
  101483:	24 01                	and    $0x1,%al
  101485:	88 45 d4             	mov    %al,-0x2c(%rbp)
  101488:	eb 10                	jmp    10149a <_ZN4core4sync6atomic10AtomicBool16compare_and_swap17h9c902c6fd9ec24ccE+0xfa>
  10148a:	8a 45 d9             	mov    -0x27(%rbp),%al
  10148d:	24 01                	and    $0x1,%al
  10148f:	88 45 db             	mov    %al,-0x25(%rbp)
  101492:	8a 45 db             	mov    -0x25(%rbp),%al
  101495:	24 01                	and    $0x1,%al
  101497:	88 45 d4             	mov    %al,-0x2c(%rbp)
  10149a:	8a 45 d4             	mov    -0x2c(%rbp),%al
  10149d:	24 01                	and    $0x1,%al
  10149f:	0f b6 c0             	movzbl %al,%eax
  1014a2:	48 83 c4 50          	add    $0x50,%rsp
  1014a6:	5d                   	pop    %rbp
  1014a7:	c3                   	retq   
  1014a8:	0f 1f 84 00 00 00 00 	nopl   0x0(%rax,%rax,1)
  1014af:	00 

00000000001014b0 <_ZN4core4sync6atomic10AtomicBool16compare_exchange17h0d9e239c751e6b6dE>:
  1014b0:	55                   	push   %rbp
  1014b1:	48 89 e5             	mov    %rsp,%rbp
  1014b4:	48 83 ec 50          	sub    $0x50,%rsp
  1014b8:	44 88 c0             	mov    %r8b,%al
  1014bb:	41 88 c9             	mov    %cl,%r9b
  1014be:	41 88 d2             	mov    %dl,%r10b
  1014c1:	41 88 f3             	mov    %sil,%r11b
  1014c4:	48 89 7d f0          	mov    %rdi,-0x10(%rbp)
  1014c8:	41 80 e3 01          	and    $0x1,%r11b
  1014cc:	44 88 5d ef          	mov    %r11b,-0x11(%rbp)
  1014d0:	41 80 e2 01          	and    $0x1,%r10b
  1014d4:	44 88 55 ee          	mov    %r10b,-0x12(%rbp)
  1014d8:	44 88 4d ed          	mov    %r9b,-0x13(%rbp)
  1014dc:	88 45 ec             	mov    %al,-0x14(%rbp)
  1014df:	48 8b 45 f0          	mov    -0x10(%rbp),%rax
  1014e3:	48 89 45 e0          	mov    %rax,-0x20(%rbp)
  1014e7:	8a 4d ef             	mov    -0x11(%rbp),%cl
  1014ea:	80 e1 01             	and    $0x1,%cl
  1014ed:	88 4d df             	mov    %cl,-0x21(%rbp)
  1014f0:	8a 4d ee             	mov    -0x12(%rbp),%cl
  1014f3:	80 e1 01             	and    $0x1,%cl
  1014f6:	88 4d de             	mov    %cl,-0x22(%rbp)
  1014f9:	8a 4d ed             	mov    -0x13(%rbp),%cl
  1014fc:	88 4d dd             	mov    %cl,-0x23(%rbp)
  1014ff:	8a 4d ec             	mov    -0x14(%rbp),%cl
  101502:	88 4d dc             	mov    %cl,-0x24(%rbp)
  101505:	48 8b 7d e0          	mov    -0x20(%rbp),%rdi
  101509:	e8 82 f2 ff ff       	callq  100790 <_ZN40_$LT$core..cell..UnsafeCell$LT$T$GT$$GT$3get17he661653c140a9841E>
  10150e:	48 89 45 c0          	mov    %rax,-0x40(%rbp)
  101512:	8a 45 df             	mov    -0x21(%rbp),%al
  101515:	24 01                	and    $0x1,%al
  101517:	8a 4d de             	mov    -0x22(%rbp),%cl
  10151a:	80 e1 01             	and    $0x1,%cl
  10151d:	8a 55 dd             	mov    -0x23(%rbp),%dl
  101520:	88 55 d7             	mov    %dl,-0x29(%rbp)
  101523:	8a 55 dc             	mov    -0x24(%rbp),%dl
  101526:	88 55 d6             	mov    %dl,-0x2a(%rbp)
  101529:	8a 55 d7             	mov    -0x29(%rbp),%dl
  10152c:	48 8b 7d c0          	mov    -0x40(%rbp),%rdi
  101530:	0f b6 f0             	movzbl %al,%esi
  101533:	44 0f b6 c1          	movzbl %cl,%r8d
  101537:	88 55 bf             	mov    %dl,-0x41(%rbp)
  10153a:	44 89 c2             	mov    %r8d,%edx
  10153d:	8a 45 bf             	mov    -0x41(%rbp),%al
  101540:	0f b6 c8             	movzbl %al,%ecx
  101543:	44 0f b6 45 d6       	movzbl -0x2a(%rbp),%r8d
  101548:	e8 63 01 00 00       	callq  1016b0 <_ZN4core4sync6atomic23atomic_compare_exchange17h351bfc42ebea2131E>
  10154d:	66 89 45 ce          	mov    %ax,-0x32(%rbp)
  101551:	66 8b 45 ce          	mov    -0x32(%rbp),%ax
  101555:	66 89 45 d8          	mov    %ax,-0x28(%rbp)
  101559:	8a 45 d8             	mov    -0x28(%rbp),%al
  10155c:	84 c0                	test   %al,%al
  10155e:	88 45 be             	mov    %al,-0x42(%rbp)
  101561:	74 0e                	je     101571 <_ZN4core4sync6atomic10AtomicBool16compare_exchange17h0d9e239c751e6b6dE+0xc1>
  101563:	eb 00                	jmp    101565 <_ZN4core4sync6atomic10AtomicBool16compare_exchange17h0d9e239c751e6b6dE+0xb5>
  101565:	8a 45 be             	mov    -0x42(%rbp),%al
  101568:	2c 01                	sub    $0x1,%al
  10156a:	88 45 bd             	mov    %al,-0x43(%rbp)
  10156d:	74 1a                	je     101589 <_ZN4core4sync6atomic10AtomicBool16compare_exchange17h0d9e239c751e6b6dE+0xd9>
  10156f:	eb 38                	jmp    1015a9 <_ZN4core4sync6atomic10AtomicBool16compare_exchange17h0d9e239c751e6b6dE+0xf9>
  101571:	8a 45 d9             	mov    -0x27(%rbp),%al
  101574:	88 45 db             	mov    %al,-0x25(%rbp)
  101577:	80 7d db 00          	cmpb   $0x0,-0x25(%rbp)
  10157b:	0f 95 c0             	setne  %al
  10157e:	c6 45 d0 00          	movb   $0x0,-0x30(%rbp)
  101582:	24 01                	and    $0x1,%al
  101584:	88 45 d1             	mov    %al,-0x2f(%rbp)
  101587:	eb 16                	jmp    10159f <_ZN4core4sync6atomic10AtomicBool16compare_exchange17h0d9e239c751e6b6dE+0xef>
  101589:	8a 45 d9             	mov    -0x27(%rbp),%al
  10158c:	88 45 da             	mov    %al,-0x26(%rbp)
  10158f:	80 7d da 00          	cmpb   $0x0,-0x26(%rbp)
  101593:	0f 95 c0             	setne  %al
  101596:	c6 45 d0 01          	movb   $0x1,-0x30(%rbp)
  10159a:	24 01                	and    $0x1,%al
  10159c:	88 45 d1             	mov    %al,-0x2f(%rbp)
  10159f:	66 8b 45 d0          	mov    -0x30(%rbp),%ax
  1015a3:	48 83 c4 50          	add    $0x50,%rsp
  1015a7:	5d                   	pop    %rbp
  1015a8:	c3                   	retq   
  1015a9:	0f 1f 80 00 00 00 00 	nopl   0x0(%rax)

00000000001015b0 <_ZN4core4sync6atomic10AtomicBool5store17h62776a058076a6cbE>:
  1015b0:	55                   	push   %rbp
  1015b1:	48 89 e5             	mov    %rsp,%rbp
  1015b4:	48 83 ec 30          	sub    $0x30,%rsp
  1015b8:	88 d0                	mov    %dl,%al
  1015ba:	40 88 f1             	mov    %sil,%cl
  1015bd:	48 89 7d f8          	mov    %rdi,-0x8(%rbp)
  1015c1:	80 e1 01             	and    $0x1,%cl
  1015c4:	88 4d f7             	mov    %cl,-0x9(%rbp)
  1015c7:	88 45 f6             	mov    %al,-0xa(%rbp)
  1015ca:	48 8b 45 f8          	mov    -0x8(%rbp),%rax
  1015ce:	48 89 45 e8          	mov    %rax,-0x18(%rbp)
  1015d2:	8a 4d f7             	mov    -0x9(%rbp),%cl
  1015d5:	80 e1 01             	and    $0x1,%cl
  1015d8:	88 4d e7             	mov    %cl,-0x19(%rbp)
  1015db:	8a 4d f6             	mov    -0xa(%rbp),%cl
  1015de:	88 4d e6             	mov    %cl,-0x1a(%rbp)
  1015e1:	48 8b 7d e8          	mov    -0x18(%rbp),%rdi
  1015e5:	e8 a6 f1 ff ff       	callq  100790 <_ZN40_$LT$core..cell..UnsafeCell$LT$T$GT$$GT$3get17he661653c140a9841E>
  1015ea:	48 89 45 d8          	mov    %rax,-0x28(%rbp)
  1015ee:	8a 45 e7             	mov    -0x19(%rbp),%al
  1015f1:	24 01                	and    $0x1,%al
  1015f3:	8a 4d e6             	mov    -0x1a(%rbp),%cl
  1015f6:	88 4d e5             	mov    %cl,-0x1b(%rbp)
  1015f9:	48 8b 7d d8          	mov    -0x28(%rbp),%rdi
  1015fd:	0f b6 f0             	movzbl %al,%esi
  101600:	0f b6 55 e5          	movzbl -0x1b(%rbp),%edx
  101604:	e8 07 00 00 00       	callq  101610 <_ZN4core4sync6atomic12atomic_store17hb32b6156de4192f6E>
  101609:	48 83 c4 30          	add    $0x30,%rsp
  10160d:	5d                   	pop    %rbp
  10160e:	c3                   	retq   
  10160f:	90                   	nop

0000000000101610 <_ZN4core4sync6atomic12atomic_store17hb32b6156de4192f6E>:
  101610:	55                   	push   %rbp
  101611:	48 89 e5             	mov    %rsp,%rbp
  101614:	48 83 ec 40          	sub    $0x40,%rsp
  101618:	88 d0                	mov    %dl,%al
  10161a:	40 88 f1             	mov    %sil,%cl
  10161d:	48 89 7d f8          	mov    %rdi,-0x8(%rbp)
  101621:	88 4d f7             	mov    %cl,-0x9(%rbp)
  101624:	88 45 f6             	mov    %al,-0xa(%rbp)
  101627:	48 8b 45 f8          	mov    -0x8(%rbp),%rax
  10162b:	48 89 45 e8          	mov    %rax,-0x18(%rbp)
  10162f:	8a 4d f7             	mov    -0x9(%rbp),%cl
  101632:	88 4d e7             	mov    %cl,-0x19(%rbp)
  101635:	8a 4d f6             	mov    -0xa(%rbp),%cl
  101638:	88 4d e6             	mov    %cl,-0x1a(%rbp)
  10163b:	0f b6 55 e6          	movzbl -0x1a(%rbp),%edx
  10163f:	89 d0                	mov    %edx,%eax
  101641:	48 89 c6             	mov    %rax,%rsi
  101644:	48 83 ee 04          	sub    $0x4,%rsi
  101648:	48 89 45 d8          	mov    %rax,-0x28(%rbp)
  10164c:	48 89 75 d0          	mov    %rsi,-0x30(%rbp)
  101650:	77 54                	ja     1016a6 <_ZN4core4sync6atomic12atomic_store17hb32b6156de4192f6E+0x96>
  101652:	48 8d 05 7b dc 00 00 	lea    0xdc7b(%rip),%rax        # 10f2d4 <gdt64.pointer+0xc>
  101659:	48 8b 4d d8          	mov    -0x28(%rbp),%rcx
  10165d:	48 63 14 88          	movslq (%rax,%rcx,4),%rdx
  101661:	48 01 c2             	add    %rax,%rdx
  101664:	ff e2                	jmpq   *%rdx
  101666:	48 8b 45 e8          	mov    -0x18(%rbp),%rax
  10166a:	8a 4d e7             	mov    -0x19(%rbp),%cl
  10166d:	88 08                	mov    %cl,(%rax)
  10166f:	eb 2f                	jmp    1016a0 <_ZN4core4sync6atomic12atomic_store17hb32b6156de4192f6E+0x90>
  101671:	48 8b 45 e8          	mov    -0x18(%rbp),%rax
  101675:	8a 4d e7             	mov    -0x19(%rbp),%cl
  101678:	88 08                	mov    %cl,(%rax)
  10167a:	eb 24                	jmp    1016a0 <_ZN4core4sync6atomic12atomic_store17hb32b6156de4192f6E+0x90>
  10167c:	48 8d 3d 05 ed 00 00 	lea    0xed05(%rip),%rdi        # 110388 <_ZN4core4sync6atomic12atomic_store14_MSG_FILE_LINE17h1d5ce0b77c279973E>
  101683:	e8 08 3e 00 00       	callq  105490 <_ZN4core9panicking5panic17h585bd70cda921012E>
  101688:	48 8d 3d 21 ed 00 00 	lea    0xed21(%rip),%rdi        # 1103b0 <_ZN4core4sync6atomic12atomic_store14_MSG_FILE_LINE17hdd51e97169613b04E>
  10168f:	e8 fc 3d 00 00       	callq  105490 <_ZN4core9panicking5panic17h585bd70cda921012E>
  101694:	48 8b 45 e8          	mov    -0x18(%rbp),%rax
  101698:	8a 4d e7             	mov    -0x19(%rbp),%cl
  10169b:	86 08                	xchg   %cl,(%rax)
  10169d:	88 4d cf             	mov    %cl,-0x31(%rbp)
  1016a0:	48 83 c4 40          	add    $0x40,%rsp
  1016a4:	5d                   	pop    %rbp
  1016a5:	c3                   	retq   
  1016a6:	66 2e 0f 1f 84 00 00 	nopw   %cs:0x0(%rax,%rax,1)
  1016ad:	00 00 00 

00000000001016b0 <_ZN4core4sync6atomic23atomic_compare_exchange17h351bfc42ebea2131E>:
  1016b0:	55                   	push   %rbp
  1016b1:	48 89 e5             	mov    %rsp,%rbp
  1016b4:	48 81 ec b0 00 00 00 	sub    $0xb0,%rsp
  1016bb:	44 88 c0             	mov    %r8b,%al
  1016be:	41 88 c9             	mov    %cl,%r9b
  1016c1:	41 88 d2             	mov    %dl,%r10b
  1016c4:	41 88 f3             	mov    %sil,%r11b
  1016c7:	48 89 7d f0          	mov    %rdi,-0x10(%rbp)
  1016cb:	44 88 5d ef          	mov    %r11b,-0x11(%rbp)
  1016cf:	44 88 55 ee          	mov    %r10b,-0x12(%rbp)
  1016d3:	44 88 4d ed          	mov    %r9b,-0x13(%rbp)
  1016d7:	88 45 ec             	mov    %al,-0x14(%rbp)
  1016da:	48 8b 45 f0          	mov    -0x10(%rbp),%rax
  1016de:	48 89 45 e0          	mov    %rax,-0x20(%rbp)
  1016e2:	8a 4d ef             	mov    -0x11(%rbp),%cl
  1016e5:	88 4d df             	mov    %cl,-0x21(%rbp)
  1016e8:	8a 4d ee             	mov    -0x12(%rbp),%cl
  1016eb:	88 4d de             	mov    %cl,-0x22(%rbp)
  1016ee:	8a 4d ed             	mov    -0x13(%rbp),%cl
  1016f1:	88 4d dd             	mov    %cl,-0x23(%rbp)
  1016f4:	8a 4d ec             	mov    -0x14(%rbp),%cl
  1016f7:	88 4d dc             	mov    %cl,-0x24(%rbp)
  1016fa:	8a 4d dd             	mov    -0x23(%rbp),%cl
  1016fd:	88 4d cf             	mov    %cl,-0x31(%rbp)
  101700:	8a 4d dc             	mov    -0x24(%rbp),%cl
  101703:	88 4d ce             	mov    %cl,-0x32(%rbp)
  101706:	8a 4d cf             	mov    -0x31(%rbp),%cl
  101709:	88 4d d0             	mov    %cl,-0x30(%rbp)
  10170c:	8a 4d ce             	mov    -0x32(%rbp),%cl
  10170f:	88 4d d1             	mov    %cl,-0x2f(%rbp)
  101712:	0f b6 55 d0          	movzbl -0x30(%rbp),%edx
  101716:	89 d0                	mov    %edx,%eax
  101718:	48 89 c6             	mov    %rax,%rsi
  10171b:	48 83 ee 04          	sub    $0x4,%rsi
  10171f:	48 89 45 c0          	mov    %rax,-0x40(%rbp)
  101723:	48 89 75 b8          	mov    %rsi,-0x48(%rbp)
  101727:	0f 87 cb 02 00 00    	ja     1019f8 <_ZN4core4sync6atomic23atomic_compare_exchange17h351bfc42ebea2131E+0x348>
  10172d:	48 8d 05 b4 db 00 00 	lea    0xdbb4(%rip),%rax        # 10f2e8 <gdt64.pointer+0x20>
  101734:	48 8b 4d c0          	mov    -0x40(%rbp),%rcx
  101738:	48 63 14 88          	movslq (%rax,%rcx,4),%rdx
  10173c:	48 01 c2             	add    %rax,%rdx
  10173f:	ff e2                	jmpq   *%rdx
  101741:	48 8b 45 e0          	mov    -0x20(%rbp),%rax
  101745:	8a 4d df             	mov    -0x21(%rbp),%cl
  101748:	8a 55 de             	mov    -0x22(%rbp),%dl
  10174b:	48 89 45 b0          	mov    %rax,-0x50(%rbp)
  10174f:	88 c8                	mov    %cl,%al
  101751:	48 8b 75 b0          	mov    -0x50(%rbp),%rsi
  101755:	f0 0f b0 16          	lock cmpxchg %dl,(%rsi)
  101759:	0f 94 c1             	sete   %cl
  10175c:	80 e1 01             	and    $0x1,%cl
  10175f:	88 45 d8             	mov    %al,-0x28(%rbp)
  101762:	88 4d d9             	mov    %cl,-0x27(%rbp)
  101765:	e9 57 02 00 00       	jmpq   1019c1 <_ZN4core4sync6atomic23atomic_compare_exchange17h351bfc42ebea2131E+0x311>
  10176a:	48 8b 45 e0          	mov    -0x20(%rbp),%rax
  10176e:	8a 4d df             	mov    -0x21(%rbp),%cl
  101771:	8a 55 de             	mov    -0x22(%rbp),%dl
  101774:	48 89 45 a8          	mov    %rax,-0x58(%rbp)
  101778:	88 c8                	mov    %cl,%al
  10177a:	48 8b 75 a8          	mov    -0x58(%rbp),%rsi
  10177e:	f0 0f b0 16          	lock cmpxchg %dl,(%rsi)
  101782:	0f 94 c1             	sete   %cl
  101785:	80 e1 01             	and    $0x1,%cl
  101788:	88 45 d8             	mov    %al,-0x28(%rbp)
  10178b:	88 4d d9             	mov    %cl,-0x27(%rbp)
  10178e:	e9 2e 02 00 00       	jmpq   1019c1 <_ZN4core4sync6atomic23atomic_compare_exchange17h351bfc42ebea2131E+0x311>
  101793:	48 8b 45 e0          	mov    -0x20(%rbp),%rax
  101797:	8a 4d df             	mov    -0x21(%rbp),%cl
  10179a:	8a 55 de             	mov    -0x22(%rbp),%dl
  10179d:	48 89 45 a0          	mov    %rax,-0x60(%rbp)
  1017a1:	88 c8                	mov    %cl,%al
  1017a3:	48 8b 75 a0          	mov    -0x60(%rbp),%rsi
  1017a7:	f0 0f b0 16          	lock cmpxchg %dl,(%rsi)
  1017ab:	0f 94 c1             	sete   %cl
  1017ae:	80 e1 01             	and    $0x1,%cl
  1017b1:	88 45 d8             	mov    %al,-0x28(%rbp)
  1017b4:	88 4d d9             	mov    %cl,-0x27(%rbp)
  1017b7:	e9 05 02 00 00       	jmpq   1019c1 <_ZN4core4sync6atomic23atomic_compare_exchange17h351bfc42ebea2131E+0x311>
  1017bc:	48 8b 45 e0          	mov    -0x20(%rbp),%rax
  1017c0:	8a 4d df             	mov    -0x21(%rbp),%cl
  1017c3:	8a 55 de             	mov    -0x22(%rbp),%dl
  1017c6:	48 89 45 98          	mov    %rax,-0x68(%rbp)
  1017ca:	88 c8                	mov    %cl,%al
  1017cc:	48 8b 75 98          	mov    -0x68(%rbp),%rsi
  1017d0:	f0 0f b0 16          	lock cmpxchg %dl,(%rsi)
  1017d4:	0f 94 c1             	sete   %cl
  1017d7:	80 e1 01             	and    $0x1,%cl
  1017da:	88 45 d8             	mov    %al,-0x28(%rbp)
  1017dd:	88 4d d9             	mov    %cl,-0x27(%rbp)
  1017e0:	e9 dc 01 00 00       	jmpq   1019c1 <_ZN4core4sync6atomic23atomic_compare_exchange17h351bfc42ebea2131E+0x311>
  1017e5:	48 8b 45 e0          	mov    -0x20(%rbp),%rax
  1017e9:	8a 4d df             	mov    -0x21(%rbp),%cl
  1017ec:	8a 55 de             	mov    -0x22(%rbp),%dl
  1017ef:	48 89 45 90          	mov    %rax,-0x70(%rbp)
  1017f3:	88 c8                	mov    %cl,%al
  1017f5:	48 8b 75 90          	mov    -0x70(%rbp),%rsi
  1017f9:	f0 0f b0 16          	lock cmpxchg %dl,(%rsi)
  1017fd:	0f 94 c1             	sete   %cl
  101800:	80 e1 01             	and    $0x1,%cl
  101803:	88 45 d8             	mov    %al,-0x28(%rbp)
  101806:	88 4d d9             	mov    %cl,-0x27(%rbp)
  101809:	e9 b3 01 00 00       	jmpq   1019c1 <_ZN4core4sync6atomic23atomic_compare_exchange17h351bfc42ebea2131E+0x311>
  10180e:	48 8b 45 e0          	mov    -0x20(%rbp),%rax
  101812:	8a 4d df             	mov    -0x21(%rbp),%cl
  101815:	8a 55 de             	mov    -0x22(%rbp),%dl
  101818:	48 89 45 88          	mov    %rax,-0x78(%rbp)
  10181c:	88 c8                	mov    %cl,%al
  10181e:	48 8b 75 88          	mov    -0x78(%rbp),%rsi
  101822:	f0 0f b0 16          	lock cmpxchg %dl,(%rsi)
  101826:	0f 94 c1             	sete   %cl
  101829:	80 e1 01             	and    $0x1,%cl
  10182c:	88 45 d8             	mov    %al,-0x28(%rbp)
  10182f:	88 4d d9             	mov    %cl,-0x27(%rbp)
  101832:	e9 8a 01 00 00       	jmpq   1019c1 <_ZN4core4sync6atomic23atomic_compare_exchange17h351bfc42ebea2131E+0x311>
  101837:	48 8b 45 e0          	mov    -0x20(%rbp),%rax
  10183b:	8a 4d df             	mov    -0x21(%rbp),%cl
  10183e:	8a 55 de             	mov    -0x22(%rbp),%dl
  101841:	48 89 45 80          	mov    %rax,-0x80(%rbp)
  101845:	88 c8                	mov    %cl,%al
  101847:	48 8b 75 80          	mov    -0x80(%rbp),%rsi
  10184b:	f0 0f b0 16          	lock cmpxchg %dl,(%rsi)
  10184f:	0f 94 c1             	sete   %cl
  101852:	80 e1 01             	and    $0x1,%cl
  101855:	88 45 d8             	mov    %al,-0x28(%rbp)
  101858:	88 4d d9             	mov    %cl,-0x27(%rbp)
  10185b:	e9 61 01 00 00       	jmpq   1019c1 <_ZN4core4sync6atomic23atomic_compare_exchange17h351bfc42ebea2131E+0x311>
  101860:	48 8b 45 e0          	mov    -0x20(%rbp),%rax
  101864:	8a 4d df             	mov    -0x21(%rbp),%cl
  101867:	8a 55 de             	mov    -0x22(%rbp),%dl
  10186a:	48 89 85 78 ff ff ff 	mov    %rax,-0x88(%rbp)
  101871:	88 c8                	mov    %cl,%al
  101873:	48 8b b5 78 ff ff ff 	mov    -0x88(%rbp),%rsi
  10187a:	f0 0f b0 16          	lock cmpxchg %dl,(%rsi)
  10187e:	0f 94 c1             	sete   %cl
  101881:	80 e1 01             	and    $0x1,%cl
  101884:	88 45 d8             	mov    %al,-0x28(%rbp)
  101887:	88 4d d9             	mov    %cl,-0x27(%rbp)
  10188a:	e9 32 01 00 00       	jmpq   1019c1 <_ZN4core4sync6atomic23atomic_compare_exchange17h351bfc42ebea2131E+0x311>
  10188f:	48 8b 45 e0          	mov    -0x20(%rbp),%rax
  101893:	8a 4d df             	mov    -0x21(%rbp),%cl
  101896:	8a 55 de             	mov    -0x22(%rbp),%dl
  101899:	48 89 85 70 ff ff ff 	mov    %rax,-0x90(%rbp)
  1018a0:	88 c8                	mov    %cl,%al
  1018a2:	48 8b b5 70 ff ff ff 	mov    -0x90(%rbp),%rsi
  1018a9:	f0 0f b0 16          	lock cmpxchg %dl,(%rsi)
  1018ad:	0f 94 c1             	sete   %cl
  1018b0:	80 e1 01             	and    $0x1,%cl
  1018b3:	88 45 d8             	mov    %al,-0x28(%rbp)
  1018b6:	88 4d d9             	mov    %cl,-0x27(%rbp)
  1018b9:	e9 03 01 00 00       	jmpq   1019c1 <_ZN4core4sync6atomic23atomic_compare_exchange17h351bfc42ebea2131E+0x311>
  1018be:	48 8d 3d 13 eb 00 00 	lea    0xeb13(%rip),%rdi        # 1103d8 <_ZN4core4sync6atomic23atomic_compare_exchange14_MSG_FILE_LINE17hf10e54dcbd1c6b85E>
  1018c5:	e8 c6 3b 00 00       	callq  105490 <_ZN4core9panicking5panic17h585bd70cda921012E>
  1018ca:	48 8d 3d 2f eb 00 00 	lea    0xeb2f(%rip),%rdi        # 110400 <_ZN4core4sync6atomic23atomic_compare_exchange14_MSG_FILE_LINE17hc9fe27cc742236fbE>
  1018d1:	e8 ba 3b 00 00       	callq  105490 <_ZN4core9panicking5panic17h585bd70cda921012E>
  1018d6:	48 8d 3d 4b eb 00 00 	lea    0xeb4b(%rip),%rdi        # 110428 <_ZN4core4sync6atomic23atomic_compare_exchange14_MSG_FILE_LINE17he72801094272246fE>
  1018dd:	e8 ae 3b 00 00       	callq  105490 <_ZN4core9panicking5panic17h585bd70cda921012E>
  1018e2:	8a 45 d1             	mov    -0x2f(%rbp),%al
  1018e5:	84 c0                	test   %al,%al
  1018e7:	0f 84 cf fe ff ff    	je     1017bc <_ZN4core4sync6atomic23atomic_compare_exchange17h351bfc42ebea2131E+0x10c>
  1018ed:	e9 9a 00 00 00       	jmpq   10198c <_ZN4core4sync6atomic23atomic_compare_exchange17h351bfc42ebea2131E+0x2dc>
  1018f2:	8a 45 d1             	mov    -0x2f(%rbp),%al
  1018f5:	84 c0                	test   %al,%al
  1018f7:	0f 84 6d fe ff ff    	je     10176a <_ZN4core4sync6atomic23atomic_compare_exchange17h351bfc42ebea2131E+0xba>
  1018fd:	e9 8a 00 00 00       	jmpq   10198c <_ZN4core4sync6atomic23atomic_compare_exchange17h351bfc42ebea2131E+0x2dc>
  101902:	8a 45 d1             	mov    -0x2f(%rbp),%al
  101905:	84 c0                	test   %al,%al
  101907:	88 85 6f ff ff ff    	mov    %al,-0x91(%rbp)
  10190d:	0f 84 fb fe ff ff    	je     10180e <_ZN4core4sync6atomic23atomic_compare_exchange17h351bfc42ebea2131E+0x15e>
  101913:	eb 00                	jmp    101915 <_ZN4core4sync6atomic23atomic_compare_exchange17h351bfc42ebea2131E+0x265>
  101915:	8a 85 6f ff ff ff    	mov    -0x91(%rbp),%al
  10191b:	2c 02                	sub    $0x2,%al
  10191d:	88 85 6e ff ff ff    	mov    %al,-0x92(%rbp)
  101923:	0f 84 18 fe ff ff    	je     101741 <_ZN4core4sync6atomic23atomic_compare_exchange17h351bfc42ebea2131E+0x91>
  101929:	eb 61                	jmp    10198c <_ZN4core4sync6atomic23atomic_compare_exchange17h351bfc42ebea2131E+0x2dc>
  10192b:	8a 45 d1             	mov    -0x2f(%rbp),%al
  10192e:	84 c0                	test   %al,%al
  101930:	88 85 6d ff ff ff    	mov    %al,-0x93(%rbp)
  101936:	0f 84 fb fe ff ff    	je     101837 <_ZN4core4sync6atomic23atomic_compare_exchange17h351bfc42ebea2131E+0x187>
  10193c:	eb 00                	jmp    10193e <_ZN4core4sync6atomic23atomic_compare_exchange17h351bfc42ebea2131E+0x28e>
  10193e:	8a 85 6d ff ff ff    	mov    -0x93(%rbp),%al
  101944:	2c 02                	sub    $0x2,%al
  101946:	88 85 6c ff ff ff    	mov    %al,-0x94(%rbp)
  10194c:	0f 84 41 fe ff ff    	je     101793 <_ZN4core4sync6atomic23atomic_compare_exchange17h351bfc42ebea2131E+0xe3>
  101952:	eb 38                	jmp    10198c <_ZN4core4sync6atomic23atomic_compare_exchange17h351bfc42ebea2131E+0x2dc>
  101954:	0f b6 45 d1          	movzbl -0x2f(%rbp),%eax
  101958:	89 c1                	mov    %eax,%ecx
  10195a:	48 89 ca             	mov    %rcx,%rdx
  10195d:	48 83 ea 04          	sub    $0x4,%rdx
  101961:	48 89 8d 60 ff ff ff 	mov    %rcx,-0xa0(%rbp)
  101968:	48 89 95 58 ff ff ff 	mov    %rdx,-0xa8(%rbp)
  10196f:	0f 87 83 00 00 00    	ja     1019f8 <_ZN4core4sync6atomic23atomic_compare_exchange17h351bfc42ebea2131E+0x348>
  101975:	48 8d 05 80 d9 00 00 	lea    0xd980(%rip),%rax        # 10f2fc <gdt64.pointer+0x34>
  10197c:	48 8b 8d 60 ff ff ff 	mov    -0xa0(%rbp),%rcx
  101983:	48 63 14 88          	movslq (%rax,%rcx,4),%rdx
  101987:	48 01 c2             	add    %rax,%rdx
  10198a:	ff e2                	jmpq   *%rdx
  10198c:	8a 45 d1             	mov    -0x2f(%rbp),%al
  10198f:	88 c1                	mov    %al,%cl
  101991:	80 e9 01             	sub    $0x1,%cl
  101994:	88 85 57 ff ff ff    	mov    %al,-0xa9(%rbp)
  10199a:	88 8d 56 ff ff ff    	mov    %cl,-0xaa(%rbp)
  1019a0:	0f 84 24 ff ff ff    	je     1018ca <_ZN4core4sync6atomic23atomic_compare_exchange17h351bfc42ebea2131E+0x21a>
  1019a6:	eb 00                	jmp    1019a8 <_ZN4core4sync6atomic23atomic_compare_exchange17h351bfc42ebea2131E+0x2f8>
  1019a8:	8a 85 57 ff ff ff    	mov    -0xa9(%rbp),%al
  1019ae:	2c 03                	sub    $0x3,%al
  1019b0:	88 85 55 ff ff ff    	mov    %al,-0xab(%rbp)
  1019b6:	0f 84 02 ff ff ff    	je     1018be <_ZN4core4sync6atomic23atomic_compare_exchange17h351bfc42ebea2131E+0x20e>
  1019bc:	e9 15 ff ff ff       	jmpq   1018d6 <_ZN4core4sync6atomic23atomic_compare_exchange17h351bfc42ebea2131E+0x226>
  1019c1:	8a 45 d8             	mov    -0x28(%rbp),%al
  1019c4:	88 45 db             	mov    %al,-0x25(%rbp)
  1019c7:	8a 45 d9             	mov    -0x27(%rbp),%al
  1019ca:	24 01                	and    $0x1,%al
  1019cc:	88 45 da             	mov    %al,-0x26(%rbp)
  1019cf:	f6 45 da 01          	testb  $0x1,-0x26(%rbp)
  1019d3:	74 0c                	je     1019e1 <_ZN4core4sync6atomic23atomic_compare_exchange17h351bfc42ebea2131E+0x331>
  1019d5:	8a 45 db             	mov    -0x25(%rbp),%al
  1019d8:	c6 45 c8 00          	movb   $0x0,-0x38(%rbp)
  1019dc:	88 45 c9             	mov    %al,-0x37(%rbp)
  1019df:	eb 0a                	jmp    1019eb <_ZN4core4sync6atomic23atomic_compare_exchange17h351bfc42ebea2131E+0x33b>
  1019e1:	8a 45 db             	mov    -0x25(%rbp),%al
  1019e4:	c6 45 c8 01          	movb   $0x1,-0x38(%rbp)
  1019e8:	88 45 c9             	mov    %al,-0x37(%rbp)
  1019eb:	66 8b 45 c8          	mov    -0x38(%rbp),%ax
  1019ef:	48 81 c4 b0 00 00 00 	add    $0xb0,%rsp
  1019f6:	5d                   	pop    %rbp
  1019f7:	c3                   	retq   
  1019f8:	0f 1f 84 00 00 00 00 	nopl   0x0(%rax,%rax,1)
  1019ff:	00 

0000000000101a00 <_ZN4core4sync6atomic26strongest_failure_ordering17h0f22157647a2f2f1E>:
  101a00:	55                   	push   %rbp
  101a01:	48 89 e5             	mov    %rsp,%rbp
  101a04:	48 83 ec 18          	sub    $0x18,%rsp
  101a08:	40 88 f8             	mov    %dil,%al
  101a0b:	88 45 fe             	mov    %al,-0x2(%rbp)
  101a0e:	8a 45 fe             	mov    -0x2(%rbp),%al
  101a11:	88 45 fd             	mov    %al,-0x3(%rbp)
  101a14:	0f b6 4d fd          	movzbl -0x3(%rbp),%ecx
  101a18:	89 ca                	mov    %ecx,%edx
  101a1a:	48 89 d6             	mov    %rdx,%rsi
  101a1d:	48 83 ee 04          	sub    $0x4,%rsi
  101a21:	48 89 55 f0          	mov    %rdx,-0x10(%rbp)
  101a25:	48 89 75 e8          	mov    %rsi,-0x18(%rbp)
  101a29:	77 39                	ja     101a64 <_ZN4core4sync6atomic26strongest_failure_ordering17h0f22157647a2f2f1E+0x64>
  101a2b:	48 8d 05 de d8 00 00 	lea    0xd8de(%rip),%rax        # 10f310 <gdt64.pointer+0x48>
  101a32:	48 8b 4d f0          	mov    -0x10(%rbp),%rcx
  101a36:	48 63 14 88          	movslq (%rax,%rcx,4),%rdx
  101a3a:	48 01 c2             	add    %rax,%rdx
  101a3d:	ff e2                	jmpq   *%rdx
  101a3f:	c6 45 fc 00          	movb   $0x0,-0x4(%rbp)
  101a43:	eb 16                	jmp    101a5b <_ZN4core4sync6atomic26strongest_failure_ordering17h0f22157647a2f2f1E+0x5b>
  101a45:	c6 45 fc 00          	movb   $0x0,-0x4(%rbp)
  101a49:	eb 10                	jmp    101a5b <_ZN4core4sync6atomic26strongest_failure_ordering17h0f22157647a2f2f1E+0x5b>
  101a4b:	c6 45 fc 02          	movb   $0x2,-0x4(%rbp)
  101a4f:	eb 0a                	jmp    101a5b <_ZN4core4sync6atomic26strongest_failure_ordering17h0f22157647a2f2f1E+0x5b>
  101a51:	c6 45 fc 02          	movb   $0x2,-0x4(%rbp)
  101a55:	eb 04                	jmp    101a5b <_ZN4core4sync6atomic26strongest_failure_ordering17h0f22157647a2f2f1E+0x5b>
  101a57:	c6 45 fc 04          	movb   $0x4,-0x4(%rbp)
  101a5b:	8a 45 fc             	mov    -0x4(%rbp),%al
  101a5e:	48 83 c4 18          	add    $0x18,%rsp
  101a62:	5d                   	pop    %rbp
  101a63:	c3                   	retq   
  101a64:	66 2e 0f 1f 84 00 00 	nopw   %cs:0x0(%rax,%rax,1)
  101a6b:	00 00 00 
  101a6e:	66 90                	xchg   %ax,%ax

0000000000101a70 <_ZN4core5array101_$LT$impl$u20$core..iter..traits..IntoIterator$u20$for$u20$$RF$$u27$a$u20$$u5b$T$u3b$$u20$12$u5d$$GT$9into_iter17h6a043505b75b6b34E>:
  101a70:	55                   	push   %rbp
  101a71:	48 89 e5             	mov    %rsp,%rbp
  101a74:	48 83 ec 20          	sub    $0x20,%rsp
  101a78:	48 89 f8             	mov    %rdi,%rax
  101a7b:	48 89 75 f8          	mov    %rsi,-0x8(%rbp)
  101a7f:	48 89 45 e8          	mov    %rax,-0x18(%rbp)
  101a83:	48 89 7d e0          	mov    %rdi,-0x20(%rbp)
  101a87:	b8 0c 00 00 00       	mov    $0xc,%eax
  101a8c:	89 c2                	mov    %eax,%edx
  101a8e:	48 8b 4d f8          	mov    -0x8(%rbp),%rcx
  101a92:	48 89 4d f0          	mov    %rcx,-0x10(%rbp)
  101a96:	48 8b 4d f0          	mov    -0x10(%rbp),%rcx
  101a9a:	48 8b 7d e0          	mov    -0x20(%rbp),%rdi
  101a9e:	48 89 ce             	mov    %rcx,%rsi
  101aa1:	e8 ba 04 00 00       	callq  101f60 <_ZN53_$LT$$u5b$T$u5d$$u20$as$u20$core..slice..SliceExt$GT$4iter17h7b0dda1c92ba97edE>
  101aa6:	48 8b 45 e8          	mov    -0x18(%rbp),%rax
  101aaa:	48 83 c4 20          	add    $0x20,%rsp
  101aae:	5d                   	pop    %rbp
  101aaf:	c3                   	retq   

0000000000101ab0 <_ZN4core5slice71_$LT$impl$u20$core..ops..Index$LT$usize$GT$$u20$for$u20$$u5b$T$u5d$$GT$5index17h50ae4478be8f439cE>:
  101ab0:	55                   	push   %rbp
  101ab1:	48 89 e5             	mov    %rsp,%rbp
  101ab4:	48 83 ec 60          	sub    $0x60,%rsp
  101ab8:	48 89 7d e8          	mov    %rdi,-0x18(%rbp)
  101abc:	48 89 75 f0          	mov    %rsi,-0x10(%rbp)
  101ac0:	48 89 55 e0          	mov    %rdx,-0x20(%rbp)
  101ac4:	48 8b 45 e8          	mov    -0x18(%rbp),%rax
  101ac8:	48 8b 4d f0          	mov    -0x10(%rbp),%rcx
  101acc:	48 89 45 d0          	mov    %rax,-0x30(%rbp)
  101ad0:	48 89 4d d8          	mov    %rcx,-0x28(%rbp)
  101ad4:	48 8b 45 e0          	mov    -0x20(%rbp),%rax
  101ad8:	48 89 45 c8          	mov    %rax,-0x38(%rbp)
  101adc:	48 8b 45 c8          	mov    -0x38(%rbp),%rax
  101ae0:	48 8b 7d d0          	mov    -0x30(%rbp),%rdi
  101ae4:	48 8b 75 d8          	mov    -0x28(%rbp),%rsi
  101ae8:	48 89 45 b8          	mov    %rax,-0x48(%rbp)
  101aec:	e8 cf 03 00 00       	callq  101ec0 <_ZN53_$LT$$u5b$T$u5d$$u20$as$u20$core..slice..SliceExt$GT$3len17h26b73696b06f63cbE>
  101af1:	48 89 45 b0          	mov    %rax,-0x50(%rbp)
  101af5:	48 8b 45 b8          	mov    -0x48(%rbp),%rax
  101af9:	48 8b 4d b0          	mov    -0x50(%rbp),%rcx
  101afd:	48 39 c8             	cmp    %rcx,%rax
  101b00:	0f 92 c2             	setb   %dl
  101b03:	80 f2 ff             	xor    $0xff,%dl
  101b06:	f6 c2 01             	test   $0x1,%dl
  101b09:	75 02                	jne    101b0d <_ZN4core5slice71_$LT$impl$u20$core..ops..Index$LT$usize$GT$$u20$for$u20$$u5b$T$u5d$$GT$5index17h50ae4478be8f439cE+0x5d>
  101b0b:	eb 0c                	jmp    101b19 <_ZN4core5slice71_$LT$impl$u20$core..ops..Index$LT$usize$GT$$u20$for$u20$$u5b$T$u5d$$GT$5index17h50ae4478be8f439cE+0x69>
  101b0d:	48 8d 3d ec e9 00 00 	lea    0xe9ec(%rip),%rdi        # 110500 <_ZN4core5slice71_$LT$impl$u20$core..ops..Index$LT$usize$GT$$u20$for$u20$$u5b$T$u5d$$GT$5index14_MSG_FILE_LINE17hd4a8c28ce6b3e2a5E>
  101b14:	e8 77 39 00 00       	callq  105490 <_ZN4core9panicking5panic17h585bd70cda921012E>
  101b19:	48 8b 7d d0          	mov    -0x30(%rbp),%rdi
  101b1d:	48 8b 75 d8          	mov    -0x28(%rbp),%rsi
  101b21:	48 8b 55 c8          	mov    -0x38(%rbp),%rdx
  101b25:	e8 d6 02 00 00       	callq  101e00 <_ZN53_$LT$$u5b$T$u5d$$u20$as$u20$core..slice..SliceExt$GT$13get_unchecked17h0f34e8f869d2097eE>
  101b2a:	48 89 45 a8          	mov    %rax,-0x58(%rbp)
  101b2e:	48 8b 45 a8          	mov    -0x58(%rbp),%rax
  101b32:	48 83 c4 60          	add    $0x60,%rsp
  101b36:	5d                   	pop    %rbp
  101b37:	c3                   	retq   
  101b38:	0f 1f 84 00 00 00 00 	nopl   0x0(%rax,%rax,1)
  101b3f:	00 

0000000000101b40 <_ZN4core5slice74_$LT$impl$u20$core..ops..IndexMut$LT$usize$GT$$u20$for$u20$$u5b$T$u5d$$GT$9index_mut17h84d6f44256c72fd4E>:
  101b40:	55                   	push   %rbp
  101b41:	48 89 e5             	mov    %rsp,%rbp
  101b44:	48 83 ec 60          	sub    $0x60,%rsp
  101b48:	48 89 7d e8          	mov    %rdi,-0x18(%rbp)
  101b4c:	48 89 75 f0          	mov    %rsi,-0x10(%rbp)
  101b50:	48 89 55 e0          	mov    %rdx,-0x20(%rbp)
  101b54:	48 8b 45 e8          	mov    -0x18(%rbp),%rax
  101b58:	48 8b 4d f0          	mov    -0x10(%rbp),%rcx
  101b5c:	48 89 45 d0          	mov    %rax,-0x30(%rbp)
  101b60:	48 89 4d d8          	mov    %rcx,-0x28(%rbp)
  101b64:	48 8b 45 e0          	mov    -0x20(%rbp),%rax
  101b68:	48 89 45 c8          	mov    %rax,-0x38(%rbp)
  101b6c:	48 8b 45 c8          	mov    -0x38(%rbp),%rax
  101b70:	48 8b 7d d0          	mov    -0x30(%rbp),%rdi
  101b74:	48 8b 75 d8          	mov    -0x28(%rbp),%rsi
  101b78:	48 89 45 b8          	mov    %rax,-0x48(%rbp)
  101b7c:	e8 8f 03 00 00       	callq  101f10 <_ZN53_$LT$$u5b$T$u5d$$u20$as$u20$core..slice..SliceExt$GT$3len17he17f44d354df8341E>
  101b81:	48 89 45 b0          	mov    %rax,-0x50(%rbp)
  101b85:	48 8b 45 b8          	mov    -0x48(%rbp),%rax
  101b89:	48 8b 4d b0          	mov    -0x50(%rbp),%rcx
  101b8d:	48 39 c8             	cmp    %rcx,%rax
  101b90:	0f 92 c2             	setb   %dl
  101b93:	80 f2 ff             	xor    $0xff,%dl
  101b96:	f6 c2 01             	test   $0x1,%dl
  101b99:	75 02                	jne    101b9d <_ZN4core5slice74_$LT$impl$u20$core..ops..IndexMut$LT$usize$GT$$u20$for$u20$$u5b$T$u5d$$GT$9index_mut17h84d6f44256c72fd4E+0x5d>
  101b9b:	eb 0c                	jmp    101ba9 <_ZN4core5slice74_$LT$impl$u20$core..ops..IndexMut$LT$usize$GT$$u20$for$u20$$u5b$T$u5d$$GT$9index_mut17h84d6f44256c72fd4E+0x69>
  101b9d:	48 8d 3d 84 e9 00 00 	lea    0xe984(%rip),%rdi        # 110528 <_ZN4core5slice74_$LT$impl$u20$core..ops..IndexMut$LT$usize$GT$$u20$for$u20$$u5b$T$u5d$$GT$9index_mut14_MSG_FILE_LINE17hdc6d73d2b1d0e93cE>
  101ba4:	e8 e7 38 00 00       	callq  105490 <_ZN4core9panicking5panic17h585bd70cda921012E>
  101ba9:	48 8b 7d d0          	mov    -0x30(%rbp),%rdi
  101bad:	48 8b 75 d8          	mov    -0x28(%rbp),%rsi
  101bb1:	48 8b 55 c8          	mov    -0x38(%rbp),%rdx
  101bb5:	e8 a6 02 00 00       	callq  101e60 <_ZN53_$LT$$u5b$T$u5d$$u20$as$u20$core..slice..SliceExt$GT$17get_unchecked_mut17h305a7549d16886e7E>
  101bba:	48 89 45 a8          	mov    %rax,-0x58(%rbp)
  101bbe:	48 8b 45 a8          	mov    -0x58(%rbp),%rax
  101bc2:	48 83 c4 60          	add    $0x60,%rsp
  101bc6:	5d                   	pop    %rbp
  101bc7:	c3                   	retq   
  101bc8:	0f 1f 84 00 00 00 00 	nopl   0x0(%rax,%rax,1)
  101bcf:	00 

0000000000101bd0 <_ZN4core6result13unwrap_failed17h2281db82013e9106E>:
  101bd0:	55                   	push   %rbp
  101bd1:	48 89 e5             	mov    %rsp,%rbp
  101bd4:	48 81 ec f0 00 00 00 	sub    $0xf0,%rsp
  101bdb:	48 89 7d f0          	mov    %rdi,-0x10(%rbp)
  101bdf:	48 89 75 f8          	mov    %rsi,-0x8(%rbp)
  101be3:	48 8d 45 d0          	lea    -0x30(%rbp),%rax
  101be7:	48 8d 4d d8          	lea    -0x28(%rbp),%rcx
  101beb:	48 8d 15 fe e8 00 00 	lea    0xe8fe(%rip),%rdx        # 1104f0 <_ZN4core6result13unwrap_failed15__STATIC_FMTSTR17h75da7f0fe1681751E>
  101bf2:	48 8b 75 f0          	mov    -0x10(%rbp),%rsi
  101bf6:	48 8b 7d f8          	mov    -0x8(%rbp),%rdi
  101bfa:	48 89 75 d8          	mov    %rsi,-0x28(%rbp)
  101bfe:	48 89 7d e0          	mov    %rdi,-0x20(%rbp)
  101c02:	48 8b 32             	mov    (%rdx),%rsi
  101c05:	48 8b 52 08          	mov    0x8(%rdx),%rdx
  101c09:	48 89 8d 60 ff ff ff 	mov    %rcx,-0xa0(%rbp)
  101c10:	48 89 85 68 ff ff ff 	mov    %rax,-0x98(%rbp)
  101c17:	48 8b 85 60 ff ff ff 	mov    -0xa0(%rbp),%rax
  101c1e:	48 89 45 c8          	mov    %rax,-0x38(%rbp)
  101c22:	48 8b 85 68 ff ff ff 	mov    -0x98(%rbp),%rax
  101c29:	48 89 45 c0          	mov    %rax,-0x40(%rbp)
  101c2d:	48 89 b5 38 ff ff ff 	mov    %rsi,-0xc8(%rbp)
  101c34:	48 89 95 30 ff ff ff 	mov    %rdx,-0xd0(%rbp)
  101c3b:	48 8d bd 50 ff ff ff 	lea    -0xb0(%rbp),%rdi
  101c42:	48 8d 15 87 07 00 00 	lea    0x787(%rip),%rdx        # 1023d0 <_ZN55_$LT$$RF$$u27$a$u20$T$u20$as$u20$core..fmt..Display$GT$3fmt17hd58574be7c4db377E>
  101c49:	48 8b 75 c8          	mov    -0x38(%rbp),%rsi
  101c4d:	e8 5e f0 ff ff       	callq  100cb0 <_ZN4core3fmt10ArgumentV13new17h710935a10de9157aE>
  101c52:	48 8b 95 50 ff ff ff 	mov    -0xb0(%rbp),%rdx
  101c59:	48 8b b5 58 ff ff ff 	mov    -0xa8(%rbp),%rsi
  101c60:	48 89 95 28 ff ff ff 	mov    %rdx,-0xd8(%rbp)
  101c67:	48 89 b5 20 ff ff ff 	mov    %rsi,-0xe0(%rbp)
  101c6e:	48 8d bd 40 ff ff ff 	lea    -0xc0(%rbp),%rdi
  101c75:	48 8d 15 d4 9d 00 00 	lea    0x9dd4(%rip),%rdx        # 10ba50 <_ZN53_$LT$core..fmt..Error$u20$as$u20$core..fmt..Debug$GT$3fmt17h493687bd3a737fd3E>
  101c7c:	48 8b 75 c0          	mov    -0x40(%rbp),%rsi
  101c80:	e8 4b ef ff ff       	callq  100bd0 <_ZN4core3fmt10ArgumentV13new17h190f0d83f1bf27fdE>
  101c85:	48 8b 95 40 ff ff ff 	mov    -0xc0(%rbp),%rdx
  101c8c:	48 8b b5 48 ff ff ff 	mov    -0xb8(%rbp),%rsi
  101c93:	48 89 95 18 ff ff ff 	mov    %rdx,-0xe8(%rbp)
  101c9a:	48 89 b5 10 ff ff ff 	mov    %rsi,-0xf0(%rbp)
  101ca1:	48 8d 7d 90          	lea    -0x70(%rbp),%rdi
  101ca5:	b8 02 00 00 00       	mov    $0x2,%eax
  101caa:	41 89 c0             	mov    %eax,%r8d
  101cad:	48 8d 8d 70 ff ff ff 	lea    -0x90(%rbp),%rcx
  101cb4:	48 8b 95 28 ff ff ff 	mov    -0xd8(%rbp),%rdx
  101cbb:	48 89 95 70 ff ff ff 	mov    %rdx,-0x90(%rbp)
  101cc2:	48 8b b5 20 ff ff ff 	mov    -0xe0(%rbp),%rsi
  101cc9:	48 89 b5 78 ff ff ff 	mov    %rsi,-0x88(%rbp)
  101cd0:	4c 8b 8d 18 ff ff ff 	mov    -0xe8(%rbp),%r9
  101cd7:	4c 89 4d 80          	mov    %r9,-0x80(%rbp)
  101cdb:	4c 8b 95 10 ff ff ff 	mov    -0xf0(%rbp),%r10
  101ce2:	4c 89 55 88          	mov    %r10,-0x78(%rbp)
  101ce6:	48 8b b5 38 ff ff ff 	mov    -0xc8(%rbp),%rsi
  101ced:	48 8b 95 30 ff ff ff 	mov    -0xd0(%rbp),%rdx
  101cf4:	e8 b7 f2 ff ff       	callq  100fb0 <_ZN4core3fmt9Arguments6new_v117h2ee48eb28c0cff0aE>
  101cf9:	48 8d 7d 90          	lea    -0x70(%rbp),%rdi
  101cfd:	48 8d 35 d4 e7 00 00 	lea    0xe7d4(%rip),%rsi        # 1104d8 <_ZN4core6result13unwrap_failed10_FILE_LINE17h4f2b2d4b095d15a8E>
  101d04:	e8 57 39 00 00       	callq  105660 <_ZN4core9panicking9panic_fmt17hb567db798f4a4807E>
  101d09:	0f 1f 80 00 00 00 00 	nopl   0x0(%rax)

0000000000101d10 <_ZN4drop17h0da496a0673bac19E>:
  101d10:	55                   	push   %rbp
  101d11:	48 89 e5             	mov    %rsp,%rbp
  101d14:	48 83 ec 10          	sub    $0x10,%rsp
  101d18:	8a 47 10             	mov    0x10(%rdi),%al
  101d1b:	3c d4                	cmp    $0xd4,%al
  101d1d:	0f 95 c1             	setne  %cl
  101d20:	3c 1d                	cmp    $0x1d,%al
  101d22:	0f 95 c2             	setne  %dl
  101d25:	20 d1                	and    %dl,%cl
  101d27:	f6 c1 01             	test   $0x1,%cl
  101d2a:	48 89 7d f8          	mov    %rdi,-0x8(%rbp)
  101d2e:	88 45 f7             	mov    %al,-0x9(%rbp)
  101d31:	75 09                	jne    101d3c <_ZN4drop17h0da496a0673bac19E+0x2c>
  101d33:	8a 45 f7             	mov    -0x9(%rbp),%al
  101d36:	3c d4                	cmp    $0xd4,%al
  101d38:	74 0b                	je     101d45 <_ZN4drop17h0da496a0673bac19E+0x35>
  101d3a:	eb 03                	jmp    101d3f <_ZN4drop17h0da496a0673bac19E+0x2f>
  101d3c:	cc                   	int3   
  101d3d:	eb f4                	jmp    101d33 <_ZN4drop17h0da496a0673bac19E+0x23>
  101d3f:	48 83 c4 10          	add    $0x10,%rsp
  101d43:	5d                   	pop    %rbp
  101d44:	c3                   	retq   
  101d45:	48 8b 7d f8          	mov    -0x8(%rbp),%rdi
  101d49:	e8 22 08 00 00       	callq  102570 <_ZN82_$LT$spin..mutex..MutexGuard$LT$$u27$a$C$$u20$T$GT$$u20$as$u20$core..ops..Drop$GT$4drop17hb679972316a29187E>
  101d4e:	48 8b 7d f8          	mov    -0x8(%rbp),%rdi
  101d52:	e8 09 e5 ff ff       	callq  100260 <_ZN13drop_contents17h0da496a0673bac19E>
  101d57:	eb e6                	jmp    101d3f <_ZN4drop17h0da496a0673bac19E+0x2f>
  101d59:	0f 1f 80 00 00 00 00 	nopl   0x0(%rax)

0000000000101d60 <_ZN4drop17h80e900ba5b592571E>:
  101d60:	55                   	push   %rbp
  101d61:	48 89 e5             	mov    %rsp,%rbp
  101d64:	48 83 ec 10          	sub    $0x10,%rsp
  101d68:	8a 47 10             	mov    0x10(%rdi),%al
  101d6b:	3c d4                	cmp    $0xd4,%al
  101d6d:	0f 95 c1             	setne  %cl
  101d70:	3c 1d                	cmp    $0x1d,%al
  101d72:	0f 95 c2             	setne  %dl
  101d75:	20 d1                	and    %dl,%cl
  101d77:	f6 c1 01             	test   $0x1,%cl
  101d7a:	48 89 7d f8          	mov    %rdi,-0x8(%rbp)
  101d7e:	88 45 f7             	mov    %al,-0x9(%rbp)
  101d81:	75 09                	jne    101d8c <_ZN4drop17h80e900ba5b592571E+0x2c>
  101d83:	8a 45 f7             	mov    -0x9(%rbp),%al
  101d86:	3c d4                	cmp    $0xd4,%al
  101d88:	74 0b                	je     101d95 <_ZN4drop17h80e900ba5b592571E+0x35>
  101d8a:	eb 03                	jmp    101d8f <_ZN4drop17h80e900ba5b592571E+0x2f>
  101d8c:	cc                   	int3   
  101d8d:	eb f4                	jmp    101d83 <_ZN4drop17h80e900ba5b592571E+0x23>
  101d8f:	48 83 c4 10          	add    $0x10,%rsp
  101d93:	5d                   	pop    %rbp
  101d94:	c3                   	retq   
  101d95:	48 8b 7d f8          	mov    -0x8(%rbp),%rdi
  101d99:	e8 02 08 00 00       	callq  1025a0 <_ZN82_$LT$spin..mutex..MutexGuard$LT$$u27$a$C$$u20$T$GT$$u20$as$u20$core..ops..Drop$GT$4drop17hf361d94432bc7072E>
  101d9e:	48 8b 7d f8          	mov    -0x8(%rbp),%rdi
  101da2:	e8 c9 e4 ff ff       	callq  100270 <_ZN13drop_contents17h80e900ba5b592571E>
  101da7:	eb e6                	jmp    101d8f <_ZN4drop17h80e900ba5b592571E+0x2f>
  101da9:	0f 1f 80 00 00 00 00 	nopl   0x0(%rax)

0000000000101db0 <_ZN4drop17hc900adbc62f5500dE>:
  101db0:	55                   	push   %rbp
  101db1:	48 89 e5             	mov    %rsp,%rbp
  101db4:	50                   	push   %rax
  101db5:	48 89 7d f8          	mov    %rdi,-0x8(%rbp)
  101db9:	48 83 c4 08          	add    $0x8,%rsp
  101dbd:	5d                   	pop    %rbp
  101dbe:	c3                   	retq   
  101dbf:	90                   	nop

0000000000101dc0 <_ZN53_$LT$$u5b$T$u5d$$u20$as$u20$core..slice..SliceExt$GT$10as_mut_ptr17h0e56edd2ac4af6b0E>:
  101dc0:	55                   	push   %rbp
  101dc1:	48 89 e5             	mov    %rsp,%rbp
  101dc4:	48 83 ec 30          	sub    $0x30,%rsp
  101dc8:	48 89 7d e8          	mov    %rdi,-0x18(%rbp)
  101dcc:	48 89 75 f0          	mov    %rsi,-0x10(%rbp)
  101dd0:	48 8b 45 e8          	mov    -0x18(%rbp),%rax
  101dd4:	48 8b 4d f0          	mov    -0x10(%rbp),%rcx
  101dd8:	48 89 45 d8          	mov    %rax,-0x28(%rbp)
  101ddc:	48 89 4d e0          	mov    %rcx,-0x20(%rbp)
  101de0:	48 8b 45 d8          	mov    -0x28(%rbp),%rax
  101de4:	48 89 45 d0          	mov    %rax,-0x30(%rbp)
  101de8:	48 8b 45 d0          	mov    -0x30(%rbp),%rax
  101dec:	48 83 c4 30          	add    $0x30,%rsp
  101df0:	5d                   	pop    %rbp
  101df1:	c3                   	retq   
  101df2:	66 2e 0f 1f 84 00 00 	nopw   %cs:0x0(%rax,%rax,1)
  101df9:	00 00 00 
  101dfc:	0f 1f 40 00          	nopl   0x0(%rax)

0000000000101e00 <_ZN53_$LT$$u5b$T$u5d$$u20$as$u20$core..slice..SliceExt$GT$13get_unchecked17h0f34e8f869d2097eE>:
  101e00:	55                   	push   %rbp
  101e01:	48 89 e5             	mov    %rsp,%rbp
  101e04:	48 83 ec 50          	sub    $0x50,%rsp
  101e08:	48 89 7d e8          	mov    %rdi,-0x18(%rbp)
  101e0c:	48 89 75 f0          	mov    %rsi,-0x10(%rbp)
  101e10:	48 89 55 e0          	mov    %rdx,-0x20(%rbp)
  101e14:	48 8b 45 e8          	mov    -0x18(%rbp),%rax
  101e18:	48 8b 4d f0          	mov    -0x10(%rbp),%rcx
  101e1c:	48 89 45 d0          	mov    %rax,-0x30(%rbp)
  101e20:	48 89 4d d8          	mov    %rcx,-0x28(%rbp)
  101e24:	48 8b 45 e0          	mov    -0x20(%rbp),%rax
  101e28:	48 89 45 c8          	mov    %rax,-0x38(%rbp)
  101e2c:	48 8b 7d d0          	mov    -0x30(%rbp),%rdi
  101e30:	48 8b 75 d8          	mov    -0x28(%rbp),%rsi
  101e34:	e8 b7 02 00 00       	callq  1020f0 <_ZN53_$LT$$u5b$T$u5d$$u20$as$u20$core..slice..SliceExt$GT$6as_ptr17hd271017da618ecc1E>
  101e39:	48 89 45 c0          	mov    %rax,-0x40(%rbp)
  101e3d:	48 8b 75 c8          	mov    -0x38(%rbp),%rsi
  101e41:	48 8b 7d c0          	mov    -0x40(%rbp),%rdi
  101e45:	e8 46 f3 ff ff       	callq  101190 <_ZN4core3ptr33_$LT$impl$u20$$BP$const$u20$T$GT$6offset17h991e076664d68775E>
  101e4a:	48 89 45 b8          	mov    %rax,-0x48(%rbp)
  101e4e:	48 8b 45 b8          	mov    -0x48(%rbp),%rax
  101e52:	48 83 c4 50          	add    $0x50,%rsp
  101e56:	5d                   	pop    %rbp
  101e57:	c3                   	retq   
  101e58:	0f 1f 84 00 00 00 00 	nopl   0x0(%rax,%rax,1)
  101e5f:	00 

0000000000101e60 <_ZN53_$LT$$u5b$T$u5d$$u20$as$u20$core..slice..SliceExt$GT$17get_unchecked_mut17h305a7549d16886e7E>:
  101e60:	55                   	push   %rbp
  101e61:	48 89 e5             	mov    %rsp,%rbp
  101e64:	48 83 ec 50          	sub    $0x50,%rsp
  101e68:	48 89 7d e8          	mov    %rdi,-0x18(%rbp)
  101e6c:	48 89 75 f0          	mov    %rsi,-0x10(%rbp)
  101e70:	48 89 55 e0          	mov    %rdx,-0x20(%rbp)
  101e74:	48 8b 45 e8          	mov    -0x18(%rbp),%rax
  101e78:	48 8b 4d f0          	mov    -0x10(%rbp),%rcx
  101e7c:	48 89 45 d0          	mov    %rax,-0x30(%rbp)
  101e80:	48 89 4d d8          	mov    %rcx,-0x28(%rbp)
  101e84:	48 8b 45 e0          	mov    -0x20(%rbp),%rax
  101e88:	48 89 45 c8          	mov    %rax,-0x38(%rbp)
  101e8c:	48 8b 7d d0          	mov    -0x30(%rbp),%rdi
  101e90:	48 8b 75 d8          	mov    -0x28(%rbp),%rsi
  101e94:	e8 27 ff ff ff       	callq  101dc0 <_ZN53_$LT$$u5b$T$u5d$$u20$as$u20$core..slice..SliceExt$GT$10as_mut_ptr17h0e56edd2ac4af6b0E>
  101e99:	48 89 45 c0          	mov    %rax,-0x40(%rbp)
  101e9d:	48 8b 75 c8          	mov    -0x38(%rbp),%rsi
  101ea1:	48 8b 7d c0          	mov    -0x40(%rbp),%rdi
  101ea5:	e8 66 f2 ff ff       	callq  101110 <_ZN4core3ptr31_$LT$impl$u20$$BP$mut$u20$T$GT$6offset17hd699195ba756a29fE>
  101eaa:	48 89 45 b8          	mov    %rax,-0x48(%rbp)
  101eae:	48 8b 45 b8          	mov    -0x48(%rbp),%rax
  101eb2:	48 83 c4 50          	add    $0x50,%rsp
  101eb6:	5d                   	pop    %rbp
  101eb7:	c3                   	retq   
  101eb8:	0f 1f 84 00 00 00 00 	nopl   0x0(%rax,%rax,1)
  101ebf:	00 

0000000000101ec0 <_ZN53_$LT$$u5b$T$u5d$$u20$as$u20$core..slice..SliceExt$GT$3len17h26b73696b06f63cbE>:
  101ec0:	55                   	push   %rbp
  101ec1:	48 89 e5             	mov    %rsp,%rbp
  101ec4:	48 83 ec 40          	sub    $0x40,%rsp
  101ec8:	48 89 7d e8          	mov    %rdi,-0x18(%rbp)
  101ecc:	48 89 75 f0          	mov    %rsi,-0x10(%rbp)
  101ed0:	48 8b 45 e8          	mov    -0x18(%rbp),%rax
  101ed4:	48 8b 4d f0          	mov    -0x10(%rbp),%rcx
  101ed8:	48 89 45 d8          	mov    %rax,-0x28(%rbp)
  101edc:	48 89 4d e0          	mov    %rcx,-0x20(%rbp)
  101ee0:	48 8b 45 d8          	mov    -0x28(%rbp),%rax
  101ee4:	48 8b 4d e0          	mov    -0x20(%rbp),%rcx
  101ee8:	48 89 45 c8          	mov    %rax,-0x38(%rbp)
  101eec:	48 89 4d d0          	mov    %rcx,-0x30(%rbp)
  101ef0:	48 8b 45 d0          	mov    -0x30(%rbp),%rax
  101ef4:	48 89 45 c0          	mov    %rax,-0x40(%rbp)
  101ef8:	48 8b 45 c0          	mov    -0x40(%rbp),%rax
  101efc:	48 83 c4 40          	add    $0x40,%rsp
  101f00:	5d                   	pop    %rbp
  101f01:	c3                   	retq   
  101f02:	66 2e 0f 1f 84 00 00 	nopw   %cs:0x0(%rax,%rax,1)
  101f09:	00 00 00 
  101f0c:	0f 1f 40 00          	nopl   0x0(%rax)

0000000000101f10 <_ZN53_$LT$$u5b$T$u5d$$u20$as$u20$core..slice..SliceExt$GT$3len17he17f44d354df8341E>:
  101f10:	55                   	push   %rbp
  101f11:	48 89 e5             	mov    %rsp,%rbp
  101f14:	48 83 ec 40          	sub    $0x40,%rsp
  101f18:	48 89 7d e8          	mov    %rdi,-0x18(%rbp)
  101f1c:	48 89 75 f0          	mov    %rsi,-0x10(%rbp)
  101f20:	48 8b 45 e8          	mov    -0x18(%rbp),%rax
  101f24:	48 8b 4d f0          	mov    -0x10(%rbp),%rcx
  101f28:	48 89 45 d8          	mov    %rax,-0x28(%rbp)
  101f2c:	48 89 4d e0          	mov    %rcx,-0x20(%rbp)
  101f30:	48 8b 45 d8          	mov    -0x28(%rbp),%rax
  101f34:	48 8b 4d e0          	mov    -0x20(%rbp),%rcx
  101f38:	48 89 45 c8          	mov    %rax,-0x38(%rbp)
  101f3c:	48 89 4d d0          	mov    %rcx,-0x30(%rbp)
  101f40:	48 8b 45 d0          	mov    -0x30(%rbp),%rax
  101f44:	48 89 45 c0          	mov    %rax,-0x40(%rbp)
  101f48:	48 8b 45 c0          	mov    -0x40(%rbp),%rax
  101f4c:	48 83 c4 40          	add    $0x40,%rsp
  101f50:	5d                   	pop    %rbp
  101f51:	c3                   	retq   
  101f52:	66 2e 0f 1f 84 00 00 	nopw   %cs:0x0(%rax,%rax,1)
  101f59:	00 00 00 
  101f5c:	0f 1f 40 00          	nopl   0x0(%rax)

0000000000101f60 <_ZN53_$LT$$u5b$T$u5d$$u20$as$u20$core..slice..SliceExt$GT$4iter17h7b0dda1c92ba97edE>:
  101f60:	55                   	push   %rbp
  101f61:	48 89 e5             	mov    %rsp,%rbp
  101f64:	48 81 ec b0 00 00 00 	sub    $0xb0,%rsp
  101f6b:	48 89 f8             	mov    %rdi,%rax
  101f6e:	48 89 75 e8          	mov    %rsi,-0x18(%rbp)
  101f72:	48 89 55 f0          	mov    %rdx,-0x10(%rbp)
  101f76:	48 89 45 a0          	mov    %rax,-0x60(%rbp)
  101f7a:	48 89 7d 98          	mov    %rdi,-0x68(%rbp)
  101f7e:	48 8b 45 e8          	mov    -0x18(%rbp),%rax
  101f82:	48 8b 4d f0          	mov    -0x10(%rbp),%rcx
  101f86:	48 89 45 d8          	mov    %rax,-0x28(%rbp)
  101f8a:	48 89 4d e0          	mov    %rcx,-0x20(%rbp)
  101f8e:	e8 4d f1 ff ff       	callq  1010e0 <_ZN4core3mem7size_of17hb7c38d54091f1b39E>
  101f93:	48 89 45 90          	mov    %rax,-0x70(%rbp)
  101f97:	48 8b 45 90          	mov    -0x70(%rbp),%rax
  101f9b:	48 83 f8 00          	cmp    $0x0,%rax
  101f9f:	75 0d                	jne    101fae <_ZN53_$LT$$u5b$T$u5d$$u20$as$u20$core..slice..SliceExt$GT$4iter17h7b0dda1c92ba97edE+0x4e>
  101fa1:	b8 01 00 00 00       	mov    $0x1,%eax
  101fa6:	89 c1                	mov    %eax,%ecx
  101fa8:	48 89 4d d0          	mov    %rcx,-0x30(%rbp)
  101fac:	eb 25                	jmp    101fd3 <_ZN53_$LT$$u5b$T$u5d$$u20$as$u20$core..slice..SliceExt$GT$4iter17h7b0dda1c92ba97edE+0x73>
  101fae:	48 8b 7d d8          	mov    -0x28(%rbp),%rdi
  101fb2:	48 8b 75 e0          	mov    -0x20(%rbp),%rsi
  101fb6:	e8 f5 00 00 00       	callq  1020b0 <_ZN53_$LT$$u5b$T$u5d$$u20$as$u20$core..slice..SliceExt$GT$6as_ptr17h7ebcf49c904fbf2fE>
  101fbb:	48 89 45 c8          	mov    %rax,-0x38(%rbp)
  101fbf:	48 8b 7d c8          	mov    -0x38(%rbp),%rdi
  101fc3:	e8 18 f2 ff ff       	callq  1011e0 <_ZN4core3ptr33_$LT$impl$u20$$BP$const$u20$T$GT$7is_null17h99216fd405cc08a2E>
  101fc8:	88 45 8f             	mov    %al,-0x71(%rbp)
  101fcb:	48 8b 45 c8          	mov    -0x38(%rbp),%rax
  101fcf:	48 89 45 d0          	mov    %rax,-0x30(%rbp)
  101fd3:	48 8b 45 d0          	mov    -0x30(%rbp),%rax
  101fd7:	48 8b 4d d0          	mov    -0x30(%rbp),%rcx
  101fdb:	48 89 4d c0          	mov    %rcx,-0x40(%rbp)
  101fdf:	48 8b 4d c0          	mov    -0x40(%rbp),%rcx
  101fe3:	48 89 4d f8          	mov    %rcx,-0x8(%rbp)
  101fe7:	48 89 45 80          	mov    %rax,-0x80(%rbp)
  101feb:	e8 f0 f0 ff ff       	callq  1010e0 <_ZN4core3mem7size_of17hb7c38d54091f1b39E>
  101ff0:	48 89 85 78 ff ff ff 	mov    %rax,-0x88(%rbp)
  101ff7:	48 8b 85 78 ff ff ff 	mov    -0x88(%rbp),%rax
  101ffe:	48 83 f8 00          	cmp    $0x0,%rax
  102002:	75 21                	jne    102025 <_ZN53_$LT$$u5b$T$u5d$$u20$as$u20$core..slice..SliceExt$GT$4iter17h7b0dda1c92ba97edE+0xc5>
  102004:	48 8b 45 c0          	mov    -0x40(%rbp),%rax
  102008:	48 8b 7d d8          	mov    -0x28(%rbp),%rdi
  10200c:	48 8b 75 e0          	mov    -0x20(%rbp),%rsi
  102010:	48 89 85 70 ff ff ff 	mov    %rax,-0x90(%rbp)
  102017:	e8 f4 fe ff ff       	callq  101f10 <_ZN53_$LT$$u5b$T$u5d$$u20$as$u20$core..slice..SliceExt$GT$3len17he17f44d354df8341E>
  10201c:	48 89 85 68 ff ff ff 	mov    %rax,-0x98(%rbp)
  102023:	eb 24                	jmp    102049 <_ZN53_$LT$$u5b$T$u5d$$u20$as$u20$core..slice..SliceExt$GT$4iter17h7b0dda1c92ba97edE+0xe9>
  102025:	48 8b 7d c0          	mov    -0x40(%rbp),%rdi
  102029:	48 8b 45 d8          	mov    -0x28(%rbp),%rax
  10202d:	48 8b 75 e0          	mov    -0x20(%rbp),%rsi
  102031:	48 89 bd 60 ff ff ff 	mov    %rdi,-0xa0(%rbp)
  102038:	48 89 c7             	mov    %rax,%rdi
  10203b:	e8 d0 fe ff ff       	callq  101f10 <_ZN53_$LT$$u5b$T$u5d$$u20$as$u20$core..slice..SliceExt$GT$3len17he17f44d354df8341E>
  102040:	48 89 85 58 ff ff ff 	mov    %rax,-0xa8(%rbp)
  102047:	eb 2d                	jmp    102076 <_ZN53_$LT$$u5b$T$u5d$$u20$as$u20$core..slice..SliceExt$GT$4iter17h7b0dda1c92ba97edE+0x116>
  102049:	48 8b 85 70 ff ff ff 	mov    -0x90(%rbp),%rax
  102050:	48 8b 8d 68 ff ff ff 	mov    -0x98(%rbp),%rcx
  102057:	48 01 c8             	add    %rcx,%rax
  10205a:	48 89 45 a8          	mov    %rax,-0x58(%rbp)
  10205e:	48 8b 45 a8          	mov    -0x58(%rbp),%rax
  102062:	48 89 85 50 ff ff ff 	mov    %rax,-0xb0(%rbp)
  102069:	48 8b 85 50 ff ff ff 	mov    -0xb0(%rbp),%rax
  102070:	48 89 45 b8          	mov    %rax,-0x48(%rbp)
  102074:	eb 17                	jmp    10208d <_ZN53_$LT$$u5b$T$u5d$$u20$as$u20$core..slice..SliceExt$GT$4iter17h7b0dda1c92ba97edE+0x12d>
  102076:	48 8b bd 60 ff ff ff 	mov    -0xa0(%rbp),%rdi
  10207d:	48 8b b5 58 ff ff ff 	mov    -0xa8(%rbp),%rsi
  102084:	e8 c7 f0 ff ff       	callq  101150 <_ZN4core3ptr33_$LT$impl$u20$$BP$const$u20$T$GT$6offset17h0d62b7cbced53ff4E>
  102089:	48 89 45 b8          	mov    %rax,-0x48(%rbp)
  10208d:	48 8b 45 98          	mov    -0x68(%rbp),%rax
  102091:	48 8b 4d 80          	mov    -0x80(%rbp),%rcx
  102095:	48 89 08             	mov    %rcx,(%rax)
  102098:	48 8b 55 b8          	mov    -0x48(%rbp),%rdx
  10209c:	48 89 50 08          	mov    %rdx,0x8(%rax)
  1020a0:	48 8b 45 a0          	mov    -0x60(%rbp),%rax
  1020a4:	48 81 c4 b0 00 00 00 	add    $0xb0,%rsp
  1020ab:	5d                   	pop    %rbp
  1020ac:	c3                   	retq   
  1020ad:	0f 1f 00             	nopl   (%rax)

00000000001020b0 <_ZN53_$LT$$u5b$T$u5d$$u20$as$u20$core..slice..SliceExt$GT$6as_ptr17h7ebcf49c904fbf2fE>:
  1020b0:	55                   	push   %rbp
  1020b1:	48 89 e5             	mov    %rsp,%rbp
  1020b4:	48 83 ec 30          	sub    $0x30,%rsp
  1020b8:	48 89 7d e8          	mov    %rdi,-0x18(%rbp)
  1020bc:	48 89 75 f0          	mov    %rsi,-0x10(%rbp)
  1020c0:	48 8b 45 e8          	mov    -0x18(%rbp),%rax
  1020c4:	48 8b 4d f0          	mov    -0x10(%rbp),%rcx
  1020c8:	48 89 45 d8          	mov    %rax,-0x28(%rbp)
  1020cc:	48 89 4d e0          	mov    %rcx,-0x20(%rbp)
  1020d0:	48 8b 45 d8          	mov    -0x28(%rbp),%rax
  1020d4:	48 89 45 d0          	mov    %rax,-0x30(%rbp)
  1020d8:	48 8b 45 d0          	mov    -0x30(%rbp),%rax
  1020dc:	48 83 c4 30          	add    $0x30,%rsp
  1020e0:	5d                   	pop    %rbp
  1020e1:	c3                   	retq   
  1020e2:	66 2e 0f 1f 84 00 00 	nopw   %cs:0x0(%rax,%rax,1)
  1020e9:	00 00 00 
  1020ec:	0f 1f 40 00          	nopl   0x0(%rax)

00000000001020f0 <_ZN53_$LT$$u5b$T$u5d$$u20$as$u20$core..slice..SliceExt$GT$6as_ptr17hd271017da618ecc1E>:
  1020f0:	55                   	push   %rbp
  1020f1:	48 89 e5             	mov    %rsp,%rbp
  1020f4:	48 83 ec 30          	sub    $0x30,%rsp
  1020f8:	48 89 7d e8          	mov    %rdi,-0x18(%rbp)
  1020fc:	48 89 75 f0          	mov    %rsi,-0x10(%rbp)
  102100:	48 8b 45 e8          	mov    -0x18(%rbp),%rax
  102104:	48 8b 4d f0          	mov    -0x10(%rbp),%rcx
  102108:	48 89 45 d8          	mov    %rax,-0x28(%rbp)
  10210c:	48 89 4d e0          	mov    %rcx,-0x20(%rbp)
  102110:	48 8b 45 d8          	mov    -0x28(%rbp),%rax
  102114:	48 89 45 d0          	mov    %rax,-0x30(%rbp)
  102118:	48 8b 45 d0          	mov    -0x30(%rbp),%rax
  10211c:	48 83 c4 30          	add    $0x30,%rsp
  102120:	5d                   	pop    %rbp
  102121:	c3                   	retq   
  102122:	66 2e 0f 1f 84 00 00 	nopw   %cs:0x0(%rax,%rax,1)
  102129:	00 00 00 
  10212c:	0f 1f 40 00          	nopl   0x0(%rax)

0000000000102130 <_ZN53_$LT$core..option..Option$LT$$RF$$u27$a$u20$T$GT$$GT$6cloned17h4aa7c59a29afc9d7E>:
  102130:	55                   	push   %rbp
  102131:	48 89 e5             	mov    %rsp,%rbp
  102134:	48 83 ec 40          	sub    $0x40,%rsp
  102138:	48 89 7d f0          	mov    %rdi,-0x10(%rbp)
  10213c:	48 8b 45 f0          	mov    -0x10(%rbp),%rax
  102140:	48 89 45 e8          	mov    %rax,-0x18(%rbp)
  102144:	48 8b 45 e8          	mov    -0x18(%rbp),%rax
  102148:	48 89 45 e0          	mov    %rax,-0x20(%rbp)
  10214c:	48 8b 7d e0          	mov    -0x20(%rbp),%rdi
  102150:	e8 fb e3 ff ff       	callq  100550 <_ZN38_$LT$core..option..Option$LT$T$GT$$GT$3map17h7db3fffd5b1d18a3E>
  102155:	66 89 45 ce          	mov    %ax,-0x32(%rbp)
  102159:	66 8b 45 ce          	mov    -0x32(%rbp),%ax
  10215d:	66 89 45 d0          	mov    %ax,-0x30(%rbp)
  102161:	66 8b 45 d0          	mov    -0x30(%rbp),%ax
  102165:	48 83 c4 40          	add    $0x40,%rsp
  102169:	5d                   	pop    %rbp
  10216a:	c3                   	retq   
  10216b:	0f 1f 44 00 00       	nopl   0x0(%rax,%rax,1)

0000000000102170 <_ZN54_$LT$I$u20$as$u20$core..iter..traits..IntoIterator$GT$9into_iter17h14326a507c39824aE>:
  102170:	55                   	push   %rbp
  102171:	48 89 e5             	mov    %rsp,%rbp
  102174:	48 83 ec 58          	sub    $0x58,%rsp
  102178:	48 89 f8             	mov    %rdi,%rax
  10217b:	48 8b 0e             	mov    (%rsi),%rcx
  10217e:	48 89 4d e8          	mov    %rcx,-0x18(%rbp)
  102182:	48 8b 4e 08          	mov    0x8(%rsi),%rcx
  102186:	48 89 4d f0          	mov    %rcx,-0x10(%rbp)
  10218a:	48 8b 4e 10          	mov    0x10(%rsi),%rcx
  10218e:	48 89 4d f8          	mov    %rcx,-0x8(%rbp)
  102192:	48 89 45 b0          	mov    %rax,-0x50(%rbp)
  102196:	48 89 7d a8          	mov    %rdi,-0x58(%rbp)
  10219a:	48 8b 45 e8          	mov    -0x18(%rbp),%rax
  10219e:	48 89 45 d0          	mov    %rax,-0x30(%rbp)
  1021a2:	48 8b 45 f0          	mov    -0x10(%rbp),%rax
  1021a6:	48 89 45 d8          	mov    %rax,-0x28(%rbp)
  1021aa:	48 8b 45 f8          	mov    -0x8(%rbp),%rax
  1021ae:	48 89 45 e0          	mov    %rax,-0x20(%rbp)
  1021b2:	48 8b 45 d0          	mov    -0x30(%rbp),%rax
  1021b6:	48 89 45 b8          	mov    %rax,-0x48(%rbp)
  1021ba:	48 8b 45 d8          	mov    -0x28(%rbp),%rax
  1021be:	48 89 45 c0          	mov    %rax,-0x40(%rbp)
  1021c2:	48 8b 45 e0          	mov    -0x20(%rbp),%rax
  1021c6:	48 89 45 c8          	mov    %rax,-0x38(%rbp)
  1021ca:	48 8b 45 b8          	mov    -0x48(%rbp),%rax
  1021ce:	48 8b 4d a8          	mov    -0x58(%rbp),%rcx
  1021d2:	48 89 01             	mov    %rax,(%rcx)
  1021d5:	48 8b 45 c0          	mov    -0x40(%rbp),%rax
  1021d9:	48 89 41 08          	mov    %rax,0x8(%rcx)
  1021dd:	48 8b 45 c8          	mov    -0x38(%rbp),%rax
  1021e1:	48 89 41 10          	mov    %rax,0x10(%rcx)
  1021e5:	eb 00                	jmp    1021e7 <_ZN54_$LT$I$u20$as$u20$core..iter..traits..IntoIterator$GT$9into_iter17h14326a507c39824aE+0x77>
  1021e7:	48 8b 45 b0          	mov    -0x50(%rbp),%rax
  1021eb:	48 83 c4 58          	add    $0x58,%rsp
  1021ef:	5d                   	pop    %rbp
  1021f0:	c3                   	retq   
  1021f1:	66 2e 0f 1f 84 00 00 	nopw   %cs:0x0(%rax,%rax,1)
  1021f8:	00 00 00 
  1021fb:	0f 1f 44 00 00       	nopl   0x0(%rax,%rax,1)

0000000000102200 <_ZN54_$LT$I$u20$as$u20$core..iter..traits..IntoIterator$GT$9into_iter17h53db3a2c15f917efE>:
  102200:	55                   	push   %rbp
  102201:	48 89 e5             	mov    %rsp,%rbp
  102204:	48 83 ec 58          	sub    $0x58,%rsp
  102208:	48 89 f8             	mov    %rdi,%rax
  10220b:	48 8b 0e             	mov    (%rsi),%rcx
  10220e:	48 89 4d e8          	mov    %rcx,-0x18(%rbp)
  102212:	48 8b 4e 08          	mov    0x8(%rsi),%rcx
  102216:	48 89 4d f0          	mov    %rcx,-0x10(%rbp)
  10221a:	48 8b 4e 10          	mov    0x10(%rsi),%rcx
  10221e:	48 89 4d f8          	mov    %rcx,-0x8(%rbp)
  102222:	48 89 45 b0          	mov    %rax,-0x50(%rbp)
  102226:	48 89 7d a8          	mov    %rdi,-0x58(%rbp)
  10222a:	48 8b 45 e8          	mov    -0x18(%rbp),%rax
  10222e:	48 89 45 d0          	mov    %rax,-0x30(%rbp)
  102232:	48 8b 45 f0          	mov    -0x10(%rbp),%rax
  102236:	48 89 45 d8          	mov    %rax,-0x28(%rbp)
  10223a:	48 8b 45 f8          	mov    -0x8(%rbp),%rax
  10223e:	48 89 45 e0          	mov    %rax,-0x20(%rbp)
  102242:	48 8b 45 d0          	mov    -0x30(%rbp),%rax
  102246:	48 89 45 b8          	mov    %rax,-0x48(%rbp)
  10224a:	48 8b 45 d8          	mov    -0x28(%rbp),%rax
  10224e:	48 89 45 c0          	mov    %rax,-0x40(%rbp)
  102252:	48 8b 45 e0          	mov    -0x20(%rbp),%rax
  102256:	48 89 45 c8          	mov    %rax,-0x38(%rbp)
  10225a:	48 8b 45 b8          	mov    -0x48(%rbp),%rax
  10225e:	48 8b 4d a8          	mov    -0x58(%rbp),%rcx
  102262:	48 89 01             	mov    %rax,(%rcx)
  102265:	48 8b 45 c0          	mov    -0x40(%rbp),%rax
  102269:	48 89 41 08          	mov    %rax,0x8(%rcx)
  10226d:	48 8b 45 c8          	mov    -0x38(%rbp),%rax
  102271:	48 89 41 10          	mov    %rax,0x10(%rcx)
  102275:	eb 00                	jmp    102277 <_ZN54_$LT$I$u20$as$u20$core..iter..traits..IntoIterator$GT$9into_iter17h53db3a2c15f917efE+0x77>
  102277:	48 8b 45 b0          	mov    -0x50(%rbp),%rax
  10227b:	48 83 c4 58          	add    $0x58,%rsp
  10227f:	5d                   	pop    %rbp
  102280:	c3                   	retq   
  102281:	66 2e 0f 1f 84 00 00 	nopw   %cs:0x0(%rax,%rax,1)
  102288:	00 00 00 
  10228b:	0f 1f 44 00 00       	nopl   0x0(%rax,%rax,1)

0000000000102290 <_ZN54_$LT$I$u20$as$u20$core..iter..traits..IntoIterator$GT$9into_iter17h593a8b7b125c6a4eE>:
  102290:	55                   	push   %rbp
  102291:	48 89 e5             	mov    %rsp,%rbp
  102294:	48 83 ec 30          	sub    $0x30,%rsp
  102298:	48 89 f8             	mov    %rdi,%rax
  10229b:	48 8b 0e             	mov    (%rsi),%rcx
  10229e:	48 89 4d f0          	mov    %rcx,-0x10(%rbp)
  1022a2:	48 8b 4e 08          	mov    0x8(%rsi),%rcx
  1022a6:	48 89 4d f8          	mov    %rcx,-0x8(%rbp)
  1022aa:	48 89 45 d8          	mov    %rax,-0x28(%rbp)
  1022ae:	48 89 7d d0          	mov    %rdi,-0x30(%rbp)
  1022b2:	48 8b 45 f0          	mov    -0x10(%rbp),%rax
  1022b6:	48 8b 4d f8          	mov    -0x8(%rbp),%rcx
  1022ba:	48 89 45 e0          	mov    %rax,-0x20(%rbp)
  1022be:	48 89 4d e8          	mov    %rcx,-0x18(%rbp)
  1022c2:	48 8b 45 e0          	mov    -0x20(%rbp),%rax
  1022c6:	48 8b 4d e8          	mov    -0x18(%rbp),%rcx
  1022ca:	48 8b 55 d0          	mov    -0x30(%rbp),%rdx
  1022ce:	48 89 02             	mov    %rax,(%rdx)
  1022d1:	48 89 4a 08          	mov    %rcx,0x8(%rdx)
  1022d5:	eb 00                	jmp    1022d7 <_ZN54_$LT$I$u20$as$u20$core..iter..traits..IntoIterator$GT$9into_iter17h593a8b7b125c6a4eE+0x47>
  1022d7:	48 8b 45 d8          	mov    -0x28(%rbp),%rax
  1022db:	48 83 c4 30          	add    $0x30,%rsp
  1022df:	5d                   	pop    %rbp
  1022e0:	c3                   	retq   
  1022e1:	66 2e 0f 1f 84 00 00 	nopw   %cs:0x0(%rax,%rax,1)
  1022e8:	00 00 00 
  1022eb:	0f 1f 44 00 00       	nopl   0x0(%rax,%rax,1)

00000000001022f0 <_ZN54_$LT$I$u20$as$u20$core..iter..traits..IntoIterator$GT$9into_iter17h75a0b3358fb33d61E>:
  1022f0:	55                   	push   %rbp
  1022f1:	48 89 e5             	mov    %rsp,%rbp
  1022f4:	48 83 ec 40          	sub    $0x40,%rsp
  1022f8:	48 89 f8             	mov    %rdi,%rax
  1022fb:	48 8b 0e             	mov    (%rsi),%rcx
  1022fe:	48 89 4d f0          	mov    %rcx,-0x10(%rbp)
  102302:	48 8b 4e 08          	mov    0x8(%rsi),%rcx
  102306:	48 89 4d f8          	mov    %rcx,-0x8(%rbp)
  10230a:	48 89 45 c8          	mov    %rax,-0x38(%rbp)
  10230e:	48 89 7d c0          	mov    %rdi,-0x40(%rbp)
  102312:	48 8b 45 f0          	mov    -0x10(%rbp),%rax
  102316:	48 89 45 e0          	mov    %rax,-0x20(%rbp)
  10231a:	48 8b 45 f8          	mov    -0x8(%rbp),%rax
  10231e:	48 89 45 e8          	mov    %rax,-0x18(%rbp)
  102322:	48 8b 45 e0          	mov    -0x20(%rbp),%rax
  102326:	48 89 45 d0          	mov    %rax,-0x30(%rbp)
  10232a:	48 8b 45 e8          	mov    -0x18(%rbp),%rax
  10232e:	48 89 45 d8          	mov    %rax,-0x28(%rbp)
  102332:	48 8b 45 d0          	mov    -0x30(%rbp),%rax
  102336:	48 8b 4d c0          	mov    -0x40(%rbp),%rcx
  10233a:	48 89 01             	mov    %rax,(%rcx)
  10233d:	48 8b 45 d8          	mov    -0x28(%rbp),%rax
  102341:	48 89 41 08          	mov    %rax,0x8(%rcx)
  102345:	eb 00                	jmp    102347 <_ZN54_$LT$I$u20$as$u20$core..iter..traits..IntoIterator$GT$9into_iter17h75a0b3358fb33d61E+0x57>
  102347:	48 8b 45 c8          	mov    -0x38(%rbp),%rax
  10234b:	48 83 c4 40          	add    $0x40,%rsp
  10234f:	5d                   	pop    %rbp
  102350:	c3                   	retq   
  102351:	66 2e 0f 1f 84 00 00 	nopw   %cs:0x0(%rax,%rax,1)
  102358:	00 00 00 
  10235b:	0f 1f 44 00 00       	nopl   0x0(%rax,%rax,1)

0000000000102360 <_ZN54_$LT$I$u20$as$u20$core..iter..traits..IntoIterator$GT$9into_iter17h9696a253119527c4E>:
  102360:	55                   	push   %rbp
  102361:	48 89 e5             	mov    %rsp,%rbp
  102364:	48 83 ec 40          	sub    $0x40,%rsp
  102368:	48 89 f8             	mov    %rdi,%rax
  10236b:	48 8b 0e             	mov    (%rsi),%rcx
  10236e:	48 89 4d f0          	mov    %rcx,-0x10(%rbp)
  102372:	48 8b 4e 08          	mov    0x8(%rsi),%rcx
  102376:	48 89 4d f8          	mov    %rcx,-0x8(%rbp)
  10237a:	48 89 45 c8          	mov    %rax,-0x38(%rbp)
  10237e:	48 89 7d c0          	mov    %rdi,-0x40(%rbp)
  102382:	48 8b 45 f0          	mov    -0x10(%rbp),%rax
  102386:	48 89 45 e0          	mov    %rax,-0x20(%rbp)
  10238a:	48 8b 45 f8          	mov    -0x8(%rbp),%rax
  10238e:	48 89 45 e8          	mov    %rax,-0x18(%rbp)
  102392:	48 8b 45 e0          	mov    -0x20(%rbp),%rax
  102396:	48 89 45 d0          	mov    %rax,-0x30(%rbp)
  10239a:	48 8b 45 e8          	mov    -0x18(%rbp),%rax
  10239e:	48 89 45 d8          	mov    %rax,-0x28(%rbp)
  1023a2:	48 8b 45 d0          	mov    -0x30(%rbp),%rax
  1023a6:	48 8b 4d c0          	mov    -0x40(%rbp),%rcx
  1023aa:	48 89 01             	mov    %rax,(%rcx)
  1023ad:	48 8b 45 d8          	mov    -0x28(%rbp),%rax
  1023b1:	48 89 41 08          	mov    %rax,0x8(%rcx)
  1023b5:	eb 00                	jmp    1023b7 <_ZN54_$LT$I$u20$as$u20$core..iter..traits..IntoIterator$GT$9into_iter17h9696a253119527c4E+0x57>
  1023b7:	48 8b 45 c8          	mov    -0x38(%rbp),%rax
  1023bb:	48 83 c4 40          	add    $0x40,%rsp
  1023bf:	5d                   	pop    %rbp
  1023c0:	c3                   	retq   
  1023c1:	66 2e 0f 1f 84 00 00 	nopw   %cs:0x0(%rax,%rax,1)
  1023c8:	00 00 00 
  1023cb:	0f 1f 44 00 00       	nopl   0x0(%rax,%rax,1)

00000000001023d0 <_ZN55_$LT$$RF$$u27$a$u20$T$u20$as$u20$core..fmt..Display$GT$3fmt17hd58574be7c4db377E>:
  1023d0:	55                   	push   %rbp
  1023d1:	48 89 e5             	mov    %rsp,%rbp
  1023d4:	48 83 ec 40          	sub    $0x40,%rsp
  1023d8:	48 89 7d f0          	mov    %rdi,-0x10(%rbp)
  1023dc:	48 89 75 e8          	mov    %rsi,-0x18(%rbp)
  1023e0:	48 8b 45 f0          	mov    -0x10(%rbp),%rax
  1023e4:	48 89 45 e0          	mov    %rax,-0x20(%rbp)
  1023e8:	48 8b 45 e8          	mov    -0x18(%rbp),%rax
  1023ec:	48 89 45 d8          	mov    %rax,-0x28(%rbp)
  1023f0:	48 8b 45 e0          	mov    -0x20(%rbp),%rax
  1023f4:	48 8b 38             	mov    (%rax),%rdi
  1023f7:	48 8b 70 08          	mov    0x8(%rax),%rsi
  1023fb:	48 8b 55 d8          	mov    -0x28(%rbp),%rdx
  1023ff:	e8 8c c3 00 00       	callq  10e790 <_ZN42_$LT$str$u20$as$u20$core..fmt..Display$GT$3fmt17h5941eedd92b10712E>
  102404:	88 45 cf             	mov    %al,-0x31(%rbp)
  102407:	8a 45 cf             	mov    -0x31(%rbp),%al
  10240a:	88 45 d0             	mov    %al,-0x30(%rbp)
  10240d:	8a 45 d0             	mov    -0x30(%rbp),%al
  102410:	48 83 c4 40          	add    $0x40,%rsp
  102414:	5d                   	pop    %rbp
  102415:	c3                   	retq   
  102416:	66 2e 0f 1f 84 00 00 	nopw   %cs:0x0(%rax,%rax,1)
  10241d:	00 00 00 

0000000000102420 <_ZN63_$LT$core..ptr..Unique$LT$T$GT$$u20$as$u20$core..ops..Deref$GT$5deref17h6843bb1cf0c52deeE>:
  102420:	55                   	push   %rbp
  102421:	48 89 e5             	mov    %rsp,%rbp
  102424:	48 83 ec 30          	sub    $0x30,%rsp
  102428:	48 89 7d f0          	mov    %rdi,-0x10(%rbp)
  10242c:	48 8b 45 f0          	mov    -0x10(%rbp),%rax
  102430:	48 89 45 e8          	mov    %rax,-0x18(%rbp)
  102434:	48 8b 7d e8          	mov    -0x18(%rbp),%rdi
  102438:	e8 23 00 00 00       	callq  102460 <_ZN68_$LT$core..nonzero..NonZero$LT$T$GT$$u20$as$u20$core..ops..Deref$GT$5deref17he596cd930aa2aa83E>
  10243d:	48 89 45 d8          	mov    %rax,-0x28(%rbp)
  102441:	48 8b 45 d8          	mov    -0x28(%rbp),%rax
  102445:	48 89 45 e0          	mov    %rax,-0x20(%rbp)
  102449:	48 8b 45 e0          	mov    -0x20(%rbp),%rax
  10244d:	48 89 45 d0          	mov    %rax,-0x30(%rbp)
  102451:	48 8b 45 d0          	mov    -0x30(%rbp),%rax
  102455:	48 83 c4 30          	add    $0x30,%rsp
  102459:	5d                   	pop    %rbp
  10245a:	c3                   	retq   
  10245b:	0f 1f 44 00 00       	nopl   0x0(%rax,%rax,1)

0000000000102460 <_ZN68_$LT$core..nonzero..NonZero$LT$T$GT$$u20$as$u20$core..ops..Deref$GT$5deref17he596cd930aa2aa83E>:
  102460:	55                   	push   %rbp
  102461:	48 89 e5             	mov    %rsp,%rbp
  102464:	48 83 ec 28          	sub    $0x28,%rsp
  102468:	48 89 7d f0          	mov    %rdi,-0x10(%rbp)
  10246c:	48 8b 45 f0          	mov    -0x10(%rbp),%rax
  102470:	48 89 45 e8          	mov    %rax,-0x18(%rbp)
  102474:	48 8b 45 e8          	mov    -0x18(%rbp),%rax
  102478:	48 89 45 e0          	mov    %rax,-0x20(%rbp)
  10247c:	48 8b 45 e0          	mov    -0x20(%rbp),%rax
  102480:	48 89 45 d8          	mov    %rax,-0x28(%rbp)
  102484:	48 8b 45 d8          	mov    -0x28(%rbp),%rax
  102488:	48 83 c4 28          	add    $0x28,%rsp
  10248c:	5d                   	pop    %rbp
  10248d:	c3                   	retq   
  10248e:	66 90                	xchg   %ax,%ax

0000000000102490 <_ZN78_$LT$core..iter..Cloned$LT$I$GT$$u20$as$u20$core..iter..iterator..Iterator$GT$4next17h46fea06d7563c006E>:
  102490:	55                   	push   %rbp
  102491:	48 89 e5             	mov    %rsp,%rbp
  102494:	48 83 ec 30          	sub    $0x30,%rsp
  102498:	48 89 7d f0          	mov    %rdi,-0x10(%rbp)
  10249c:	48 8b 45 f0          	mov    -0x10(%rbp),%rax
  1024a0:	48 89 45 e8          	mov    %rax,-0x18(%rbp)
  1024a4:	48 8b 7d e8          	mov    -0x18(%rbp),%rdi
  1024a8:	e8 83 01 00 00       	callq  102630 <_ZN91_$LT$core..slice..Iter$LT$$u27$a$C$$u20$T$GT$$u20$as$u20$core..iter..iterator..Iterator$GT$4next17hb807db09338a51f9E>
  1024ad:	48 89 45 e0          	mov    %rax,-0x20(%rbp)
  1024b1:	48 8b 7d e0          	mov    -0x20(%rbp),%rdi
  1024b5:	e8 76 fc ff ff       	callq  102130 <_ZN53_$LT$core..option..Option$LT$$RF$$u27$a$u20$T$GT$$GT$6cloned17h4aa7c59a29afc9d7E>
  1024ba:	66 89 45 d6          	mov    %ax,-0x2a(%rbp)
  1024be:	66 8b 45 d6          	mov    -0x2a(%rbp),%ax
  1024c2:	66 89 45 d8          	mov    %ax,-0x28(%rbp)
  1024c6:	66 8b 45 d8          	mov    -0x28(%rbp),%ax
  1024ca:	48 83 c4 30          	add    $0x30,%rsp
  1024ce:	5d                   	pop    %rbp
  1024cf:	c3                   	retq   

00000000001024d0 <_ZN81_$LT$core..iter..Enumerate$LT$I$GT$$u20$as$u20$core..iter..iterator..Iterator$GT$4next17h794357da714bce54E>:
  1024d0:	55                   	push   %rbp
  1024d1:	48 89 e5             	mov    %rsp,%rbp
  1024d4:	48 83 ec 40          	sub    $0x40,%rsp
  1024d8:	48 89 f8             	mov    %rdi,%rax
  1024db:	48 89 75 f8          	mov    %rsi,-0x8(%rbp)
  1024df:	48 89 45 d0          	mov    %rax,-0x30(%rbp)
  1024e3:	48 89 7d c8          	mov    %rdi,-0x38(%rbp)
  1024e7:	48 8b 45 f8          	mov    -0x8(%rbp),%rax
  1024eb:	48 89 45 f0          	mov    %rax,-0x10(%rbp)
  1024ef:	48 8b 7d f0          	mov    -0x10(%rbp),%rdi
  1024f3:	e8 38 01 00 00       	callq  102630 <_ZN91_$LT$core..slice..Iter$LT$$u27$a$C$$u20$T$GT$$u20$as$u20$core..iter..iterator..Iterator$GT$4next17hb807db09338a51f9E>
  1024f8:	48 89 45 e8          	mov    %rax,-0x18(%rbp)
  1024fc:	48 8d 45 f0          	lea    -0x10(%rbp),%rax
  102500:	48 89 45 e0          	mov    %rax,-0x20(%rbp)
  102504:	48 8b 75 e8          	mov    -0x18(%rbp),%rsi
  102508:	48 89 45 d8          	mov    %rax,-0x28(%rbp)
  10250c:	48 8b 55 d8          	mov    -0x28(%rbp),%rdx
  102510:	48 8b 7d c8          	mov    -0x38(%rbp),%rdi
  102514:	e8 17 df ff ff       	callq  100430 <_ZN38_$LT$core..option..Option$LT$T$GT$$GT$3map17h3f4d6bfb797995ebE>
  102519:	48 8b 45 d0          	mov    -0x30(%rbp),%rax
  10251d:	48 83 c4 40          	add    $0x40,%rsp
  102521:	5d                   	pop    %rbp
  102522:	c3                   	retq   
  102523:	66 2e 0f 1f 84 00 00 	nopw   %cs:0x0(%rax,%rax,1)
  10252a:	00 00 00 
  10252d:	0f 1f 00             	nopl   (%rax)

0000000000102530 <_ZN81_$LT$core..str..Bytes$LT$$u27$a$GT$$u20$as$u20$core..iter..iterator..Iterator$GT$4next17h64d892166b3681e0E>:
  102530:	55                   	push   %rbp
  102531:	48 89 e5             	mov    %rsp,%rbp
  102534:	48 83 ec 30          	sub    $0x30,%rsp
  102538:	48 89 7d f0          	mov    %rdi,-0x10(%rbp)
  10253c:	48 8b 45 f0          	mov    -0x10(%rbp),%rax
  102540:	48 89 45 e8          	mov    %rax,-0x18(%rbp)
  102544:	48 8b 7d e8          	mov    -0x18(%rbp),%rdi
  102548:	e8 43 ff ff ff       	callq  102490 <_ZN78_$LT$core..iter..Cloned$LT$I$GT$$u20$as$u20$core..iter..iterator..Iterator$GT$4next17h46fea06d7563c006E>
  10254d:	66 89 45 de          	mov    %ax,-0x22(%rbp)
  102551:	66 8b 45 de          	mov    -0x22(%rbp),%ax
  102555:	66 89 45 e0          	mov    %ax,-0x20(%rbp)
  102559:	66 8b 45 e0          	mov    -0x20(%rbp),%ax
  10255d:	48 83 c4 30          	add    $0x30,%rsp
  102561:	5d                   	pop    %rbp
  102562:	c3                   	retq   
  102563:	66 2e 0f 1f 84 00 00 	nopw   %cs:0x0(%rax,%rax,1)
  10256a:	00 00 00 
  10256d:	0f 1f 00             	nopl   (%rax)

0000000000102570 <_ZN82_$LT$spin..mutex..MutexGuard$LT$$u27$a$C$$u20$T$GT$$u20$as$u20$core..ops..Drop$GT$4drop17hb679972316a29187E>:
  102570:	55                   	push   %rbp
  102571:	48 89 e5             	mov    %rsp,%rbp
  102574:	48 83 ec 20          	sub    $0x20,%rsp
  102578:	48 89 7d f8          	mov    %rdi,-0x8(%rbp)
  10257c:	31 f6                	xor    %esi,%esi
  10257e:	48 8b 45 f8          	mov    -0x8(%rbp),%rax
  102582:	48 89 45 f0          	mov    %rax,-0x10(%rbp)
  102586:	48 8b 45 f0          	mov    -0x10(%rbp),%rax
  10258a:	48 8b 38             	mov    (%rax),%rdi
  10258d:	c6 45 ef 04          	movb   $0x4,-0x11(%rbp)
  102591:	0f b6 55 ef          	movzbl -0x11(%rbp),%edx
  102595:	e8 16 f0 ff ff       	callq  1015b0 <_ZN4core4sync6atomic10AtomicBool5store17h62776a058076a6cbE>
  10259a:	48 83 c4 20          	add    $0x20,%rsp
  10259e:	5d                   	pop    %rbp
  10259f:	c3                   	retq   

00000000001025a0 <_ZN82_$LT$spin..mutex..MutexGuard$LT$$u27$a$C$$u20$T$GT$$u20$as$u20$core..ops..Drop$GT$4drop17hf361d94432bc7072E>:
  1025a0:	55                   	push   %rbp
  1025a1:	48 89 e5             	mov    %rsp,%rbp
  1025a4:	48 83 ec 20          	sub    $0x20,%rsp
  1025a8:	48 89 7d f8          	mov    %rdi,-0x8(%rbp)
  1025ac:	31 f6                	xor    %esi,%esi
  1025ae:	48 8b 45 f8          	mov    -0x8(%rbp),%rax
  1025b2:	48 89 45 f0          	mov    %rax,-0x10(%rbp)
  1025b6:	48 8b 45 f0          	mov    -0x10(%rbp),%rax
  1025ba:	48 8b 38             	mov    (%rax),%rdi
  1025bd:	c6 45 ef 04          	movb   $0x4,-0x11(%rbp)
  1025c1:	0f b6 55 ef          	movzbl -0x11(%rbp),%edx
  1025c5:	e8 e6 ef ff ff       	callq  1015b0 <_ZN4core4sync6atomic10AtomicBool5store17h62776a058076a6cbE>
  1025ca:	48 83 c4 20          	add    $0x20,%rsp
  1025ce:	5d                   	pop    %rbp
  1025cf:	c3                   	retq   

00000000001025d0 <_ZN86_$LT$spin..mutex..MutexGuard$LT$$u27$a$C$$u20$T$GT$$u20$as$u20$core..ops..DerefMut$GT$9deref_mut17h9014bcbc5dcd09afE>:
  1025d0:	55                   	push   %rbp
  1025d1:	48 89 e5             	mov    %rsp,%rbp
  1025d4:	48 83 ec 20          	sub    $0x20,%rsp
  1025d8:	48 89 7d f0          	mov    %rdi,-0x10(%rbp)
  1025dc:	48 8b 45 f0          	mov    -0x10(%rbp),%rax
  1025e0:	48 89 45 e8          	mov    %rax,-0x18(%rbp)
  1025e4:	48 8b 45 e8          	mov    -0x18(%rbp),%rax
  1025e8:	48 8b 40 08          	mov    0x8(%rax),%rax
  1025ec:	48 89 45 e0          	mov    %rax,-0x20(%rbp)
  1025f0:	48 8b 45 e0          	mov    -0x20(%rbp),%rax
  1025f4:	48 83 c4 20          	add    $0x20,%rsp
  1025f8:	5d                   	pop    %rbp
  1025f9:	c3                   	retq   
  1025fa:	66 0f 1f 44 00 00    	nopw   0x0(%rax,%rax,1)

0000000000102600 <_ZN86_$LT$spin..mutex..MutexGuard$LT$$u27$a$C$$u20$T$GT$$u20$as$u20$core..ops..DerefMut$GT$9deref_mut17hf8b70cff835405b4E>:
  102600:	55                   	push   %rbp
  102601:	48 89 e5             	mov    %rsp,%rbp
  102604:	48 83 ec 20          	sub    $0x20,%rsp
  102608:	48 89 7d f0          	mov    %rdi,-0x10(%rbp)
  10260c:	48 8b 45 f0          	mov    -0x10(%rbp),%rax
  102610:	48 89 45 e8          	mov    %rax,-0x18(%rbp)
  102614:	48 8b 45 e8          	mov    -0x18(%rbp),%rax
  102618:	48 8b 40 08          	mov    0x8(%rax),%rax
  10261c:	48 89 45 e0          	mov    %rax,-0x20(%rbp)
  102620:	48 8b 45 e0          	mov    -0x20(%rbp),%rax
  102624:	48 83 c4 20          	add    $0x20,%rsp
  102628:	5d                   	pop    %rbp
  102629:	c3                   	retq   
  10262a:	66 0f 1f 44 00 00    	nopw   0x0(%rax,%rax,1)

0000000000102630 <_ZN91_$LT$core..slice..Iter$LT$$u27$a$C$$u20$T$GT$$u20$as$u20$core..iter..iterator..Iterator$GT$4next17hb807db09338a51f9E>:
  102630:	55                   	push   %rbp
  102631:	48 89 e5             	mov    %rsp,%rbp
  102634:	48 81 ec 90 00 00 00 	sub    $0x90,%rsp
  10263b:	48 89 7d e0          	mov    %rdi,-0x20(%rbp)
  10263f:	48 8b 45 e0          	mov    -0x20(%rbp),%rax
  102643:	48 89 45 d8          	mov    %rax,-0x28(%rbp)
  102647:	e8 94 ea ff ff       	callq  1010e0 <_ZN4core3mem7size_of17hb7c38d54091f1b39E>
  10264c:	48 89 45 90          	mov    %rax,-0x70(%rbp)
  102650:	48 8b 45 90          	mov    -0x70(%rbp),%rax
  102654:	48 83 f8 00          	cmp    $0x0,%rax
  102658:	74 11                	je     10266b <_ZN91_$LT$core..slice..Iter$LT$$u27$a$C$$u20$T$GT$$u20$as$u20$core..iter..iterator..Iterator$GT$4next17hb807db09338a51f9E+0x3b>
  10265a:	48 8b 45 d8          	mov    -0x28(%rbp),%rax
  10265e:	48 8b 38             	mov    (%rax),%rdi
  102661:	e8 7a eb ff ff       	callq  1011e0 <_ZN4core3ptr33_$LT$impl$u20$$BP$const$u20$T$GT$7is_null17h99216fd405cc08a2E>
  102666:	88 45 8f             	mov    %al,-0x71(%rbp)
  102669:	eb 02                	jmp    10266d <_ZN91_$LT$core..slice..Iter$LT$$u27$a$C$$u20$T$GT$$u20$as$u20$core..iter..iterator..Iterator$GT$4next17hb807db09338a51f9E+0x3d>
  10266b:	eb 12                	jmp    10267f <_ZN91_$LT$core..slice..Iter$LT$$u27$a$C$$u20$T$GT$$u20$as$u20$core..iter..iterator..Iterator$GT$4next17hb807db09338a51f9E+0x4f>
  10266d:	48 8b 45 d8          	mov    -0x28(%rbp),%rax
  102671:	48 8b 78 08          	mov    0x8(%rax),%rdi
  102675:	e8 66 eb ff ff       	callq  1011e0 <_ZN4core3ptr33_$LT$impl$u20$$BP$const$u20$T$GT$7is_null17h99216fd405cc08a2E>
  10267a:	88 45 8e             	mov    %al,-0x72(%rbp)
  10267d:	eb 00                	jmp    10267f <_ZN91_$LT$core..slice..Iter$LT$$u27$a$C$$u20$T$GT$$u20$as$u20$core..iter..iterator..Iterator$GT$4next17hb807db09338a51f9E+0x4f>
  10267f:	48 8b 45 d8          	mov    -0x28(%rbp),%rax
  102683:	48 8b 00             	mov    (%rax),%rax
  102686:	48 8b 4d d8          	mov    -0x28(%rbp),%rcx
  10268a:	48 3b 41 08          	cmp    0x8(%rcx),%rax
  10268e:	75 0d                	jne    10269d <_ZN91_$LT$core..slice..Iter$LT$$u27$a$C$$u20$T$GT$$u20$as$u20$core..iter..iterator..Iterator$GT$4next17hb807db09338a51f9E+0x6d>
  102690:	48 c7 45 a0 00 00 00 	movq   $0x0,-0x60(%rbp)
  102697:	00 
  102698:	e9 bc 00 00 00       	jmpq   102759 <_ZN91_$LT$core..slice..Iter$LT$$u27$a$C$$u20$T$GT$$u20$as$u20$core..iter..iterator..Iterator$GT$4next17hb807db09338a51f9E+0x129>
  10269d:	48 8b 45 d8          	mov    -0x28(%rbp),%rax
  1026a1:	48 8b 00             	mov    (%rax),%rax
  1026a4:	48 89 45 d0          	mov    %rax,-0x30(%rbp)
  1026a8:	48 8b 45 d8          	mov    -0x28(%rbp),%rax
  1026ac:	48 8b 00             	mov    (%rax),%rax
  1026af:	48 89 45 c8          	mov    %rax,-0x38(%rbp)
  1026b3:	48 8b 45 c8          	mov    -0x38(%rbp),%rax
  1026b7:	48 89 45 f0          	mov    %rax,-0x10(%rbp)
  1026bb:	e8 20 ea ff ff       	callq  1010e0 <_ZN4core3mem7size_of17hb7c38d54091f1b39E>
  1026c0:	48 89 45 80          	mov    %rax,-0x80(%rbp)
  1026c4:	48 8b 45 80          	mov    -0x80(%rbp),%rax
  1026c8:	48 83 f8 00          	cmp    $0x0,%rax
  1026cc:	75 19                	jne    1026e7 <_ZN91_$LT$core..slice..Iter$LT$$u27$a$C$$u20$T$GT$$u20$as$u20$core..iter..iterator..Iterator$GT$4next17hb807db09338a51f9E+0xb7>
  1026ce:	48 8b 45 c8          	mov    -0x38(%rbp),%rax
  1026d2:	48 83 c0 01          	add    $0x1,%rax
  1026d6:	48 89 45 98          	mov    %rax,-0x68(%rbp)
  1026da:	48 8b 45 98          	mov    -0x68(%rbp),%rax
  1026de:	48 89 85 78 ff ff ff 	mov    %rax,-0x88(%rbp)
  1026e5:	eb 16                	jmp    1026fd <_ZN91_$LT$core..slice..Iter$LT$$u27$a$C$$u20$T$GT$$u20$as$u20$core..iter..iterator..Iterator$GT$4next17hb807db09338a51f9E+0xcd>
  1026e7:	b8 01 00 00 00       	mov    $0x1,%eax
  1026ec:	89 c6                	mov    %eax,%esi
  1026ee:	48 8b 7d c8          	mov    -0x38(%rbp),%rdi
  1026f2:	e8 59 ea ff ff       	callq  101150 <_ZN4core3ptr33_$LT$impl$u20$$BP$const$u20$T$GT$6offset17h0d62b7cbced53ff4E>
  1026f7:	48 89 45 b0          	mov    %rax,-0x50(%rbp)
  1026fb:	eb 0b                	jmp    102708 <_ZN91_$LT$core..slice..Iter$LT$$u27$a$C$$u20$T$GT$$u20$as$u20$core..iter..iterator..Iterator$GT$4next17hb807db09338a51f9E+0xd8>
  1026fd:	48 8b 85 78 ff ff ff 	mov    -0x88(%rbp),%rax
  102704:	48 89 45 b0          	mov    %rax,-0x50(%rbp)
  102708:	48 8b 45 d8          	mov    -0x28(%rbp),%rax
  10270c:	48 8b 4d b0          	mov    -0x50(%rbp),%rcx
  102710:	48 89 08             	mov    %rcx,(%rax)
  102713:	48 8b 45 d0          	mov    -0x30(%rbp),%rax
  102717:	48 89 45 c0          	mov    %rax,-0x40(%rbp)
  10271b:	48 8b 45 c0          	mov    -0x40(%rbp),%rax
  10271f:	48 89 45 f8          	mov    %rax,-0x8(%rbp)
  102723:	e8 b8 e9 ff ff       	callq  1010e0 <_ZN4core3mem7size_of17hb7c38d54091f1b39E>
  102728:	48 89 85 70 ff ff ff 	mov    %rax,-0x90(%rbp)
  10272f:	48 8b 85 70 ff ff ff 	mov    -0x90(%rbp),%rax
  102736:	48 83 f8 00          	cmp    $0x0,%rax
  10273a:	75 0d                	jne    102749 <_ZN91_$LT$core..slice..Iter$LT$$u27$a$C$$u20$T$GT$$u20$as$u20$core..iter..iterator..Iterator$GT$4next17hb807db09338a51f9E+0x119>
  10273c:	b8 01 00 00 00       	mov    $0x1,%eax
  102741:	89 c1                	mov    %eax,%ecx
  102743:	48 89 4d a8          	mov    %rcx,-0x58(%rbp)
  102747:	eb 08                	jmp    102751 <_ZN91_$LT$core..slice..Iter$LT$$u27$a$C$$u20$T$GT$$u20$as$u20$core..iter..iterator..Iterator$GT$4next17hb807db09338a51f9E+0x121>
  102749:	48 8b 45 c0          	mov    -0x40(%rbp),%rax
  10274d:	48 89 45 a8          	mov    %rax,-0x58(%rbp)
  102751:	48 8b 45 a8          	mov    -0x58(%rbp),%rax
  102755:	48 89 45 a0          	mov    %rax,-0x60(%rbp)
  102759:	48 8b 45 a0          	mov    -0x60(%rbp),%rax
  10275d:	48 81 c4 90 00 00 00 	add    $0x90,%rsp
  102764:	5d                   	pop    %rbp
  102765:	c3                   	retq   
  102766:	66 2e 0f 1f 84 00 00 	nopw   %cs:0x0(%rax,%rax,1)
  10276d:	00 00 00 

0000000000102770 <_ZN96_$LT$core..fmt..Write..write_fmt..Adapter$LT$$u27$a$C$$u20$T$GT$$u20$as$u20$core..fmt..Write$GT$10write_char17h480b36ba2814fbb8E>:
  102770:	55                   	push   %rbp
  102771:	48 89 e5             	mov    %rsp,%rbp
  102774:	48 83 ec 30          	sub    $0x30,%rsp
  102778:	48 89 7d f0          	mov    %rdi,-0x10(%rbp)
  10277c:	89 75 ec             	mov    %esi,-0x14(%rbp)
  10277f:	48 8b 45 f0          	mov    -0x10(%rbp),%rax
  102783:	48 89 45 e0          	mov    %rax,-0x20(%rbp)
  102787:	8b 4d ec             	mov    -0x14(%rbp),%ecx
  10278a:	89 4d dc             	mov    %ecx,-0x24(%rbp)
  10278d:	48 8b 45 e0          	mov    -0x20(%rbp),%rax
  102791:	48 8b 38             	mov    (%rax),%rdi
  102794:	8b 75 dc             	mov    -0x24(%rbp),%esi
  102797:	e8 64 e6 ff ff       	callq  100e00 <_ZN4core3fmt5Write10write_char17haa7b585e8a6f2d29E>
  10279c:	88 45 d7             	mov    %al,-0x29(%rbp)
  10279f:	8a 45 d7             	mov    -0x29(%rbp),%al
  1027a2:	88 45 d8             	mov    %al,-0x28(%rbp)
  1027a5:	8a 45 d8             	mov    -0x28(%rbp),%al
  1027a8:	48 83 c4 30          	add    $0x30,%rsp
  1027ac:	5d                   	pop    %rbp
  1027ad:	c3                   	retq   
  1027ae:	66 90                	xchg   %ax,%ax

00000000001027b0 <_ZN96_$LT$core..fmt..Write..write_fmt..Adapter$LT$$u27$a$C$$u20$T$GT$$u20$as$u20$core..fmt..Write$GT$9write_fmt17hc6463cfb20e754d5E>:
  1027b0:	55                   	push   %rbp
  1027b1:	48 89 e5             	mov    %rsp,%rbp
  1027b4:	48 81 ec e0 00 00 00 	sub    $0xe0,%rsp
  1027bb:	b8 30 00 00 00       	mov    $0x30,%eax
  1027c0:	89 c2                	mov    %eax,%edx
  1027c2:	48 8d 4d c0          	lea    -0x40(%rbp),%rcx
  1027c6:	48 89 7d f0          	mov    %rdi,-0x10(%rbp)
  1027ca:	48 89 cf             	mov    %rcx,%rdi
  1027cd:	e8 7e 19 00 00       	callq  104150 <memcpy>
  1027d2:	48 8d 85 58 ff ff ff 	lea    -0xa8(%rbp),%rax
  1027d9:	b9 30 00 00 00       	mov    $0x30,%ecx
  1027de:	89 ca                	mov    %ecx,%edx
  1027e0:	48 8d 75 88          	lea    -0x78(%rbp),%rsi
  1027e4:	48 8d 7d c0          	lea    -0x40(%rbp),%rdi
  1027e8:	4c 8b 45 f0          	mov    -0x10(%rbp),%r8
  1027ec:	4c 89 45 b8          	mov    %r8,-0x48(%rbp)
  1027f0:	49 89 f0             	mov    %rsi,%r8
  1027f3:	48 89 bd 40 ff ff ff 	mov    %rdi,-0xc0(%rbp)
  1027fa:	4c 89 c7             	mov    %r8,%rdi
  1027fd:	4c 8b 85 40 ff ff ff 	mov    -0xc0(%rbp),%r8
  102804:	48 89 b5 38 ff ff ff 	mov    %rsi,-0xc8(%rbp)
  10280b:	4c 89 c6             	mov    %r8,%rsi
  10280e:	48 89 95 30 ff ff ff 	mov    %rdx,-0xd0(%rbp)
  102815:	48 89 85 28 ff ff ff 	mov    %rax,-0xd8(%rbp)
  10281c:	e8 2f 19 00 00       	callq  104150 <memcpy>
  102821:	48 8b 45 b8          	mov    -0x48(%rbp),%rax
  102825:	48 8b 38             	mov    (%rax),%rdi
  102828:	48 8b 85 38 ff ff ff 	mov    -0xc8(%rbp),%rax
  10282f:	48 8b 95 28 ff ff ff 	mov    -0xd8(%rbp),%rdx
  102836:	48 89 bd 20 ff ff ff 	mov    %rdi,-0xe0(%rbp)
  10283d:	48 89 d7             	mov    %rdx,%rdi
  102840:	48 89 c6             	mov    %rax,%rsi
  102843:	48 8b 95 30 ff ff ff 	mov    -0xd0(%rbp),%rdx
  10284a:	e8 01 19 00 00       	callq  104150 <memcpy>
  10284f:	48 8b bd 20 ff ff ff 	mov    -0xe0(%rbp),%rdi
  102856:	48 8b b5 28 ff ff ff 	mov    -0xd8(%rbp),%rsi
  10285d:	e8 5e e6 ff ff       	callq  100ec0 <_ZN4core3fmt5Write9write_fmt17h7ffd43ad7946567dE>
  102862:	88 85 4f ff ff ff    	mov    %al,-0xb1(%rbp)
  102868:	8a 85 4f ff ff ff    	mov    -0xb1(%rbp),%al
  10286e:	88 85 50 ff ff ff    	mov    %al,-0xb0(%rbp)
  102874:	8a 85 50 ff ff ff    	mov    -0xb0(%rbp),%al
  10287a:	48 81 c4 e0 00 00 00 	add    $0xe0,%rsp
  102881:	5d                   	pop    %rbp
  102882:	c3                   	retq   
  102883:	66 2e 0f 1f 84 00 00 	nopw   %cs:0x0(%rax,%rax,1)
  10288a:	00 00 00 
  10288d:	0f 1f 00             	nopl   (%rax)

0000000000102890 <_ZN96_$LT$core..fmt..Write..write_fmt..Adapter$LT$$u27$a$C$$u20$T$GT$$u20$as$u20$core..fmt..Write$GT$9write_str17he50ac61e3438780fE>:
  102890:	55                   	push   %rbp
  102891:	48 89 e5             	mov    %rsp,%rbp
  102894:	48 83 ec 50          	sub    $0x50,%rsp
  102898:	48 89 7d f0          	mov    %rdi,-0x10(%rbp)
  10289c:	48 89 75 e0          	mov    %rsi,-0x20(%rbp)
  1028a0:	48 89 55 e8          	mov    %rdx,-0x18(%rbp)
  1028a4:	48 8b 45 f0          	mov    -0x10(%rbp),%rax
  1028a8:	48 89 45 d8          	mov    %rax,-0x28(%rbp)
  1028ac:	48 8b 45 e0          	mov    -0x20(%rbp),%rax
  1028b0:	48 8b 4d e8          	mov    -0x18(%rbp),%rcx
  1028b4:	48 89 45 c8          	mov    %rax,-0x38(%rbp)
  1028b8:	48 89 4d d0          	mov    %rcx,-0x30(%rbp)
  1028bc:	48 8b 45 d8          	mov    -0x28(%rbp),%rax
  1028c0:	48 8b 38             	mov    (%rax),%rdi
  1028c3:	48 8b 75 c8          	mov    -0x38(%rbp),%rsi
  1028c7:	48 8b 55 d0          	mov    -0x30(%rbp),%rdx
  1028cb:	e8 70 04 00 00       	callq  102d40 <_ZN64_$LT$rich_os..vga_buffer..Writer$u20$as$u20$core..fmt..Write$GT$9write_str17h33f53848afa97612E>
  1028d0:	88 45 bf             	mov    %al,-0x41(%rbp)
  1028d3:	8a 45 bf             	mov    -0x41(%rbp),%al
  1028d6:	88 45 c0             	mov    %al,-0x40(%rbp)
  1028d9:	8a 45 c0             	mov    -0x40(%rbp),%al
  1028dc:	48 83 c4 50          	add    $0x50,%rsp
  1028e0:	5d                   	pop    %rbp
  1028e1:	c3                   	retq   
  1028e2:	66 2e 0f 1f 84 00 00 	nopw   %cs:0x0(%rax,%rax,1)
  1028e9:	00 00 00 
  1028ec:	0f 1f 40 00          	nopl   0x0(%rax)

00000000001028f0 <_ZN7rich_os10vga_buffer6Writer10write_byte17h581f6b63484bf599E>:
  1028f0:	55                   	push   %rbp
  1028f1:	48 89 e5             	mov    %rsp,%rbp
  1028f4:	48 83 ec 70          	sub    $0x70,%rsp
  1028f8:	40 88 f0             	mov    %sil,%al
  1028fb:	48 89 7d f8          	mov    %rdi,-0x8(%rbp)
  1028ff:	88 45 f7             	mov    %al,-0x9(%rbp)
  102902:	48 8b 45 f8          	mov    -0x8(%rbp),%rax
  102906:	48 89 45 e8          	mov    %rax,-0x18(%rbp)
  10290a:	8a 4d f7             	mov    -0x9(%rbp),%cl
  10290d:	88 4d e7             	mov    %cl,-0x19(%rbp)
  102910:	80 e9 0a             	sub    $0xa,%cl
  102913:	88 4d b7             	mov    %cl,-0x49(%rbp)
  102916:	74 14                	je     10292c <_ZN7rich_os10vga_buffer6Writer10write_byte17h581f6b63484bf599E+0x3c>
  102918:	eb 00                	jmp    10291a <_ZN7rich_os10vga_buffer6Writer10write_byte17h581f6b63484bf599E+0x2a>
  10291a:	8a 45 e7             	mov    -0x19(%rbp),%al
  10291d:	88 45 e6             	mov    %al,-0x1a(%rbp)
  102920:	48 8b 4d e8          	mov    -0x18(%rbp),%rcx
  102924:	48 83 39 50          	cmpq   $0x50,(%rcx)
  102928:	73 10                	jae    10293a <_ZN7rich_os10vga_buffer6Writer10write_byte17h581f6b63484bf599E+0x4a>
  10292a:	eb 19                	jmp    102945 <_ZN7rich_os10vga_buffer6Writer10write_byte17h581f6b63484bf599E+0x55>
  10292c:	48 8b 7d e8          	mov    -0x18(%rbp),%rdi
  102930:	e8 4b 01 00 00       	callq  102a80 <_ZN7rich_os10vga_buffer6Writer8new_line17h85f7070d04f769e3E>
  102935:	e9 b9 00 00 00       	jmpq   1029f3 <_ZN7rich_os10vga_buffer6Writer10write_byte17h581f6b63484bf599E+0x103>
  10293a:	48 8b 7d e8          	mov    -0x18(%rbp),%rdi
  10293e:	e8 3d 01 00 00       	callq  102a80 <_ZN7rich_os10vga_buffer6Writer8new_line17h85f7070d04f769e3E>
  102943:	eb 02                	jmp    102947 <_ZN7rich_os10vga_buffer6Writer10write_byte17h581f6b63484bf599E+0x57>
  102945:	eb 02                	jmp    102949 <_ZN7rich_os10vga_buffer6Writer10write_byte17h581f6b63484bf599E+0x59>
  102947:	eb 00                	jmp    102949 <_ZN7rich_os10vga_buffer6Writer10write_byte17h581f6b63484bf599E+0x59>
  102949:	eb 00                	jmp    10294b <_ZN7rich_os10vga_buffer6Writer10write_byte17h581f6b63484bf599E+0x5b>
  10294b:	48 c7 45 d8 18 00 00 	movq   $0x18,-0x28(%rbp)
  102952:	00 
  102953:	48 8b 45 e8          	mov    -0x18(%rbp),%rax
  102957:	48 8b 00             	mov    (%rax),%rax
  10295a:	48 89 45 d0          	mov    %rax,-0x30(%rbp)
  10295e:	8a 4d e6             	mov    -0x1a(%rbp),%cl
  102961:	48 8b 45 e8          	mov    -0x18(%rbp),%rax
  102965:	8a 50 08             	mov    0x8(%rax),%dl
  102968:	88 55 c0             	mov    %dl,-0x40(%rbp)
  10296b:	48 8b 7d e8          	mov    -0x18(%rbp),%rdi
  10296f:	88 4d b6             	mov    %cl,-0x4a(%rbp)
  102972:	e8 c9 00 00 00       	callq  102a40 <_ZN7rich_os10vga_buffer6Writer6buffer17hd7231d2bfd86ac3dE>
  102977:	48 89 45 a8          	mov    %rax,-0x58(%rbp)
  10297b:	48 8b 45 d8          	mov    -0x28(%rbp),%rax
  10297f:	48 83 f8 19          	cmp    $0x19,%rax
  102983:	0f 92 c1             	setb   %cl
  102986:	f6 c1 01             	test   $0x1,%cl
  102989:	48 89 45 a0          	mov    %rax,-0x60(%rbp)
  10298d:	75 02                	jne    102991 <_ZN7rich_os10vga_buffer6Writer10write_byte17h581f6b63484bf599E+0xa1>
  10298f:	eb 68                	jmp    1029f9 <_ZN7rich_os10vga_buffer6Writer10write_byte17h581f6b63484bf599E+0x109>
  102991:	48 8b 45 d0          	mov    -0x30(%rbp),%rax
  102995:	48 83 f8 50          	cmp    $0x50,%rax
  102999:	0f 92 c1             	setb   %cl
  10299c:	f6 c1 01             	test   $0x1,%cl
  10299f:	48 89 45 98          	mov    %rax,-0x68(%rbp)
  1029a3:	75 02                	jne    1029a7 <_ZN7rich_os10vga_buffer6Writer10write_byte17h581f6b63484bf599E+0xb7>
  1029a5:	eb 69                	jmp    102a10 <_ZN7rich_os10vga_buffer6Writer10write_byte17h581f6b63484bf599E+0x120>
  1029a7:	48 8b 45 a0          	mov    -0x60(%rbp),%rax
  1029ab:	48 8d 0c 80          	lea    (%rax,%rax,4),%rcx
  1029af:	48 c1 e1 05          	shl    $0x5,%rcx
  1029b3:	48 8b 55 a8          	mov    -0x58(%rbp),%rdx
  1029b7:	48 01 ca             	add    %rcx,%rdx
  1029ba:	48 8b 4d 98          	mov    -0x68(%rbp),%rcx
  1029be:	40 8a 75 b6          	mov    -0x4a(%rbp),%sil
  1029c2:	40 88 34 4a          	mov    %sil,(%rdx,%rcx,2)
  1029c6:	40 8a 7d c0          	mov    -0x40(%rbp),%dil
  1029ca:	40 88 7c 4a 01       	mov    %dil,0x1(%rdx,%rcx,2)
  1029cf:	48 8b 55 e8          	mov    -0x18(%rbp),%rdx
  1029d3:	48 8b 12             	mov    (%rdx),%rdx
  1029d6:	48 83 c2 01          	add    $0x1,%rdx
  1029da:	40 0f 92 c7          	setb   %dil
  1029de:	40 f6 c7 01          	test   $0x1,%dil
  1029e2:	48 89 55 90          	mov    %rdx,-0x70(%rbp)
  1029e6:	75 3f                	jne    102a27 <_ZN7rich_os10vga_buffer6Writer10write_byte17h581f6b63484bf599E+0x137>
  1029e8:	48 8b 45 e8          	mov    -0x18(%rbp),%rax
  1029ec:	48 8b 4d 90          	mov    -0x70(%rbp),%rcx
  1029f0:	48 89 08             	mov    %rcx,(%rax)
  1029f3:	48 83 c4 70          	add    $0x70,%rsp
  1029f7:	5d                   	pop    %rbp
  1029f8:	c3                   	retq   
  1029f9:	48 8d 3d a0 d5 00 00 	lea    0xd5a0(%rip),%rdi        # 10ffa0 <panic_bounds_check_loc3432>
  102a00:	b8 19 00 00 00       	mov    $0x19,%eax
  102a05:	89 c2                	mov    %eax,%edx
  102a07:	48 8b 75 a0          	mov    -0x60(%rbp),%rsi
  102a0b:	e8 10 2b 00 00       	callq  105520 <_ZN4core9panicking18panic_bounds_check17ha826e5548fbc34ddE>
  102a10:	48 8d 3d 89 d5 00 00 	lea    0xd589(%rip),%rdi        # 10ffa0 <panic_bounds_check_loc3432>
  102a17:	b8 50 00 00 00       	mov    $0x50,%eax
  102a1c:	89 c2                	mov    %eax,%edx
  102a1e:	48 8b 75 98          	mov    -0x68(%rbp),%rsi
  102a22:	e8 f9 2a 00 00       	callq  105520 <_ZN4core9panicking18panic_bounds_check17ha826e5548fbc34ddE>
  102a27:	48 8d 3d 8a d5 00 00 	lea    0xd58a(%rip),%rdi        # 10ffb8 <panic_loc3433>
  102a2e:	e8 5d 2a 00 00       	callq  105490 <_ZN4core9panicking5panic17h585bd70cda921012E>
  102a33:	66 2e 0f 1f 84 00 00 	nopw   %cs:0x0(%rax,%rax,1)
  102a3a:	00 00 00 
  102a3d:	0f 1f 00             	nopl   (%rax)

0000000000102a40 <_ZN7rich_os10vga_buffer6Writer6buffer17hd7231d2bfd86ac3dE>:
  102a40:	55                   	push   %rbp
  102a41:	48 89 e5             	mov    %rsp,%rbp
  102a44:	48 83 ec 20          	sub    $0x20,%rsp
  102a48:	48 89 7d f0          	mov    %rdi,-0x10(%rbp)
  102a4c:	48 8b 45 f0          	mov    -0x10(%rbp),%rax
  102a50:	48 89 45 e8          	mov    %rax,-0x18(%rbp)
  102a54:	48 8b 45 e8          	mov    -0x18(%rbp),%rax
  102a58:	48 83 c0 10          	add    $0x10,%rax
  102a5c:	48 89 c7             	mov    %rax,%rdi
  102a5f:	e8 1c d8 ff ff       	callq  100280 <_ZN35_$LT$core..ptr..Unique$LT$T$GT$$GT$7get_mut17h2e0e666a563b615eE>
  102a64:	48 89 45 e0          	mov    %rax,-0x20(%rbp)
  102a68:	48 8b 45 e0          	mov    -0x20(%rbp),%rax
  102a6c:	48 83 c4 20          	add    $0x20,%rsp
  102a70:	5d                   	pop    %rbp
  102a71:	c3                   	retq   
  102a72:	66 2e 0f 1f 84 00 00 	nopw   %cs:0x0(%rax,%rax,1)
  102a79:	00 00 00 
  102a7c:	0f 1f 40 00          	nopl   0x0(%rax)

0000000000102a80 <_ZN7rich_os10vga_buffer6Writer8new_line17h85f7070d04f769e3E>:
  102a80:	55                   	push   %rbp
  102a81:	48 89 e5             	mov    %rsp,%rbp
  102a84:	48 81 ec 70 01 00 00 	sub    $0x170,%rsp
  102a8b:	48 89 7d f8          	mov    %rdi,-0x8(%rbp)
  102a8f:	48 8b 45 f8          	mov    -0x8(%rbp),%rax
  102a93:	48 89 45 f0          	mov    %rax,-0x10(%rbp)
  102a97:	48 8d bd e8 fe ff ff 	lea    -0x118(%rbp),%rdi
  102a9e:	48 8d b5 d8 fe ff ff 	lea    -0x128(%rbp),%rsi
  102aa5:	48 c7 45 b8 00 00 00 	movq   $0x0,-0x48(%rbp)
  102aac:	00 
  102aad:	48 c7 45 c0 18 00 00 	movq   $0x18,-0x40(%rbp)
  102ab4:	00 
  102ab5:	48 8b 45 b8          	mov    -0x48(%rbp),%rax
  102ab9:	48 8b 4d c0          	mov    -0x40(%rbp),%rcx
  102abd:	48 89 85 d8 fe ff ff 	mov    %rax,-0x128(%rbp)
  102ac4:	48 89 8d e0 fe ff ff 	mov    %rcx,-0x120(%rbp)
  102acb:	e8 c0 f7 ff ff       	callq  102290 <_ZN54_$LT$I$u20$as$u20$core..iter..traits..IntoIterator$GT$9into_iter17h593a8b7b125c6a4eE>
  102ad0:	48 8b 85 e8 fe ff ff 	mov    -0x118(%rbp),%rax
  102ad7:	48 8b 8d f0 fe ff ff 	mov    -0x110(%rbp),%rcx
  102ade:	48 89 85 d0 fe ff ff 	mov    %rax,-0x130(%rbp)
  102ae5:	48 89 8d c8 fe ff ff 	mov    %rcx,-0x138(%rbp)
  102aec:	48 8b 85 d0 fe ff ff 	mov    -0x130(%rbp),%rax
  102af3:	48 89 45 d8          	mov    %rax,-0x28(%rbp)
  102af7:	48 8b 8d c8 fe ff ff 	mov    -0x138(%rbp),%rcx
  102afe:	48 89 4d e0          	mov    %rcx,-0x20(%rbp)
  102b02:	48 8d 7d a0          	lea    -0x60(%rbp),%rdi
  102b06:	48 8d 75 d8          	lea    -0x28(%rbp),%rsi
  102b0a:	e8 21 e7 ff ff       	callq  101230 <_ZN4core4iter5range86_$LT$impl$u20$core..iter..iterator..Iterator$u20$for$u20$core..ops..Range$LT$A$GT$$GT$4next17h05ed5ee39168d888E>
  102b0f:	eb 10                	jmp    102b21 <_ZN7rich_os10vga_buffer6Writer8new_line17h85f7070d04f769e3E+0xa1>
  102b11:	48 8b 7d f0          	mov    -0x10(%rbp),%rdi
  102b15:	48 89 bd c0 fe ff ff 	mov    %rdi,-0x140(%rbp)
  102b1c:	e9 f3 00 00 00       	jmpq   102c14 <_ZN7rich_os10vga_buffer6Writer8new_line17h85f7070d04f769e3E+0x194>
  102b21:	48 8b 45 a0          	mov    -0x60(%rbp),%rax
  102b25:	48 85 c0             	test   %rax,%rax
  102b28:	48 89 85 b8 fe ff ff 	mov    %rax,-0x148(%rbp)
  102b2f:	74 e0                	je     102b11 <_ZN7rich_os10vga_buffer6Writer8new_line17h85f7070d04f769e3E+0x91>
  102b31:	eb 00                	jmp    102b33 <_ZN7rich_os10vga_buffer6Writer8new_line17h85f7070d04f769e3E+0xb3>
  102b33:	48 8b 85 b8 fe ff ff 	mov    -0x148(%rbp),%rax
  102b3a:	48 83 e8 01          	sub    $0x1,%rax
  102b3e:	48 89 85 b0 fe ff ff 	mov    %rax,-0x150(%rbp)
  102b45:	0f 85 f0 00 00 00    	jne    102c3b <_ZN7rich_os10vga_buffer6Writer8new_line17h85f7070d04f769e3E+0x1bb>
  102b4b:	eb 00                	jmp    102b4d <_ZN7rich_os10vga_buffer6Writer8new_line17h85f7070d04f769e3E+0xcd>
  102b4d:	48 8b 45 a8          	mov    -0x58(%rbp),%rax
  102b51:	48 89 45 d0          	mov    %rax,-0x30(%rbp)
  102b55:	48 8b 7d f0          	mov    -0x10(%rbp),%rdi
  102b59:	e8 e2 fe ff ff       	callq  102a40 <_ZN7rich_os10vga_buffer6Writer6buffer17hd7231d2bfd86ac3dE>
  102b5e:	48 89 45 c8          	mov    %rax,-0x38(%rbp)
  102b62:	48 8b 45 c8          	mov    -0x38(%rbp),%rax
  102b66:	48 8b 4d d0          	mov    -0x30(%rbp),%rcx
  102b6a:	48 83 c1 01          	add    $0x1,%rcx
  102b6e:	0f 92 c2             	setb   %dl
  102b71:	f6 c2 01             	test   $0x1,%dl
  102b74:	48 89 85 a8 fe ff ff 	mov    %rax,-0x158(%rbp)
  102b7b:	48 89 8d a0 fe ff ff 	mov    %rcx,-0x160(%rbp)
  102b82:	0f 85 b3 00 00 00    	jne    102c3b <_ZN7rich_os10vga_buffer6Writer8new_line17h85f7070d04f769e3E+0x1bb>
  102b88:	b8 19 00 00 00       	mov    $0x19,%eax
  102b8d:	89 c6                	mov    %eax,%esi
  102b8f:	48 8b bd a8 fe ff ff 	mov    -0x158(%rbp),%rdi
  102b96:	48 8b 95 a0 fe ff ff 	mov    -0x160(%rbp),%rdx
  102b9d:	e8 0e ef ff ff       	callq  101ab0 <_ZN4core5slice71_$LT$impl$u20$core..ops..Index$LT$usize$GT$$u20$for$u20$$u5b$T$u5d$$GT$5index17h50ae4478be8f439cE>
  102ba2:	48 89 85 98 fe ff ff 	mov    %rax,-0x168(%rbp)
  102ba9:	b8 a0 00 00 00       	mov    $0xa0,%eax
  102bae:	89 c2                	mov    %eax,%edx
  102bb0:	48 8d 8d 00 ff ff ff 	lea    -0x100(%rbp),%rcx
  102bb7:	48 8b b5 98 fe ff ff 	mov    -0x168(%rbp),%rsi
  102bbe:	48 89 cf             	mov    %rcx,%rdi
  102bc1:	e8 8a 15 00 00       	callq  104150 <memcpy>
  102bc6:	48 8b 4d d0          	mov    -0x30(%rbp),%rcx
  102bca:	48 83 f9 19          	cmp    $0x19,%rcx
  102bce:	41 0f 92 c0          	setb   %r8b
  102bd2:	41 f6 c0 01          	test   $0x1,%r8b
  102bd6:	48 89 8d 90 fe ff ff 	mov    %rcx,-0x170(%rbp)
  102bdd:	75 02                	jne    102be1 <_ZN7rich_os10vga_buffer6Writer8new_line17h85f7070d04f769e3E+0x161>
  102bdf:	eb 66                	jmp    102c47 <_ZN7rich_os10vga_buffer6Writer8new_line17h85f7070d04f769e3E+0x1c7>
  102be1:	b8 a0 00 00 00       	mov    $0xa0,%eax
  102be6:	89 c2                	mov    %eax,%edx
  102be8:	48 8d 8d 00 ff ff ff 	lea    -0x100(%rbp),%rcx
  102bef:	48 8b 75 c8          	mov    -0x38(%rbp),%rsi
  102bf3:	48 8b bd 90 fe ff ff 	mov    -0x170(%rbp),%rdi
  102bfa:	4c 69 c7 a0 00 00 00 	imul   $0xa0,%rdi,%r8
  102c01:	4c 01 c6             	add    %r8,%rsi
  102c04:	48 89 f7             	mov    %rsi,%rdi
  102c07:	48 89 ce             	mov    %rcx,%rsi
  102c0a:	e8 41 15 00 00       	callq  104150 <memcpy>
  102c0f:	e9 ee fe ff ff       	jmpq   102b02 <_ZN7rich_os10vga_buffer6Writer8new_line17h85f7070d04f769e3E+0x82>
  102c14:	b8 18 00 00 00       	mov    $0x18,%eax
  102c19:	89 c6                	mov    %eax,%esi
  102c1b:	48 8b bd c0 fe ff ff 	mov    -0x140(%rbp),%rdi
  102c22:	e8 49 00 00 00       	callq  102c70 <_ZN7rich_os10vga_buffer6Writer9clear_row17h1c62416a9953f847E>
  102c27:	48 8b 45 f0          	mov    -0x10(%rbp),%rax
  102c2b:	48 c7 00 00 00 00 00 	movq   $0x0,(%rax)
  102c32:	48 81 c4 70 01 00 00 	add    $0x170,%rsp
  102c39:	5d                   	pop    %rbp
  102c3a:	c3                   	retq   
  102c3b:	48 8d 3d 9e d3 00 00 	lea    0xd39e(%rip),%rdi        # 10ffe0 <panic_loc3434>
  102c42:	e8 49 28 00 00       	callq  105490 <_ZN4core9panicking5panic17h585bd70cda921012E>
  102c47:	48 8d 3d ba d3 00 00 	lea    0xd3ba(%rip),%rdi        # 110008 <panic_bounds_check_loc3435>
  102c4e:	b8 19 00 00 00       	mov    $0x19,%eax
  102c53:	89 c2                	mov    %eax,%edx
  102c55:	48 8b b5 90 fe ff ff 	mov    -0x170(%rbp),%rsi
  102c5c:	e8 bf 28 00 00       	callq  105520 <_ZN4core9panicking18panic_bounds_check17ha826e5548fbc34ddE>
  102c61:	66 2e 0f 1f 84 00 00 	nopw   %cs:0x0(%rax,%rax,1)
  102c68:	00 00 00 
  102c6b:	0f 1f 44 00 00       	nopl   0x0(%rax,%rax,1)

0000000000102c70 <_ZN7rich_os10vga_buffer6Writer9clear_row17h1c62416a9953f847E>:
  102c70:	55                   	push   %rbp
  102c71:	48 89 e5             	mov    %rsp,%rbp
  102c74:	48 83 ec 70          	sub    $0x70,%rsp
  102c78:	48 89 7d f8          	mov    %rdi,-0x8(%rbp)
  102c7c:	48 89 75 f0          	mov    %rsi,-0x10(%rbp)
  102c80:	48 8b 45 f8          	mov    -0x8(%rbp),%rax
  102c84:	48 89 45 e8          	mov    %rax,-0x18(%rbp)
  102c88:	48 8b 45 f0          	mov    -0x10(%rbp),%rax
  102c8c:	48 89 45 e0          	mov    %rax,-0x20(%rbp)
  102c90:	48 8b 45 e8          	mov    -0x18(%rbp),%rax
  102c94:	8a 48 08             	mov    0x8(%rax),%cl
  102c97:	88 4d d0             	mov    %cl,-0x30(%rbp)
  102c9a:	c6 45 d8 20          	movb   $0x20,-0x28(%rbp)
  102c9e:	8a 4d d0             	mov    -0x30(%rbp),%cl
  102ca1:	88 4d d9             	mov    %cl,-0x27(%rbp)
  102ca4:	8a 55 d8             	mov    -0x28(%rbp),%dl
  102ca7:	48 8b 7d e8          	mov    -0x18(%rbp),%rdi
  102cab:	88 4d c7             	mov    %cl,-0x39(%rbp)
  102cae:	88 55 c6             	mov    %dl,-0x3a(%rbp)
  102cb1:	e8 8a fd ff ff       	callq  102a40 <_ZN7rich_os10vga_buffer6Writer6buffer17hd7231d2bfd86ac3dE>
  102cb6:	48 89 45 b8          	mov    %rax,-0x48(%rbp)
  102cba:	48 8b 45 e0          	mov    -0x20(%rbp),%rax
  102cbe:	48 83 f8 19          	cmp    $0x19,%rax
  102cc2:	0f 92 c1             	setb   %cl
  102cc5:	f6 c1 01             	test   $0x1,%cl
  102cc8:	48 89 45 b0          	mov    %rax,-0x50(%rbp)
  102ccc:	75 02                	jne    102cd0 <_ZN7rich_os10vga_buffer6Writer9clear_row17h1c62416a9953f847E+0x60>
  102cce:	eb 26                	jmp    102cf6 <_ZN7rich_os10vga_buffer6Writer9clear_row17h1c62416a9953f847E+0x86>
  102cd0:	48 8b 45 b0          	mov    -0x50(%rbp),%rax
  102cd4:	48 69 c8 a0 00 00 00 	imul   $0xa0,%rax,%rcx
  102cdb:	48 8b 55 b8          	mov    -0x48(%rbp),%rdx
  102cdf:	48 01 ca             	add    %rcx,%rdx
  102ce2:	48 89 d1             	mov    %rdx,%rcx
  102ce5:	48 81 c1 a0 00 00 00 	add    $0xa0,%rcx
  102cec:	48 89 4d a8          	mov    %rcx,-0x58(%rbp)
  102cf0:	48 89 55 a0          	mov    %rdx,-0x60(%rbp)
  102cf4:	eb 17                	jmp    102d0d <_ZN7rich_os10vga_buffer6Writer9clear_row17h1c62416a9953f847E+0x9d>
  102cf6:	48 8d 3d 23 d3 00 00 	lea    0xd323(%rip),%rdi        # 110020 <panic_bounds_check_loc3436>
  102cfd:	b8 19 00 00 00       	mov    $0x19,%eax
  102d02:	89 c2                	mov    %eax,%edx
  102d04:	48 8b 75 b0          	mov    -0x50(%rbp),%rsi
  102d08:	e8 13 28 00 00       	callq  105520 <_ZN4core9panicking18panic_bounds_check17ha826e5548fbc34ddE>
  102d0d:	48 8b 45 a0          	mov    -0x60(%rbp),%rax
  102d11:	48 8b 4d a8          	mov    -0x58(%rbp),%rcx
  102d15:	48 39 c8             	cmp    %rcx,%rax
  102d18:	48 89 45 98          	mov    %rax,-0x68(%rbp)
  102d1c:	73 19                	jae    102d37 <_ZN7rich_os10vga_buffer6Writer9clear_row17h1c62416a9953f847E+0xc7>
  102d1e:	48 8b 45 98          	mov    -0x68(%rbp),%rax
  102d22:	8a 4d c6             	mov    -0x3a(%rbp),%cl
  102d25:	88 08                	mov    %cl,(%rax)
  102d27:	8a 55 c7             	mov    -0x39(%rbp),%dl
  102d2a:	88 50 01             	mov    %dl,0x1(%rax)
  102d2d:	48 83 c0 02          	add    $0x2,%rax
  102d31:	48 89 45 a0          	mov    %rax,-0x60(%rbp)
  102d35:	eb d6                	jmp    102d0d <_ZN7rich_os10vga_buffer6Writer9clear_row17h1c62416a9953f847E+0x9d>
  102d37:	48 83 c4 70          	add    $0x70,%rsp
  102d3b:	5d                   	pop    %rbp
  102d3c:	c3                   	retq   
  102d3d:	0f 1f 00             	nopl   (%rax)

0000000000102d40 <_ZN64_$LT$rich_os..vga_buffer..Writer$u20$as$u20$core..fmt..Write$GT$9write_str17h33f53848afa97612E>:
  102d40:	55                   	push   %rbp
  102d41:	48 89 e5             	mov    %rsp,%rbp
  102d44:	48 81 ec a0 00 00 00 	sub    $0xa0,%rsp
  102d4b:	48 89 7d f0          	mov    %rdi,-0x10(%rbp)
  102d4f:	48 89 75 e0          	mov    %rsi,-0x20(%rbp)
  102d53:	48 89 55 e8          	mov    %rdx,-0x18(%rbp)
  102d57:	48 8d 7d 88          	lea    -0x78(%rbp),%rdi
  102d5b:	48 8b 45 f0          	mov    -0x10(%rbp),%rax
  102d5f:	48 89 45 d8          	mov    %rax,-0x28(%rbp)
  102d63:	48 8b 45 e0          	mov    -0x20(%rbp),%rax
  102d67:	48 8b 4d e8          	mov    -0x18(%rbp),%rcx
  102d6b:	48 89 45 c8          	mov    %rax,-0x38(%rbp)
  102d6f:	48 89 4d d0          	mov    %rcx,-0x30(%rbp)
  102d73:	48 8b 75 c8          	mov    -0x38(%rbp),%rsi
  102d77:	48 8b 55 d0          	mov    -0x30(%rbp),%rdx
  102d7b:	e8 40 da ff ff       	callq  1007c0 <_ZN41_$LT$str$u20$as$u20$core..str..StrExt$GT$5bytes17h25d3c1eaab1c59c0E>
  102d80:	48 8d 7d 98          	lea    -0x68(%rbp),%rdi
  102d84:	48 8d 75 88          	lea    -0x78(%rbp),%rsi
  102d88:	e8 63 f5 ff ff       	callq  1022f0 <_ZN54_$LT$I$u20$as$u20$core..iter..traits..IntoIterator$GT$9into_iter17h75a0b3358fb33d61E>
  102d8d:	48 8b 45 98          	mov    -0x68(%rbp),%rax
  102d91:	48 89 45 b0          	mov    %rax,-0x50(%rbp)
  102d95:	48 8b 45 a0          	mov    -0x60(%rbp),%rax
  102d99:	48 89 45 b8          	mov    %rax,-0x48(%rbp)
  102d9d:	48 8d 7d b0          	lea    -0x50(%rbp),%rdi
  102da1:	e8 8a f7 ff ff       	callq  102530 <_ZN81_$LT$core..str..Bytes$LT$$u27$a$GT$$u20$as$u20$core..iter..iterator..Iterator$GT$4next17h64d892166b3681e0E>
  102da6:	66 89 85 66 ff ff ff 	mov    %ax,-0x9a(%rbp)
  102dad:	66 8b 85 66 ff ff ff 	mov    -0x9a(%rbp),%ax
  102db4:	66 89 85 78 ff ff ff 	mov    %ax,-0x88(%rbp)
  102dbb:	eb 16                	jmp    102dd3 <_ZN64_$LT$rich_os..vga_buffer..Writer$u20$as$u20$core..fmt..Write$GT$9write_str17h33f53848afa97612E+0x93>
  102dbd:	c6 85 68 ff ff ff 00 	movb   $0x0,-0x98(%rbp)
  102dc4:	8a 85 68 ff ff ff    	mov    -0x98(%rbp),%al
  102dca:	48 81 c4 a0 00 00 00 	add    $0xa0,%rsp
  102dd1:	5d                   	pop    %rbp
  102dd2:	c3                   	retq   
  102dd3:	8a 85 78 ff ff ff    	mov    -0x88(%rbp),%al
  102dd9:	84 c0                	test   %al,%al
  102ddb:	88 85 65 ff ff ff    	mov    %al,-0x9b(%rbp)
  102de1:	74 da                	je     102dbd <_ZN64_$LT$rich_os..vga_buffer..Writer$u20$as$u20$core..fmt..Write$GT$9write_str17h33f53848afa97612E+0x7d>
  102de3:	eb 00                	jmp    102de5 <_ZN64_$LT$rich_os..vga_buffer..Writer$u20$as$u20$core..fmt..Write$GT$9write_str17h33f53848afa97612E+0xa5>
  102de5:	8a 85 65 ff ff ff    	mov    -0x9b(%rbp),%al
  102deb:	2c 01                	sub    $0x1,%al
  102ded:	88 85 64 ff ff ff    	mov    %al,-0x9c(%rbp)
  102df3:	75 1a                	jne    102e0f <_ZN64_$LT$rich_os..vga_buffer..Writer$u20$as$u20$core..fmt..Write$GT$9write_str17h33f53848afa97612E+0xcf>
  102df5:	eb 00                	jmp    102df7 <_ZN64_$LT$rich_os..vga_buffer..Writer$u20$as$u20$core..fmt..Write$GT$9write_str17h33f53848afa97612E+0xb7>
  102df7:	8a 85 79 ff ff ff    	mov    -0x87(%rbp),%al
  102dfd:	88 45 af             	mov    %al,-0x51(%rbp)
  102e00:	48 8b 7d d8          	mov    -0x28(%rbp),%rdi
  102e04:	0f b6 75 af          	movzbl -0x51(%rbp),%esi
  102e08:	e8 e3 fa ff ff       	callq  1028f0 <_ZN7rich_os10vga_buffer6Writer10write_byte17h581f6b63484bf599E>
  102e0d:	eb 8e                	jmp    102d9d <_ZN64_$LT$rich_os..vga_buffer..Writer$u20$as$u20$core..fmt..Write$GT$9write_str17h33f53848afa97612E+0x5d>
  102e0f:	90                   	nop

0000000000102e10 <_ZN7rich_os4port4outb17hb34a66b95501c033E>:
  102e10:	55                   	push   %rbp
  102e11:	48 89 e5             	mov    %rsp,%rbp
  102e14:	48 83 ec 18          	sub    $0x18,%rsp
  102e18:	66 89 f0             	mov    %si,%ax
  102e1b:	40 88 f9             	mov    %dil,%cl
  102e1e:	88 4d ff             	mov    %cl,-0x1(%rbp)
  102e21:	66 89 45 fc          	mov    %ax,-0x4(%rbp)
  102e25:	8a 45 ff             	mov    -0x1(%rbp),%al
  102e28:	88 45 fb             	mov    %al,-0x5(%rbp)
  102e2b:	66 8b 4d fc          	mov    -0x4(%rbp),%cx
  102e2f:	66 89 4d f8          	mov    %cx,-0x8(%rbp)
  102e33:	66 8b 55 f8          	mov    -0x8(%rbp),%dx
  102e37:	8a 45 fb             	mov    -0x5(%rbp),%al
  102e3a:	ee                   	out    %al,(%dx)
  102e3b:	48 83 c4 18          	add    $0x18,%rsp
  102e3f:	5d                   	pop    %rbp
  102e40:	c3                   	retq   
  102e41:	66 2e 0f 1f 84 00 00 	nopw   %cs:0x0(%rax,%rax,1)
  102e48:	00 00 00 
  102e4b:	0f 1f 44 00 00       	nopl   0x0(%rax,%rax,1)

0000000000102e50 <_ZN7rich_os4port3inb17hd8977f70439eee01E>:
  102e50:	55                   	push   %rbp
  102e51:	48 89 e5             	mov    %rsp,%rbp
  102e54:	48 83 ec 10          	sub    $0x10,%rsp
  102e58:	66 89 f8             	mov    %di,%ax
  102e5b:	66 89 45 fc          	mov    %ax,-0x4(%rbp)
  102e5f:	66 8b 45 fc          	mov    -0x4(%rbp),%ax
  102e63:	66 89 45 fa          	mov    %ax,-0x6(%rbp)
  102e67:	66 8b 55 fa          	mov    -0x6(%rbp),%dx
  102e6b:	ec                   	in     (%dx),%al
  102e6c:	88 45 f9             	mov    %al,-0x7(%rbp)
  102e6f:	8a 45 f9             	mov    -0x7(%rbp),%al
  102e72:	88 45 f7             	mov    %al,-0x9(%rbp)
  102e75:	8a 45 f7             	mov    -0x9(%rbp),%al
  102e78:	48 83 c4 10          	add    $0x10,%rsp
  102e7c:	5d                   	pop    %rbp
  102e7d:	c3                   	retq   
  102e7e:	66 90                	xchg   %ax,%ax

0000000000102e80 <_ZN43_$LT$u8$u20$as$u20$rich_os..port..InOut$GT$7port_in17h52f27b321020d959E>:
  102e80:	55                   	push   %rbp
  102e81:	48 89 e5             	mov    %rsp,%rbp
  102e84:	48 83 ec 10          	sub    $0x10,%rsp
  102e88:	66 89 f8             	mov    %di,%ax
  102e8b:	66 89 45 fc          	mov    %ax,-0x4(%rbp)
  102e8f:	66 8b 45 fc          	mov    -0x4(%rbp),%ax
  102e93:	66 89 45 fa          	mov    %ax,-0x6(%rbp)
  102e97:	0f b7 7d fa          	movzwl -0x6(%rbp),%edi
  102e9b:	e8 b0 ff ff ff       	callq  102e50 <_ZN7rich_os4port3inb17hd8977f70439eee01E>
  102ea0:	88 45 f9             	mov    %al,-0x7(%rbp)
  102ea3:	8a 45 f9             	mov    -0x7(%rbp),%al
  102ea6:	48 83 c4 10          	add    $0x10,%rsp
  102eaa:	5d                   	pop    %rbp
  102eab:	c3                   	retq   
  102eac:	0f 1f 40 00          	nopl   0x0(%rax)

0000000000102eb0 <_ZN43_$LT$u8$u20$as$u20$rich_os..port..InOut$GT$8port_out17hf70efeb1366887c6E>:
  102eb0:	55                   	push   %rbp
  102eb1:	48 89 e5             	mov    %rsp,%rbp
  102eb4:	48 83 ec 10          	sub    $0x10,%rsp
  102eb8:	40 88 f0             	mov    %sil,%al
  102ebb:	66 89 f9             	mov    %di,%cx
  102ebe:	66 89 4d fe          	mov    %cx,-0x2(%rbp)
  102ec2:	88 45 fd             	mov    %al,-0x3(%rbp)
  102ec5:	66 8b 45 fe          	mov    -0x2(%rbp),%ax
  102ec9:	66 89 45 fa          	mov    %ax,-0x6(%rbp)
  102ecd:	8a 4d fd             	mov    -0x3(%rbp),%cl
  102ed0:	88 4d f9             	mov    %cl,-0x7(%rbp)
  102ed3:	8a 4d f9             	mov    -0x7(%rbp),%cl
  102ed6:	0f b6 f9             	movzbl %cl,%edi
  102ed9:	0f b7 75 fa          	movzwl -0x6(%rbp),%esi
  102edd:	e8 2e ff ff ff       	callq  102e10 <_ZN7rich_os4port4outb17hb34a66b95501c033E>
  102ee2:	48 83 c4 10          	add    $0x10,%rsp
  102ee6:	5d                   	pop    %rbp
  102ee7:	c3                   	retq   
  102ee8:	0f 1f 84 00 00 00 00 	nopl   0x0(%rax,%rax,1)
  102eef:	00 

0000000000102ef0 <_ZN37_$LT$rich_os..port..Port$LT$T$GT$$GT$3new17h2c53dea323457d4aE>:
  102ef0:	55                   	push   %rbp
  102ef1:	48 89 e5             	mov    %rsp,%rbp
  102ef4:	48 83 ec 18          	sub    $0x18,%rsp
  102ef8:	66 89 f8             	mov    %di,%ax
  102efb:	66 89 45 f6          	mov    %ax,-0xa(%rbp)
  102eff:	66 8b 45 f6          	mov    -0xa(%rbp),%ax
  102f03:	66 89 45 f4          	mov    %ax,-0xc(%rbp)
  102f07:	66 8b 45 f4          	mov    -0xc(%rbp),%ax
  102f0b:	66 89 45 e8          	mov    %ax,-0x18(%rbp)
  102f0f:	66 8b 45 e8          	mov    -0x18(%rbp),%ax
  102f13:	48 83 c4 18          	add    $0x18,%rsp
  102f17:	5d                   	pop    %rbp
  102f18:	c3                   	retq   
  102f19:	0f 1f 80 00 00 00 00 	nopl   0x0(%rax)

0000000000102f20 <_ZN37_$LT$rich_os..port..Port$LT$T$GT$$GT$4read17h174f4721f92e17edE>:
  102f20:	55                   	push   %rbp
  102f21:	48 89 e5             	mov    %rsp,%rbp
  102f24:	48 83 ec 20          	sub    $0x20,%rsp
  102f28:	48 89 7d f0          	mov    %rdi,-0x10(%rbp)
  102f2c:	48 8b 45 f0          	mov    -0x10(%rbp),%rax
  102f30:	48 89 45 e8          	mov    %rax,-0x18(%rbp)
  102f34:	48 8b 45 e8          	mov    -0x18(%rbp),%rax
  102f38:	0f b7 38             	movzwl (%rax),%edi
  102f3b:	e8 40 ff ff ff       	callq  102e80 <_ZN43_$LT$u8$u20$as$u20$rich_os..port..InOut$GT$7port_in17h52f27b321020d959E>
  102f40:	88 45 e7             	mov    %al,-0x19(%rbp)
  102f43:	8a 45 e7             	mov    -0x19(%rbp),%al
  102f46:	48 83 c4 20          	add    $0x20,%rsp
  102f4a:	5d                   	pop    %rbp
  102f4b:	c3                   	retq   
  102f4c:	0f 1f 40 00          	nopl   0x0(%rax)

0000000000102f50 <_ZN37_$LT$rich_os..port..Port$LT$T$GT$$GT$5write17h1aa53b25e814758eE>:
  102f50:	55                   	push   %rbp
  102f51:	48 89 e5             	mov    %rsp,%rbp
  102f54:	48 83 ec 20          	sub    $0x20,%rsp
  102f58:	40 88 f0             	mov    %sil,%al
  102f5b:	48 89 7d f8          	mov    %rdi,-0x8(%rbp)
  102f5f:	88 45 f7             	mov    %al,-0x9(%rbp)
  102f62:	48 8b 45 f8          	mov    -0x8(%rbp),%rax
  102f66:	48 89 45 e8          	mov    %rax,-0x18(%rbp)
  102f6a:	8a 4d f7             	mov    -0x9(%rbp),%cl
  102f6d:	88 4d e7             	mov    %cl,-0x19(%rbp)
  102f70:	48 8b 45 e8          	mov    -0x18(%rbp),%rax
  102f74:	66 8b 10             	mov    (%rax),%dx
  102f77:	0f b7 fa             	movzwl %dx,%edi
  102f7a:	0f b6 75 e7          	movzbl -0x19(%rbp),%esi
  102f7e:	e8 2d ff ff ff       	callq  102eb0 <_ZN43_$LT$u8$u20$as$u20$rich_os..port..InOut$GT$8port_out17hf70efeb1366887c6E>
  102f83:	eb 00                	jmp    102f85 <_ZN37_$LT$rich_os..port..Port$LT$T$GT$$GT$5write17h1aa53b25e814758eE+0x35>
  102f85:	48 83 c4 20          	add    $0x20,%rsp
  102f89:	5d                   	pop    %rbp
  102f8a:	c3                   	retq   
  102f8b:	0f 1f 44 00 00       	nopl   0x0(%rax,%rax,1)

0000000000102f90 <_ZN55_$LT$rich_os..pic..ICW1$u20$as$u20$core..ops..BitOr$GT$5bitor17hebb9da9540429af7E>:
  102f90:	55                   	push   %rbp
  102f91:	48 89 e5             	mov    %rsp,%rbp
  102f94:	48 83 ec 30          	sub    $0x30,%rsp
  102f98:	40 88 f0             	mov    %sil,%al
  102f9b:	40 88 f9             	mov    %dil,%cl
  102f9e:	88 4d ef             	mov    %cl,-0x11(%rbp)
  102fa1:	8a 4d ef             	mov    -0x11(%rbp),%cl
  102fa4:	88 4d f0             	mov    %cl,-0x10(%rbp)
  102fa7:	88 45 e7             	mov    %al,-0x19(%rbp)
  102faa:	8a 45 e7             	mov    -0x19(%rbp),%al
  102fad:	88 45 e8             	mov    %al,-0x18(%rbp)
  102fb0:	8a 45 f0             	mov    -0x10(%rbp),%al
  102fb3:	88 45 e0             	mov    %al,-0x20(%rbp)
  102fb6:	8a 45 e8             	mov    -0x18(%rbp),%al
  102fb9:	88 45 d8             	mov    %al,-0x28(%rbp)
  102fbc:	8a 45 e0             	mov    -0x20(%rbp),%al
  102fbf:	0a 45 d8             	or     -0x28(%rbp),%al
  102fc2:	88 45 d0             	mov    %al,-0x30(%rbp)
  102fc5:	8a 45 d0             	mov    -0x30(%rbp),%al
  102fc8:	48 83 c4 30          	add    $0x30,%rsp
  102fcc:	5d                   	pop    %rbp
  102fcd:	c3                   	retq   
  102fce:	66 90                	xchg   %ax,%ax

0000000000102fd0 <_ZN7rich_os3pic11ChainedPics10setup_pics17h67a089e3a1255af8E>:
  102fd0:	55                   	push   %rbp
  102fd1:	48 89 e5             	mov    %rsp,%rbp
  102fd4:	48 81 ec d0 00 00 00 	sub    $0xd0,%rsp
  102fdb:	48 89 7d f8          	mov    %rdi,-0x8(%rbp)
  102fdf:	bf 80 00 00 00       	mov    $0x80,%edi
  102fe4:	48 8b 45 f8          	mov    -0x8(%rbp),%rax
  102fe8:	48 89 45 f0          	mov    %rax,-0x10(%rbp)
  102fec:	e8 ff fe ff ff       	callq  102ef0 <_ZN37_$LT$rich_os..port..Port$LT$T$GT$$GT$3new17h2c53dea323457d4aE>
  102ff1:	66 89 85 66 ff ff ff 	mov    %ax,-0x9a(%rbp)
  102ff8:	66 8b 85 66 ff ff ff 	mov    -0x9a(%rbp),%ax
  102fff:	66 89 45 e8          	mov    %ax,-0x18(%rbp)
  103003:	48 8d 45 e8          	lea    -0x18(%rbp),%rax
  103007:	48 89 45 e0          	mov    %rax,-0x20(%rbp)
  10300b:	48 8b 7d f0          	mov    -0x10(%rbp),%rdi
  10300f:	e8 0c ff ff ff       	callq  102f20 <_ZN37_$LT$rich_os..port..Port$LT$T$GT$$GT$4read17h174f4721f92e17edE>
  103014:	88 45 df             	mov    %al,-0x21(%rbp)
  103017:	48 8b 45 f0          	mov    -0x10(%rbp),%rax
  10301b:	48 83 c0 06          	add    $0x6,%rax
  10301f:	48 89 c7             	mov    %rax,%rdi
  103022:	e8 f9 fe ff ff       	callq  102f20 <_ZN37_$LT$rich_os..port..Port$LT$T$GT$$GT$4read17h174f4721f92e17edE>
  103027:	88 45 de             	mov    %al,-0x22(%rbp)
  10302a:	48 8b 45 f0          	mov    -0x10(%rbp),%rax
  10302e:	48 83 c0 02          	add    $0x2,%rax
  103032:	8a 0d a1 c3 00 00    	mov    0xc3a1(%rip),%cl        # 10f3d9 <const3457>
  103038:	88 8d 60 ff ff ff    	mov    %cl,-0xa0(%rbp)
  10303e:	8a 15 96 c3 00 00    	mov    0xc396(%rip),%dl        # 10f3da <const3458>
  103044:	88 95 58 ff ff ff    	mov    %dl,-0xa8(%rbp)
  10304a:	0f b6 f9             	movzbl %cl,%edi
  10304d:	0f b6 b5 58 ff ff ff 	movzbl -0xa8(%rbp),%esi
  103054:	48 89 85 38 ff ff ff 	mov    %rax,-0xc8(%rbp)
  10305b:	e8 30 ff ff ff       	callq  102f90 <_ZN55_$LT$rich_os..pic..ICW1$u20$as$u20$core..ops..BitOr$GT$5bitor17hebb9da9540429af7E>
  103060:	88 85 57 ff ff ff    	mov    %al,-0xa9(%rbp)
  103066:	8a 85 57 ff ff ff    	mov    -0xa9(%rbp),%al
  10306c:	88 45 d8             	mov    %al,-0x28(%rbp)
  10306f:	48 8b bd 38 ff ff ff 	mov    -0xc8(%rbp),%rdi
  103076:	0f b6 75 d8          	movzbl -0x28(%rbp),%esi
  10307a:	e8 d1 fe ff ff       	callq  102f50 <_ZN37_$LT$rich_os..port..Port$LT$T$GT$$GT$5write17h1aa53b25e814758eE>
  10307f:	48 8d 7d e0          	lea    -0x20(%rbp),%rdi
  103083:	e8 28 10 00 00       	callq  1040b0 <_ZN7rich_os3pic11ChainedPics10setup_pics28_$u7b$$u7b$closure$u7d$$u7d$17hf39a837232cb1933E>
  103088:	48 8b 45 f0          	mov    -0x10(%rbp),%rax
  10308c:	48 83 c0 08          	add    $0x8,%rax
  103090:	8a 0d 43 c3 00 00    	mov    0xc343(%rip),%cl        # 10f3d9 <const3457>
  103096:	88 8d 50 ff ff ff    	mov    %cl,-0xb0(%rbp)
  10309c:	8a 15 38 c3 00 00    	mov    0xc338(%rip),%dl        # 10f3da <const3458>
  1030a2:	88 95 48 ff ff ff    	mov    %dl,-0xb8(%rbp)
  1030a8:	0f b6 f9             	movzbl %cl,%edi
  1030ab:	0f b6 b5 48 ff ff ff 	movzbl -0xb8(%rbp),%esi
  1030b2:	48 89 85 30 ff ff ff 	mov    %rax,-0xd0(%rbp)
  1030b9:	e8 d2 fe ff ff       	callq  102f90 <_ZN55_$LT$rich_os..pic..ICW1$u20$as$u20$core..ops..BitOr$GT$5bitor17hebb9da9540429af7E>
  1030be:	88 85 47 ff ff ff    	mov    %al,-0xb9(%rbp)
  1030c4:	8a 85 47 ff ff ff    	mov    -0xb9(%rbp),%al
  1030ca:	88 45 c8             	mov    %al,-0x38(%rbp)
  1030cd:	48 8b bd 30 ff ff ff 	mov    -0xd0(%rbp),%rdi
  1030d4:	0f b6 75 c8          	movzbl -0x38(%rbp),%esi
  1030d8:	e8 73 fe ff ff       	callq  102f50 <_ZN37_$LT$rich_os..port..Port$LT$T$GT$$GT$5write17h1aa53b25e814758eE>
  1030dd:	48 8d 7d e0          	lea    -0x20(%rbp),%rdi
  1030e1:	e8 ca 0f 00 00       	callq  1040b0 <_ZN7rich_os3pic11ChainedPics10setup_pics28_$u7b$$u7b$closure$u7d$$u7d$17hf39a837232cb1933E>
  1030e6:	be 20 00 00 00       	mov    $0x20,%esi
  1030eb:	48 8b 7d f0          	mov    -0x10(%rbp),%rdi
  1030ef:	e8 5c fe ff ff       	callq  102f50 <_ZN37_$LT$rich_os..port..Port$LT$T$GT$$GT$5write17h1aa53b25e814758eE>
  1030f4:	48 8d 7d e0          	lea    -0x20(%rbp),%rdi
  1030f8:	e8 b3 0f 00 00       	callq  1040b0 <_ZN7rich_os3pic11ChainedPics10setup_pics28_$u7b$$u7b$closure$u7d$$u7d$17hf39a837232cb1933E>
  1030fd:	be 28 00 00 00       	mov    $0x28,%esi
  103102:	48 8b 45 f0          	mov    -0x10(%rbp),%rax
  103106:	48 83 c0 06          	add    $0x6,%rax
  10310a:	48 89 c7             	mov    %rax,%rdi
  10310d:	e8 3e fe ff ff       	callq  102f50 <_ZN37_$LT$rich_os..port..Port$LT$T$GT$$GT$5write17h1aa53b25e814758eE>
  103112:	48 8d 7d e0          	lea    -0x20(%rbp),%rdi
  103116:	e8 95 0f 00 00       	callq  1040b0 <_ZN7rich_os3pic11ChainedPics10setup_pics28_$u7b$$u7b$closure$u7d$$u7d$17hf39a837232cb1933E>
  10311b:	be 04 00 00 00       	mov    $0x4,%esi
  103120:	48 8b 7d f0          	mov    -0x10(%rbp),%rdi
  103124:	e8 27 fe ff ff       	callq  102f50 <_ZN37_$LT$rich_os..port..Port$LT$T$GT$$GT$5write17h1aa53b25e814758eE>
  103129:	48 8d 7d e0          	lea    -0x20(%rbp),%rdi
  10312d:	e8 7e 0f 00 00       	callq  1040b0 <_ZN7rich_os3pic11ChainedPics10setup_pics28_$u7b$$u7b$closure$u7d$$u7d$17hf39a837232cb1933E>
  103132:	be 02 00 00 00       	mov    $0x2,%esi
  103137:	48 8b 45 f0          	mov    -0x10(%rbp),%rax
  10313b:	48 83 c0 06          	add    $0x6,%rax
  10313f:	48 89 c7             	mov    %rax,%rdi
  103142:	e8 09 fe ff ff       	callq  102f50 <_ZN37_$LT$rich_os..port..Port$LT$T$GT$$GT$5write17h1aa53b25e814758eE>
  103147:	48 8d 7d e0          	lea    -0x20(%rbp),%rdi
  10314b:	e8 60 0f 00 00       	callq  1040b0 <_ZN7rich_os3pic11ChainedPics10setup_pics28_$u7b$$u7b$closure$u7d$$u7d$17hf39a837232cb1933E>
  103150:	48 8b 7d f0          	mov    -0x10(%rbp),%rdi
  103154:	8a 05 7f c2 00 00    	mov    0xc27f(%rip),%al        # 10f3d9 <const3457>
  10315a:	88 45 98             	mov    %al,-0x68(%rbp)
  10315d:	0f b6 75 98          	movzbl -0x68(%rbp),%esi
  103161:	e8 ea fd ff ff       	callq  102f50 <_ZN37_$LT$rich_os..port..Port$LT$T$GT$$GT$5write17h1aa53b25e814758eE>
  103166:	48 8d 7d e0          	lea    -0x20(%rbp),%rdi
  10316a:	e8 41 0f 00 00       	callq  1040b0 <_ZN7rich_os3pic11ChainedPics10setup_pics28_$u7b$$u7b$closure$u7d$$u7d$17hf39a837232cb1933E>
  10316f:	48 8b 45 f0          	mov    -0x10(%rbp),%rax
  103173:	48 83 c0 06          	add    $0x6,%rax
  103177:	8a 0d 5c c2 00 00    	mov    0xc25c(%rip),%cl        # 10f3d9 <const3457>
  10317d:	88 4d 88             	mov    %cl,-0x78(%rbp)
  103180:	48 89 c7             	mov    %rax,%rdi
  103183:	0f b6 75 88          	movzbl -0x78(%rbp),%esi
  103187:	e8 c4 fd ff ff       	callq  102f50 <_ZN37_$LT$rich_os..port..Port$LT$T$GT$$GT$5write17h1aa53b25e814758eE>
  10318c:	48 8d 7d e0          	lea    -0x20(%rbp),%rdi
  103190:	e8 1b 0f 00 00       	callq  1040b0 <_ZN7rich_os3pic11ChainedPics10setup_pics28_$u7b$$u7b$closure$u7d$$u7d$17hf39a837232cb1933E>
  103195:	48 8b 7d f0          	mov    -0x10(%rbp),%rdi
  103199:	0f b6 75 df          	movzbl -0x21(%rbp),%esi
  10319d:	e8 ae fd ff ff       	callq  102f50 <_ZN37_$LT$rich_os..port..Port$LT$T$GT$$GT$5write17h1aa53b25e814758eE>
  1031a2:	48 8d 7d e0          	lea    -0x20(%rbp),%rdi
  1031a6:	e8 05 0f 00 00       	callq  1040b0 <_ZN7rich_os3pic11ChainedPics10setup_pics28_$u7b$$u7b$closure$u7d$$u7d$17hf39a837232cb1933E>
  1031ab:	48 8b 45 f0          	mov    -0x10(%rbp),%rax
  1031af:	48 83 c0 06          	add    $0x6,%rax
  1031b3:	48 89 c7             	mov    %rax,%rdi
  1031b6:	0f b6 75 de          	movzbl -0x22(%rbp),%esi
  1031ba:	e8 91 fd ff ff       	callq  102f50 <_ZN37_$LT$rich_os..port..Port$LT$T$GT$$GT$5write17h1aa53b25e814758eE>
  1031bf:	48 8d 7d e0          	lea    -0x20(%rbp),%rdi
  1031c3:	e8 e8 0e 00 00       	callq  1040b0 <_ZN7rich_os3pic11ChainedPics10setup_pics28_$u7b$$u7b$closure$u7d$$u7d$17hf39a837232cb1933E>
  1031c8:	48 81 c4 d0 00 00 00 	add    $0xd0,%rsp
  1031cf:	5d                   	pop    %rbp
  1031d0:	c3                   	retq   
  1031d1:	66 2e 0f 1f 84 00 00 	nopw   %cs:0x0(%rax,%rax,1)
  1031d8:	00 00 00 
  1031db:	0f 1f 44 00 00       	nopl   0x0(%rax,%rax,1)

00000000001031e0 <rust_main>:
  1031e0:	55                   	push   %rbp
  1031e1:	48 89 e5             	mov    %rsp,%rbp
  1031e4:	53                   	push   %rbx
  1031e5:	48 81 ec 78 06 00 00 	sub    $0x678,%rsp
  1031ec:	48 89 7d f0          	mov    %rdi,-0x10(%rbp)
  1031f0:	48 8d 45 c7          	lea    -0x39(%rbp),%rax
  1031f4:	48 8d 0d e0 c1 00 00 	lea    0xc1e0(%rip),%rcx        # 10f3db <byte_str3459>
  1031fb:	48 8b 55 f0          	mov    -0x10(%rbp),%rdx
  1031ff:	48 89 55 e8          	mov    %rdx,-0x18(%rbp)
  103203:	48 89 4d e0          	mov    %rcx,-0x20(%rbp)
  103207:	c6 45 df 1f          	movb   $0x1f,-0x21(%rbp)
  10320b:	40 8a 75 df          	mov    -0x21(%rbp),%sil
  10320f:	48 89 c1             	mov    %rax,%rcx
  103212:	48 83 c1 18          	add    $0x18,%rcx
  103216:	48 89 8d a8 fa ff ff 	mov    %rcx,-0x558(%rbp)
  10321d:	40 88 b5 a7 fa ff ff 	mov    %sil,-0x559(%rbp)
  103224:	48 89 85 98 fa ff ff 	mov    %rax,-0x568(%rbp)
  10322b:	e9 f0 09 00 00       	jmpq   103c20 <rust_main+0xa40>
  103230:	48 8d bd 40 fe ff ff 	lea    -0x1c0(%rbp),%rdi
  103237:	48 8d b5 30 fe ff ff 	lea    -0x1d0(%rbp),%rsi
  10323e:	e8 ed e0 ff ff       	callq  101330 <_ZN4core4iter8iterator8Iterator9enumerate17hfb7c2681ab9a4c93E>
  103243:	48 8d bd 58 fe ff ff 	lea    -0x1a8(%rbp),%rdi
  10324a:	48 8d b5 40 fe ff ff 	lea    -0x1c0(%rbp),%rsi
  103251:	e8 1a ef ff ff       	callq  102170 <_ZN54_$LT$I$u20$as$u20$core..iter..traits..IntoIterator$GT$9into_iter17h14326a507c39824aE>
  103256:	48 8b 85 58 fe ff ff 	mov    -0x1a8(%rbp),%rax
  10325d:	48 89 45 a8          	mov    %rax,-0x58(%rbp)
  103261:	48 8b 85 60 fe ff ff 	mov    -0x1a0(%rbp),%rax
  103268:	48 89 45 b0          	mov    %rax,-0x50(%rbp)
  10326c:	48 8b 85 68 fe ff ff 	mov    -0x198(%rbp),%rax
  103273:	48 89 45 b8          	mov    %rax,-0x48(%rbp)
  103277:	48 8d bd 18 fe ff ff 	lea    -0x1e8(%rbp),%rdi
  10327e:	48 8d 75 a8          	lea    -0x58(%rbp),%rsi
  103282:	e8 49 f2 ff ff       	callq  1024d0 <_ZN81_$LT$core..iter..Enumerate$LT$I$GT$$u20$as$u20$core..iter..iterator..Iterator$GT$4next17h794357da714bce54E>
  103287:	eb 05                	jmp    10328e <rust_main+0xae>
  103289:	e9 ad 00 00 00       	jmpq   10333b <rust_main+0x15b>
  10328e:	48 8b 85 20 fe ff ff 	mov    -0x1e0(%rbp),%rax
  103295:	48 85 c0             	test   %rax,%rax
  103298:	0f 95 c1             	setne  %cl
  10329b:	88 8d 97 fa ff ff    	mov    %cl,-0x569(%rbp)
  1032a1:	75 11                	jne    1032b4 <rust_main+0xd4>
  1032a3:	eb 00                	jmp    1032a5 <rust_main+0xc5>
  1032a5:	8a 85 97 fa ff ff    	mov    -0x569(%rbp),%al
  1032ab:	a8 01                	test   $0x1,%al
  1032ad:	74 da                	je     103289 <rust_main+0xa9>
  1032af:	e9 b7 09 00 00       	jmpq   103c6b <rust_main+0xa8b>
  1032b4:	b8 02 00 00 00       	mov    $0x2,%eax
  1032b9:	89 c1                	mov    %eax,%ecx
  1032bb:	48 8d 55 c7          	lea    -0x39(%rbp),%rdx
  1032bf:	48 8b b5 18 fe ff ff 	mov    -0x1e8(%rbp),%rsi
  1032c6:	48 89 75 a0          	mov    %rsi,-0x60(%rbp)
  1032ca:	48 8b b5 20 fe ff ff 	mov    -0x1e0(%rbp),%rsi
  1032d1:	48 89 75 98          	mov    %rsi,-0x68(%rbp)
  1032d5:	48 8b 75 98          	mov    -0x68(%rbp),%rsi
  1032d9:	40 8a 3e             	mov    (%rsi),%dil
  1032dc:	48 8b 45 a0          	mov    -0x60(%rbp),%rax
  1032e0:	48 89 95 88 fa ff ff 	mov    %rdx,-0x578(%rbp)
  1032e7:	48 f7 e1             	mul    %rcx
  1032ea:	41 0f 90 c0          	seto   %r8b
  1032ee:	41 f6 c0 01          	test   $0x1,%r8b
  1032f2:	40 88 bd 87 fa ff ff 	mov    %dil,-0x579(%rbp)
  1032f9:	48 89 85 78 fa ff ff 	mov    %rax,-0x588(%rbp)
  103300:	0f 85 65 09 00 00    	jne    103c6b <rust_main+0xa8b>
  103306:	b8 18 00 00 00       	mov    $0x18,%eax
  10330b:	89 c6                	mov    %eax,%esi
  10330d:	48 8b bd 88 fa ff ff 	mov    -0x578(%rbp),%rdi
  103314:	48 8b 95 78 fa ff ff 	mov    -0x588(%rbp),%rdx
  10331b:	e8 20 e8 ff ff       	callq  101b40 <_ZN4core5slice74_$LT$impl$u20$core..ops..IndexMut$LT$usize$GT$$u20$for$u20$$u5b$T$u5d$$GT$9index_mut17h84d6f44256c72fd4E>
  103320:	48 89 85 70 fa ff ff 	mov    %rax,-0x590(%rbp)
  103327:	48 8b 85 70 fa ff ff 	mov    -0x590(%rbp),%rax
  10332e:	8a 8d 87 fa ff ff    	mov    -0x579(%rbp),%cl
  103334:	88 08                	mov    %cl,(%rax)
  103336:	e9 3c ff ff ff       	jmpq   103277 <rust_main+0x97>
  10333b:	48 8d bd 78 ff ff ff 	lea    -0x88(%rbp),%rdi
  103342:	48 8d 05 37 bf 00 00 	lea    0xbf37(%rip),%rax        # 10f280 <_ZN7rich_os10vga_buffer6WRITER17h7346cb9e5b3f5e7aE>
  103349:	b9 c4 87 0b 00       	mov    $0xb87c4,%ecx
  10334e:	48 c7 45 90 c4 87 0b 	movq   $0xb87c4,-0x70(%rbp)
  103355:	00 
  103356:	48 8b 55 c7          	mov    -0x39(%rbp),%rdx
  10335a:	48 89 95 f8 fd ff ff 	mov    %rdx,-0x208(%rbp)
  103361:	48 8b 55 cf          	mov    -0x31(%rbp),%rdx
  103365:	48 89 95 00 fe ff ff 	mov    %rdx,-0x200(%rbp)
  10336c:	48 8b 55 d7          	mov    -0x29(%rbp),%rdx
  103370:	48 89 95 08 fe ff ff 	mov    %rdx,-0x1f8(%rbp)
  103377:	48 8b 55 90          	mov    -0x70(%rbp),%rdx
  10337b:	48 8b b5 f8 fd ff ff 	mov    -0x208(%rbp),%rsi
  103382:	48 89 32             	mov    %rsi,(%rdx)
  103385:	48 8b b5 00 fe ff ff 	mov    -0x200(%rbp),%rsi
  10338c:	48 89 72 08          	mov    %rsi,0x8(%rdx)
  103390:	48 8b b5 08 fe ff ff 	mov    -0x1f8(%rbp),%rsi
  103397:	48 89 72 10          	mov    %rsi,0x10(%rdx)
  10339b:	48 89 c6             	mov    %rax,%rsi
  10339e:	89 8d 6c fa ff ff    	mov    %ecx,-0x594(%rbp)
  1033a4:	e8 17 d0 ff ff       	callq  1003c0 <_ZN36_$LT$spin..mutex..Mutex$LT$T$GT$$GT$4lock17hcc1d961b5e07eeebE>
  1033a9:	48 8d bd 78 ff ff ff 	lea    -0x88(%rbp),%rdi
  1033b0:	e8 1b f2 ff ff       	callq  1025d0 <_ZN86_$LT$spin..mutex..MutexGuard$LT$$u27$a$C$$u20$T$GT$$u20$as$u20$core..ops..DerefMut$GT$9deref_mut17h9014bcbc5dcd09afE>
  1033b5:	48 89 85 60 fa ff ff 	mov    %rax,-0x5a0(%rbp)
  1033bc:	48 8d bd 30 fb ff ff 	lea    -0x4d0(%rbp),%rdi
  1033c3:	48 8d 15 06 f0 ff ff 	lea    -0xffa(%rip),%rdx        # 1023d0 <_ZN55_$LT$$RF$$u27$a$u20$T$u20$as$u20$core..fmt..Display$GT$3fmt17hd58574be7c4db377E>
  1033ca:	48 8d 05 8f cc 00 00 	lea    0xcc8f(%rip),%rax        # 110060 <ref3466>
  1033d1:	48 8b 35 c8 ca 00 00 	mov    0xcac8(%rip),%rsi        # 10fea0 <str14787+0x20>
  1033d8:	48 8b 0d c9 ca 00 00 	mov    0xcac9(%rip),%rcx        # 10fea8 <str14787+0x28>
  1033df:	48 89 85 a0 fd ff ff 	mov    %rax,-0x260(%rbp)
  1033e6:	48 8b 85 a0 fd ff ff 	mov    -0x260(%rbp),%rax
  1033ed:	48 89 85 70 ff ff ff 	mov    %rax,-0x90(%rbp)
  1033f4:	48 8b 85 70 ff ff ff 	mov    -0x90(%rbp),%rax
  1033fb:	48 89 b5 58 fa ff ff 	mov    %rsi,-0x5a8(%rbp)
  103402:	48 89 c6             	mov    %rax,%rsi
  103405:	48 89 8d 50 fa ff ff 	mov    %rcx,-0x5b0(%rbp)
  10340c:	e8 9f d8 ff ff       	callq  100cb0 <_ZN4core3fmt10ArgumentV13new17h710935a10de9157aE>
  103411:	48 8b 85 30 fb ff ff 	mov    -0x4d0(%rbp),%rax
  103418:	48 8b 8d 38 fb ff ff 	mov    -0x4c8(%rbp),%rcx
  10341f:	48 89 85 48 fa ff ff 	mov    %rax,-0x5b8(%rbp)
  103426:	48 89 8d 40 fa ff ff 	mov    %rcx,-0x5c0(%rbp)
  10342d:	48 8d bd b8 fd ff ff 	lea    -0x248(%rbp),%rdi
  103434:	b8 01 00 00 00       	mov    $0x1,%eax
  103439:	41 89 c0             	mov    %eax,%r8d
  10343c:	48 8d 8d a8 fd ff ff 	lea    -0x258(%rbp),%rcx
  103443:	48 8b 95 48 fa ff ff 	mov    -0x5b8(%rbp),%rdx
  10344a:	48 89 95 a8 fd ff ff 	mov    %rdx,-0x258(%rbp)
  103451:	48 8b b5 40 fa ff ff 	mov    -0x5c0(%rbp),%rsi
  103458:	48 89 b5 b0 fd ff ff 	mov    %rsi,-0x250(%rbp)
  10345f:	48 8b b5 58 fa ff ff 	mov    -0x5a8(%rbp),%rsi
  103466:	48 8b 95 50 fa ff ff 	mov    -0x5b0(%rbp),%rdx
  10346d:	e8 3e db ff ff       	callq  100fb0 <_ZN4core3fmt9Arguments6new_v117h2ee48eb28c0cff0aE>
  103472:	48 8d b5 b8 fd ff ff 	lea    -0x248(%rbp),%rsi
  103479:	48 8b bd 60 fa ff ff 	mov    -0x5a0(%rbp),%rdi
  103480:	e8 3b da ff ff       	callq  100ec0 <_ZN4core3fmt5Write9write_fmt17h7ffd43ad7946567dE>
  103485:	88 85 2f fb ff ff    	mov    %al,-0x4d1(%rbp)
  10348b:	8a 85 2f fb ff ff    	mov    -0x4d1(%rbp),%al
  103491:	88 85 e8 fd ff ff    	mov    %al,-0x218(%rbp)
  103497:	8a 85 e8 fd ff ff    	mov    -0x218(%rbp),%al
  10349d:	88 85 28 fb ff ff    	mov    %al,-0x4d8(%rbp)
  1034a3:	0f b6 bd 28 fb ff ff 	movzbl -0x4d8(%rbp),%edi
  1034aa:	e8 11 d6 ff ff       	callq  100ac0 <_ZN47_$LT$core..result..Result$LT$T$C$$u20$E$GT$$GT$6unwrap17h6a65383c3a5182fcE>
  1034af:	48 8d bd 78 ff ff ff 	lea    -0x88(%rbp),%rdi
  1034b6:	e8 a5 e8 ff ff       	callq  101d60 <_ZN4drop17h80e900ba5b592571E>
  1034bb:	48 8b 7d e8          	mov    -0x18(%rbp),%rdi
  1034bf:	e8 bc 12 00 00       	callq  104780 <_ZN10multiboot24load17hb2204bdd257de7b7E>
  1034c4:	48 89 85 68 ff ff ff 	mov    %rax,-0x98(%rbp)
  1034cb:	48 8b bd 68 ff ff ff 	mov    -0x98(%rbp),%rdi
  1034d2:	e8 39 13 00 00       	callq  104810 <_ZN10multiboot215BootInformation14memory_map_tag17h2837438976bc3fe0E>
  1034d7:	48 89 85 98 fd ff ff 	mov    %rax,-0x268(%rbp)
  1034de:	48 8d 35 4b bf 00 00 	lea    0xbf4b(%rip),%rsi        # 10f430 <str3467>
  1034e5:	b8 17 00 00 00       	mov    $0x17,%eax
  1034ea:	89 c2                	mov    %eax,%edx
  1034ec:	48 8b bd 98 fd ff ff 	mov    -0x268(%rbp),%rdi
  1034f3:	e8 18 d1 ff ff       	callq  100610 <_ZN38_$LT$core..option..Option$LT$T$GT$$GT$6expect17h3a279f31c26c0a71E>
  1034f8:	48 89 85 60 ff ff ff 	mov    %rax,-0xa0(%rbp)
  1034ff:	48 8d bd 48 ff ff ff 	lea    -0xb8(%rbp),%rdi
  103506:	48 8d 05 73 bd 00 00 	lea    0xbd73(%rip),%rax        # 10f280 <_ZN7rich_os10vga_buffer6WRITER17h7346cb9e5b3f5e7aE>
  10350d:	48 89 c6             	mov    %rax,%rsi
  103510:	e8 ab ce ff ff       	callq  1003c0 <_ZN36_$LT$spin..mutex..Mutex$LT$T$GT$$GT$4lock17hcc1d961b5e07eeebE>
  103515:	48 8d bd 48 ff ff ff 	lea    -0xb8(%rbp),%rdi
  10351c:	e8 af f0 ff ff       	callq  1025d0 <_ZN86_$LT$spin..mutex..MutexGuard$LT$$u27$a$C$$u20$T$GT$$u20$as$u20$core..ops..DerefMut$GT$9deref_mut17h9014bcbc5dcd09afE>
  103521:	48 89 85 38 fa ff ff 	mov    %rax,-0x5c8(%rbp)
  103528:	48 8d bd 58 fd ff ff 	lea    -0x2a8(%rbp),%rdi
  10352f:	48 8d 0d a2 be 00 00 	lea    0xbea2(%rip),%rcx        # 10f3d8 <ref3437>
  103536:	31 c0                	xor    %eax,%eax
  103538:	41 89 c0             	mov    %eax,%r8d
  10353b:	48 8b 35 6e c9 00 00 	mov    0xc96e(%rip),%rsi        # 10feb0 <str14787+0x30>
  103542:	48 8b 15 6f c9 00 00 	mov    0xc96f(%rip),%rdx        # 10feb8 <str14787+0x38>
  103549:	e8 62 da ff ff       	callq  100fb0 <_ZN4core3fmt9Arguments6new_v117h2ee48eb28c0cff0aE>
  10354e:	48 8d b5 58 fd ff ff 	lea    -0x2a8(%rbp),%rsi
  103555:	48 8b bd 38 fa ff ff 	mov    -0x5c8(%rbp),%rdi
  10355c:	e8 5f d9 ff ff       	callq  100ec0 <_ZN4core3fmt5Write9write_fmt17h7ffd43ad7946567dE>
  103561:	88 85 27 fb ff ff    	mov    %al,-0x4d9(%rbp)
  103567:	8a 85 27 fb ff ff    	mov    -0x4d9(%rbp),%al
  10356d:	88 85 88 fd ff ff    	mov    %al,-0x278(%rbp)
  103573:	8a 85 88 fd ff ff    	mov    -0x278(%rbp),%al
  103579:	88 85 20 fb ff ff    	mov    %al,-0x4e0(%rbp)
  10357f:	0f b6 bd 20 fb ff ff 	movzbl -0x4e0(%rbp),%edi
  103586:	e8 35 d5 ff ff       	callq  100ac0 <_ZN47_$LT$core..result..Result$LT$T$C$$u20$E$GT$$GT$6unwrap17h6a65383c3a5182fcE>
  10358b:	48 8d bd 48 ff ff ff 	lea    -0xb8(%rbp),%rdi
  103592:	e8 c9 e7 ff ff       	callq  101d60 <_ZN4drop17h80e900ba5b592571E>
  103597:	48 8d bd 20 fd ff ff 	lea    -0x2e0(%rbp),%rdi
  10359e:	48 8b b5 60 ff ff ff 	mov    -0xa0(%rbp),%rsi
  1035a5:	e8 86 10 00 00       	callq  104630 <_ZN10multiboot210memory_map12MemoryMapTag12memory_areas17hcebd930c093b8d74E>
  1035aa:	48 8d bd 38 fd ff ff 	lea    -0x2c8(%rbp),%rdi
  1035b1:	48 8d b5 20 fd ff ff 	lea    -0x2e0(%rbp),%rsi
  1035b8:	e8 43 ec ff ff       	callq  102200 <_ZN54_$LT$I$u20$as$u20$core..iter..traits..IntoIterator$GT$9into_iter17h53db3a2c15f917efE>
  1035bd:	48 8b 85 38 fd ff ff 	mov    -0x2c8(%rbp),%rax
  1035c4:	48 89 85 28 ff ff ff 	mov    %rax,-0xd8(%rbp)
  1035cb:	48 8b 85 40 fd ff ff 	mov    -0x2c0(%rbp),%rax
  1035d2:	48 89 85 30 ff ff ff 	mov    %rax,-0xd0(%rbp)
  1035d9:	48 8b 85 48 fd ff ff 	mov    -0x2b8(%rbp),%rax
  1035e0:	48 89 85 38 ff ff ff 	mov    %rax,-0xc8(%rbp)
  1035e7:	48 8d bd 28 ff ff ff 	lea    -0xd8(%rbp),%rdi
  1035ee:	e8 ed 10 00 00       	callq  1046e0 <_ZN89_$LT$multiboot2..memory_map..MemoryAreaIter$u20$as$u20$core..iter..iterator..Iterator$GT$4next17h96af31255da8f73aE>
  1035f3:	48 89 85 18 fd ff ff 	mov    %rax,-0x2e8(%rbp)
  1035fa:	eb 18                	jmp    103614 <rust_main+0x434>
  1035fc:	48 8b bd 68 ff ff ff 	mov    -0x98(%rbp),%rdi
  103603:	e8 c8 11 00 00       	callq  1047d0 <_ZN10multiboot215BootInformation16elf_sections_tag17hc47944b5275e2493E>
  103608:	48 89 85 a0 fc ff ff 	mov    %rax,-0x360(%rbp)
  10360f:	e9 d3 01 00 00       	jmpq   1037e7 <rust_main+0x607>
  103614:	48 8b 85 18 fd ff ff 	mov    -0x2e8(%rbp),%rax
  10361b:	48 85 c0             	test   %rax,%rax
  10361e:	0f 95 c1             	setne  %cl
  103621:	88 8d 37 fa ff ff    	mov    %cl,-0x5c9(%rbp)
  103627:	75 11                	jne    10363a <rust_main+0x45a>
  103629:	eb 00                	jmp    10362b <rust_main+0x44b>
  10362b:	8a 85 37 fa ff ff    	mov    -0x5c9(%rbp),%al
  103631:	a8 01                	test   $0x1,%al
  103633:	74 c7                	je     1035fc <rust_main+0x41c>
  103635:	e9 31 06 00 00       	jmpq   103c6b <rust_main+0xa8b>
  10363a:	48 8d bd 08 ff ff ff 	lea    -0xf8(%rbp),%rdi
  103641:	48 8d 05 38 bc 00 00 	lea    0xbc38(%rip),%rax        # 10f280 <_ZN7rich_os10vga_buffer6WRITER17h7346cb9e5b3f5e7aE>
  103648:	48 8b 8d 18 fd ff ff 	mov    -0x2e8(%rbp),%rcx
  10364f:	48 89 8d 20 ff ff ff 	mov    %rcx,-0xe0(%rbp)
  103656:	48 89 c6             	mov    %rax,%rsi
  103659:	e8 62 cd ff ff       	callq  1003c0 <_ZN36_$LT$spin..mutex..Mutex$LT$T$GT$$GT$4lock17hcc1d961b5e07eeebE>
  10365e:	48 8d bd 08 ff ff ff 	lea    -0xf8(%rbp),%rdi
  103665:	e8 66 ef ff ff       	callq  1025d0 <_ZN86_$LT$spin..mutex..MutexGuard$LT$$u27$a$C$$u20$T$GT$$u20$as$u20$core..ops..DerefMut$GT$9deref_mut17h9014bcbc5dcd09afE>
  10366a:	48 89 85 28 fa ff ff 	mov    %rax,-0x5d8(%rbp)
  103671:	48 8d bd 10 fb ff ff 	lea    -0x4f0(%rbp),%rdi
  103678:	48 8d 15 61 6a 00 00 	lea    0x6a61(%rip),%rdx        # 10a0e0 <_ZN4core3fmt3num53_$LT$impl$u20$core..fmt..LowerHex$u20$for$u20$u64$GT$3fmt17h071989fe5a582119E>
  10367f:	48 8b 35 3a c8 00 00 	mov    0xc83a(%rip),%rsi        # 10fec0 <str14787+0x40>
  103686:	48 8b 05 3b c8 00 00 	mov    0xc83b(%rip),%rax        # 10fec8 <str14787+0x48>
  10368d:	48 8b 8d 20 ff ff ff 	mov    -0xe0(%rbp),%rcx
  103694:	4c 8b 85 20 ff ff ff 	mov    -0xe0(%rbp),%r8
  10369b:	49 83 c0 08          	add    $0x8,%r8
  10369f:	48 89 8d a8 fc ff ff 	mov    %rcx,-0x358(%rbp)
  1036a6:	4c 89 85 b0 fc ff ff 	mov    %r8,-0x350(%rbp)
  1036ad:	48 8b 8d a8 fc ff ff 	mov    -0x358(%rbp),%rcx
  1036b4:	48 89 8d 00 ff ff ff 	mov    %rcx,-0x100(%rbp)
  1036bb:	48 8b 8d b0 fc ff ff 	mov    -0x350(%rbp),%rcx
  1036c2:	48 89 8d f8 fe ff ff 	mov    %rcx,-0x108(%rbp)
  1036c9:	48 8b 8d 00 ff ff ff 	mov    -0x100(%rbp),%rcx
  1036d0:	48 89 b5 20 fa ff ff 	mov    %rsi,-0x5e0(%rbp)
  1036d7:	48 89 ce             	mov    %rcx,%rsi
  1036da:	48 89 85 18 fa ff ff 	mov    %rax,-0x5e8(%rbp)
  1036e1:	e8 5a d5 ff ff       	callq  100c40 <_ZN4core3fmt10ArgumentV13new17h5896756d47a52523E>
  1036e6:	48 8b 85 10 fb ff ff 	mov    -0x4f0(%rbp),%rax
  1036ed:	48 8b 8d 18 fb ff ff 	mov    -0x4e8(%rbp),%rcx
  1036f4:	48 89 85 10 fa ff ff 	mov    %rax,-0x5f0(%rbp)
  1036fb:	48 89 8d 08 fa ff ff 	mov    %rcx,-0x5f8(%rbp)
  103702:	48 8d bd 00 fb ff ff 	lea    -0x500(%rbp),%rdi
  103709:	48 8d 15 d0 69 00 00 	lea    0x69d0(%rip),%rdx        # 10a0e0 <_ZN4core3fmt3num53_$LT$impl$u20$core..fmt..LowerHex$u20$for$u20$u64$GT$3fmt17h071989fe5a582119E>
  103710:	48 8b b5 f8 fe ff ff 	mov    -0x108(%rbp),%rsi
  103717:	e8 24 d5 ff ff       	callq  100c40 <_ZN4core3fmt10ArgumentV13new17h5896756d47a52523E>
  10371c:	48 8b 95 00 fb ff ff 	mov    -0x500(%rbp),%rdx
  103723:	48 8b b5 08 fb ff ff 	mov    -0x4f8(%rbp),%rsi
  10372a:	48 89 95 00 fa ff ff 	mov    %rdx,-0x600(%rbp)
  103731:	48 89 b5 f8 f9 ff ff 	mov    %rsi,-0x608(%rbp)
  103738:	48 8d bd d8 fc ff ff 	lea    -0x328(%rbp),%rdi
  10373f:	b8 02 00 00 00       	mov    $0x2,%eax
  103744:	41 89 c0             	mov    %eax,%r8d
  103747:	48 8d 8d b8 fc ff ff 	lea    -0x348(%rbp),%rcx
  10374e:	48 8b 95 10 fa ff ff 	mov    -0x5f0(%rbp),%rdx
  103755:	48 89 95 b8 fc ff ff 	mov    %rdx,-0x348(%rbp)
  10375c:	48 8b b5 08 fa ff ff 	mov    -0x5f8(%rbp),%rsi
  103763:	48 89 b5 c0 fc ff ff 	mov    %rsi,-0x340(%rbp)
  10376a:	4c 8b 8d 00 fa ff ff 	mov    -0x600(%rbp),%r9
  103771:	4c 89 8d c8 fc ff ff 	mov    %r9,-0x338(%rbp)
  103778:	4c 8b 95 f8 f9 ff ff 	mov    -0x608(%rbp),%r10
  10377f:	4c 89 95 d0 fc ff ff 	mov    %r10,-0x330(%rbp)
  103786:	48 8b b5 20 fa ff ff 	mov    -0x5e0(%rbp),%rsi
  10378d:	48 8b 95 18 fa ff ff 	mov    -0x5e8(%rbp),%rdx
  103794:	e8 17 d8 ff ff       	callq  100fb0 <_ZN4core3fmt9Arguments6new_v117h2ee48eb28c0cff0aE>
  103799:	48 8d b5 d8 fc ff ff 	lea    -0x328(%rbp),%rsi
  1037a0:	48 8b bd 28 fa ff ff 	mov    -0x5d8(%rbp),%rdi
  1037a7:	e8 14 d7 ff ff       	callq  100ec0 <_ZN4core3fmt5Write9write_fmt17h7ffd43ad7946567dE>
  1037ac:	88 85 ff fa ff ff    	mov    %al,-0x501(%rbp)
  1037b2:	8a 85 ff fa ff ff    	mov    -0x501(%rbp),%al
  1037b8:	88 85 08 fd ff ff    	mov    %al,-0x2f8(%rbp)
  1037be:	8a 85 08 fd ff ff    	mov    -0x2f8(%rbp),%al
  1037c4:	88 85 f8 fa ff ff    	mov    %al,-0x508(%rbp)
  1037ca:	0f b6 bd f8 fa ff ff 	movzbl -0x508(%rbp),%edi
  1037d1:	e8 ea d2 ff ff       	callq  100ac0 <_ZN47_$LT$core..result..Result$LT$T$C$$u20$E$GT$$GT$6unwrap17h6a65383c3a5182fcE>
  1037d6:	48 8d bd 08 ff ff ff 	lea    -0xf8(%rbp),%rdi
  1037dd:	e8 7e e5 ff ff       	callq  101d60 <_ZN4drop17h80e900ba5b592571E>
  1037e2:	e9 00 fe ff ff       	jmpq   1035e7 <rust_main+0x407>
  1037e7:	48 8d 35 62 bc 00 00 	lea    0xbc62(%rip),%rsi        # 10f450 <str3470>
  1037ee:	b8 19 00 00 00       	mov    $0x19,%eax
  1037f3:	89 c2                	mov    %eax,%edx
  1037f5:	48 8b bd a0 fc ff ff 	mov    -0x360(%rbp),%rdi
  1037fc:	e8 9f ce ff ff       	callq  1006a0 <_ZN38_$LT$core..option..Option$LT$T$GT$$GT$6expect17hc59c0f205e0f0dedE>
  103801:	48 89 85 f0 fe ff ff 	mov    %rax,-0x110(%rbp)
  103808:	48 8d bd d8 fe ff ff 	lea    -0x128(%rbp),%rdi
  10380f:	48 8d 05 6a ba 00 00 	lea    0xba6a(%rip),%rax        # 10f280 <_ZN7rich_os10vga_buffer6WRITER17h7346cb9e5b3f5e7aE>
  103816:	48 89 c6             	mov    %rax,%rsi
  103819:	e8 a2 cb ff ff       	callq  1003c0 <_ZN36_$LT$spin..mutex..Mutex$LT$T$GT$$GT$4lock17hcc1d961b5e07eeebE>
  10381e:	48 8d bd d8 fe ff ff 	lea    -0x128(%rbp),%rdi
  103825:	e8 a6 ed ff ff       	callq  1025d0 <_ZN86_$LT$spin..mutex..MutexGuard$LT$$u27$a$C$$u20$T$GT$$u20$as$u20$core..ops..DerefMut$GT$9deref_mut17h9014bcbc5dcd09afE>
  10382a:	48 89 85 f0 f9 ff ff 	mov    %rax,-0x610(%rbp)
  103831:	48 8d bd 60 fc ff ff 	lea    -0x3a0(%rbp),%rdi
  103838:	48 8d 0d 99 bb 00 00 	lea    0xbb99(%rip),%rcx        # 10f3d8 <ref3437>
  10383f:	31 c0                	xor    %eax,%eax
  103841:	41 89 c0             	mov    %eax,%r8d
  103844:	48 8b 35 85 c6 00 00 	mov    0xc685(%rip),%rsi        # 10fed0 <str14787+0x50>
  10384b:	48 8b 15 86 c6 00 00 	mov    0xc686(%rip),%rdx        # 10fed8 <str14787+0x58>
  103852:	e8 59 d7 ff ff       	callq  100fb0 <_ZN4core3fmt9Arguments6new_v117h2ee48eb28c0cff0aE>
  103857:	48 8d b5 60 fc ff ff 	lea    -0x3a0(%rbp),%rsi
  10385e:	48 8b bd f0 f9 ff ff 	mov    -0x610(%rbp),%rdi
  103865:	e8 56 d6 ff ff       	callq  100ec0 <_ZN4core3fmt5Write9write_fmt17h7ffd43ad7946567dE>
  10386a:	88 85 f7 fa ff ff    	mov    %al,-0x509(%rbp)
  103870:	8a 85 f7 fa ff ff    	mov    -0x509(%rbp),%al
  103876:	88 85 90 fc ff ff    	mov    %al,-0x370(%rbp)
  10387c:	8a 85 90 fc ff ff    	mov    -0x370(%rbp),%al
  103882:	88 85 f0 fa ff ff    	mov    %al,-0x510(%rbp)
  103888:	0f b6 bd f0 fa ff ff 	movzbl -0x510(%rbp),%edi
  10388f:	e8 2c d2 ff ff       	callq  100ac0 <_ZN47_$LT$core..result..Result$LT$T$C$$u20$E$GT$$GT$6unwrap17h6a65383c3a5182fcE>
  103894:	48 8d bd d8 fe ff ff 	lea    -0x128(%rbp),%rdi
  10389b:	e8 c0 e4 ff ff       	callq  101d60 <_ZN4drop17h80e900ba5b592571E>
  1038a0:	48 8d bd 38 fc ff ff 	lea    -0x3c8(%rbp),%rdi
  1038a7:	48 8b b5 f0 fe ff ff 	mov    -0x110(%rbp),%rsi
  1038ae:	e8 2d 0c 00 00       	callq  1044e0 <_ZN10multiboot212elf_sections14ElfSectionsTag8sections17hbcc9d2a3917016beE>
  1038b3:	48 8d bd 48 fc ff ff 	lea    -0x3b8(%rbp),%rdi
  1038ba:	48 8d b5 38 fc ff ff 	lea    -0x3c8(%rbp),%rsi
  1038c1:	e8 9a ea ff ff       	callq  102360 <_ZN54_$LT$I$u20$as$u20$core..iter..traits..IntoIterator$GT$9into_iter17h9696a253119527c4E>
  1038c6:	48 8b 85 48 fc ff ff 	mov    -0x3b8(%rbp),%rax
  1038cd:	48 89 85 c0 fe ff ff 	mov    %rax,-0x140(%rbp)
  1038d4:	48 8b 85 50 fc ff ff 	mov    -0x3b0(%rbp),%rax
  1038db:	48 89 85 c8 fe ff ff 	mov    %rax,-0x138(%rbp)
  1038e2:	48 8d bd c0 fe ff ff 	lea    -0x140(%rbp),%rdi
  1038e9:	e8 72 0c 00 00       	callq  104560 <_ZN91_$LT$multiboot2..elf_sections..ElfSectionIter$u20$as$u20$core..iter..iterator..Iterator$GT$4next17h31b5efa28e26b5fbE>
  1038ee:	48 89 85 30 fc ff ff 	mov    %rax,-0x3d0(%rbp)
  1038f5:	eb 1b                	jmp    103912 <rust_main+0x732>
  1038f7:	48 8d bd 88 fb ff ff 	lea    -0x478(%rbp),%rdi
  1038fe:	48 8d 05 9b b9 00 00 	lea    0xb99b(%rip),%rax        # 10f2a0 <_ZN7rich_os3pic4PICS17hd05b5166bba24775E>
  103905:	48 89 c6             	mov    %rax,%rsi
  103908:	e8 43 ca ff ff       	callq  100350 <_ZN36_$LT$spin..mutex..Mutex$LT$T$GT$$GT$4lock17h03f1204486b499d4E>
  10390d:	e9 49 02 00 00       	jmpq   103b5b <rust_main+0x97b>
  103912:	48 8b 85 30 fc ff ff 	mov    -0x3d0(%rbp),%rax
  103919:	48 85 c0             	test   %rax,%rax
  10391c:	0f 95 c1             	setne  %cl
  10391f:	88 8d ef f9 ff ff    	mov    %cl,-0x611(%rbp)
  103925:	75 11                	jne    103938 <rust_main+0x758>
  103927:	eb 00                	jmp    103929 <rust_main+0x749>
  103929:	8a 85 ef f9 ff ff    	mov    -0x611(%rbp),%al
  10392f:	a8 01                	test   $0x1,%al
  103931:	74 c4                	je     1038f7 <rust_main+0x717>
  103933:	e9 33 03 00 00       	jmpq   103c6b <rust_main+0xa8b>
  103938:	48 8d bd a0 fe ff ff 	lea    -0x160(%rbp),%rdi
  10393f:	48 8d 05 3a b9 00 00 	lea    0xb93a(%rip),%rax        # 10f280 <_ZN7rich_os10vga_buffer6WRITER17h7346cb9e5b3f5e7aE>
  103946:	48 8b 8d 30 fc ff ff 	mov    -0x3d0(%rbp),%rcx
  10394d:	48 89 8d b8 fe ff ff 	mov    %rcx,-0x148(%rbp)
  103954:	48 89 c6             	mov    %rax,%rsi
  103957:	e8 64 ca ff ff       	callq  1003c0 <_ZN36_$LT$spin..mutex..Mutex$LT$T$GT$$GT$4lock17hcc1d961b5e07eeebE>
  10395c:	48 8d bd a0 fe ff ff 	lea    -0x160(%rbp),%rdi
  103963:	e8 68 ec ff ff       	callq  1025d0 <_ZN86_$LT$spin..mutex..MutexGuard$LT$$u27$a$C$$u20$T$GT$$u20$as$u20$core..ops..DerefMut$GT$9deref_mut17h9014bcbc5dcd09afE>
  103968:	48 89 85 e0 f9 ff ff 	mov    %rax,-0x620(%rbp)
  10396f:	48 8d bd e0 fa ff ff 	lea    -0x520(%rbp),%rdi
  103976:	48 8d 15 63 67 00 00 	lea    0x6763(%rip),%rdx        # 10a0e0 <_ZN4core3fmt3num53_$LT$impl$u20$core..fmt..LowerHex$u20$for$u20$u64$GT$3fmt17h071989fe5a582119E>
  10397d:	48 8b 35 5c c5 00 00 	mov    0xc55c(%rip),%rsi        # 10fee0 <str14787+0x60>
  103984:	48 8b 05 5d c5 00 00 	mov    0xc55d(%rip),%rax        # 10fee8 <str14787+0x68>
  10398b:	48 8b 8d b8 fe ff ff 	mov    -0x148(%rbp),%rcx
  103992:	48 83 c1 10          	add    $0x10,%rcx
  103996:	4c 8b 85 b8 fe ff ff 	mov    -0x148(%rbp),%r8
  10399d:	49 83 c0 20          	add    $0x20,%r8
  1039a1:	4c 8b 8d b8 fe ff ff 	mov    -0x148(%rbp),%r9
  1039a8:	49 83 c1 08          	add    $0x8,%r9
  1039ac:	48 89 8d a8 fb ff ff 	mov    %rcx,-0x458(%rbp)
  1039b3:	4c 89 85 b0 fb ff ff 	mov    %r8,-0x450(%rbp)
  1039ba:	4c 89 8d b8 fb ff ff 	mov    %r9,-0x448(%rbp)
  1039c1:	48 8b 8d a8 fb ff ff 	mov    -0x458(%rbp),%rcx
  1039c8:	48 89 8d 98 fe ff ff 	mov    %rcx,-0x168(%rbp)
  1039cf:	48 8b 8d b0 fb ff ff 	mov    -0x450(%rbp),%rcx
  1039d6:	48 89 8d 90 fe ff ff 	mov    %rcx,-0x170(%rbp)
  1039dd:	48 8b 8d b8 fb ff ff 	mov    -0x448(%rbp),%rcx
  1039e4:	48 89 8d 88 fe ff ff 	mov    %rcx,-0x178(%rbp)
  1039eb:	48 8b 8d 98 fe ff ff 	mov    -0x168(%rbp),%rcx
  1039f2:	48 89 b5 d8 f9 ff ff 	mov    %rsi,-0x628(%rbp)
  1039f9:	48 89 ce             	mov    %rcx,%rsi
  1039fc:	48 89 85 d0 f9 ff ff 	mov    %rax,-0x630(%rbp)
  103a03:	e8 38 d2 ff ff       	callq  100c40 <_ZN4core3fmt10ArgumentV13new17h5896756d47a52523E>
  103a08:	48 8b 85 e0 fa ff ff 	mov    -0x520(%rbp),%rax
  103a0f:	48 8b 8d e8 fa ff ff 	mov    -0x518(%rbp),%rcx
  103a16:	48 89 85 c8 f9 ff ff 	mov    %rax,-0x638(%rbp)
  103a1d:	48 89 8d c0 f9 ff ff 	mov    %rcx,-0x640(%rbp)
  103a24:	48 8d bd d0 fa ff ff 	lea    -0x530(%rbp),%rdi
  103a2b:	48 8d 15 ae 66 00 00 	lea    0x66ae(%rip),%rdx        # 10a0e0 <_ZN4core3fmt3num53_$LT$impl$u20$core..fmt..LowerHex$u20$for$u20$u64$GT$3fmt17h071989fe5a582119E>
  103a32:	48 8b b5 90 fe ff ff 	mov    -0x170(%rbp),%rsi
  103a39:	e8 02 d2 ff ff       	callq  100c40 <_ZN4core3fmt10ArgumentV13new17h5896756d47a52523E>
  103a3e:	48 8b 95 d0 fa ff ff 	mov    -0x530(%rbp),%rdx
  103a45:	48 8b b5 d8 fa ff ff 	mov    -0x528(%rbp),%rsi
  103a4c:	48 89 95 b8 f9 ff ff 	mov    %rdx,-0x648(%rbp)
  103a53:	48 89 b5 b0 f9 ff ff 	mov    %rsi,-0x650(%rbp)
  103a5a:	48 8d bd c0 fa ff ff 	lea    -0x540(%rbp),%rdi
  103a61:	48 8d 15 78 66 00 00 	lea    0x6678(%rip),%rdx        # 10a0e0 <_ZN4core3fmt3num53_$LT$impl$u20$core..fmt..LowerHex$u20$for$u20$u64$GT$3fmt17h071989fe5a582119E>
  103a68:	48 8b b5 88 fe ff ff 	mov    -0x178(%rbp),%rsi
  103a6f:	e8 cc d1 ff ff       	callq  100c40 <_ZN4core3fmt10ArgumentV13new17h5896756d47a52523E>
  103a74:	48 8b 95 c0 fa ff ff 	mov    -0x540(%rbp),%rdx
  103a7b:	48 8b b5 c8 fa ff ff 	mov    -0x538(%rbp),%rsi
  103a82:	48 89 95 a8 f9 ff ff 	mov    %rdx,-0x658(%rbp)
  103a89:	48 89 b5 a0 f9 ff ff 	mov    %rsi,-0x660(%rbp)
  103a90:	48 8d bd f0 fb ff ff 	lea    -0x410(%rbp),%rdi
  103a97:	b8 03 00 00 00       	mov    $0x3,%eax
  103a9c:	41 89 c0             	mov    %eax,%r8d
  103a9f:	48 8d 8d c0 fb ff ff 	lea    -0x440(%rbp),%rcx
  103aa6:	48 8b 95 c8 f9 ff ff 	mov    -0x638(%rbp),%rdx
  103aad:	48 89 95 c0 fb ff ff 	mov    %rdx,-0x440(%rbp)
  103ab4:	48 8b b5 c0 f9 ff ff 	mov    -0x640(%rbp),%rsi
  103abb:	48 89 b5 c8 fb ff ff 	mov    %rsi,-0x438(%rbp)
  103ac2:	4c 8b 8d b8 f9 ff ff 	mov    -0x648(%rbp),%r9
  103ac9:	4c 89 8d d0 fb ff ff 	mov    %r9,-0x430(%rbp)
  103ad0:	4c 8b 95 b0 f9 ff ff 	mov    -0x650(%rbp),%r10
  103ad7:	4c 89 95 d8 fb ff ff 	mov    %r10,-0x428(%rbp)
  103ade:	4c 8b 9d a8 f9 ff ff 	mov    -0x658(%rbp),%r11
  103ae5:	4c 89 9d e0 fb ff ff 	mov    %r11,-0x420(%rbp)
  103aec:	48 8b 9d a0 f9 ff ff 	mov    -0x660(%rbp),%rbx
  103af3:	48 89 9d e8 fb ff ff 	mov    %rbx,-0x418(%rbp)
  103afa:	48 8b b5 d8 f9 ff ff 	mov    -0x628(%rbp),%rsi
  103b01:	48 8b 95 d0 f9 ff ff 	mov    -0x630(%rbp),%rdx
  103b08:	e8 a3 d4 ff ff       	callq  100fb0 <_ZN4core3fmt9Arguments6new_v117h2ee48eb28c0cff0aE>
  103b0d:	48 8d b5 f0 fb ff ff 	lea    -0x410(%rbp),%rsi
  103b14:	48 8b bd e0 f9 ff ff 	mov    -0x620(%rbp),%rdi
  103b1b:	e8 a0 d3 ff ff       	callq  100ec0 <_ZN4core3fmt5Write9write_fmt17h7ffd43ad7946567dE>
  103b20:	88 85 bf fa ff ff    	mov    %al,-0x541(%rbp)
  103b26:	8a 85 bf fa ff ff    	mov    -0x541(%rbp),%al
  103b2c:	88 85 20 fc ff ff    	mov    %al,-0x3e0(%rbp)
  103b32:	8a 85 20 fc ff ff    	mov    -0x3e0(%rbp),%al
  103b38:	88 85 b8 fa ff ff    	mov    %al,-0x548(%rbp)
  103b3e:	0f b6 bd b8 fa ff ff 	movzbl -0x548(%rbp),%edi
  103b45:	e8 76 cf ff ff       	callq  100ac0 <_ZN47_$LT$core..result..Result$LT$T$C$$u20$E$GT$$GT$6unwrap17h6a65383c3a5182fcE>
  103b4a:	48 8d bd a0 fe ff ff 	lea    -0x160(%rbp),%rdi
  103b51:	e8 0a e2 ff ff       	callq  101d60 <_ZN4drop17h80e900ba5b592571E>
  103b56:	e9 87 fd ff ff       	jmpq   1038e2 <rust_main+0x702>
  103b5b:	48 8d bd 88 fb ff ff 	lea    -0x478(%rbp),%rdi
  103b62:	e8 99 ea ff ff       	callq  102600 <_ZN86_$LT$spin..mutex..MutexGuard$LT$$u27$a$C$$u20$T$GT$$u20$as$u20$core..ops..DerefMut$GT$9deref_mut17hf8b70cff835405b4E>
  103b67:	48 89 85 98 f9 ff ff 	mov    %rax,-0x668(%rbp)
  103b6e:	48 8b bd 98 f9 ff ff 	mov    -0x668(%rbp),%rdi
  103b75:	e8 56 f4 ff ff       	callq  102fd0 <_ZN7rich_os3pic11ChainedPics10setup_pics17h67a089e3a1255af8E>
  103b7a:	48 8d bd 88 fb ff ff 	lea    -0x478(%rbp),%rdi
  103b81:	e8 8a e1 ff ff       	callq  101d10 <_ZN4drop17h0da496a0673bac19E>
  103b86:	48 8d bd 70 fe ff ff 	lea    -0x190(%rbp),%rdi
  103b8d:	48 8d 05 ec b6 00 00 	lea    0xb6ec(%rip),%rax        # 10f280 <_ZN7rich_os10vga_buffer6WRITER17h7346cb9e5b3f5e7aE>
  103b94:	48 89 c6             	mov    %rax,%rsi
  103b97:	e8 24 c8 ff ff       	callq  1003c0 <_ZN36_$LT$spin..mutex..Mutex$LT$T$GT$$GT$4lock17hcc1d961b5e07eeebE>
  103b9c:	48 8d bd 70 fe ff ff 	lea    -0x190(%rbp),%rdi
  103ba3:	e8 28 ea ff ff       	callq  1025d0 <_ZN86_$LT$spin..mutex..MutexGuard$LT$$u27$a$C$$u20$T$GT$$u20$as$u20$core..ops..DerefMut$GT$9deref_mut17h9014bcbc5dcd09afE>
  103ba8:	48 89 85 90 f9 ff ff 	mov    %rax,-0x670(%rbp)
  103baf:	48 8d bd 48 fb ff ff 	lea    -0x4b8(%rbp),%rdi
  103bb6:	48 8d 0d 1b b8 00 00 	lea    0xb81b(%rip),%rcx        # 10f3d8 <ref3437>
  103bbd:	31 c0                	xor    %eax,%eax
  103bbf:	41 89 c0             	mov    %eax,%r8d
  103bc2:	48 8b 35 27 c3 00 00 	mov    0xc327(%rip),%rsi        # 10fef0 <str14787+0x70>
  103bc9:	48 8b 15 28 c3 00 00 	mov    0xc328(%rip),%rdx        # 10fef8 <str14787+0x78>
  103bd0:	e8 db d3 ff ff       	callq  100fb0 <_ZN4core3fmt9Arguments6new_v117h2ee48eb28c0cff0aE>
  103bd5:	48 8d b5 48 fb ff ff 	lea    -0x4b8(%rbp),%rsi
  103bdc:	48 8b bd 90 f9 ff ff 	mov    -0x670(%rbp),%rdi
  103be3:	e8 d8 d2 ff ff       	callq  100ec0 <_ZN4core3fmt5Write9write_fmt17h7ffd43ad7946567dE>
  103be8:	88 85 b7 fa ff ff    	mov    %al,-0x549(%rbp)
  103bee:	8a 85 b7 fa ff ff    	mov    -0x549(%rbp),%al
  103bf4:	88 85 78 fb ff ff    	mov    %al,-0x488(%rbp)
  103bfa:	8a 85 78 fb ff ff    	mov    -0x488(%rbp),%al
  103c00:	88 85 b0 fa ff ff    	mov    %al,-0x550(%rbp)
  103c06:	0f b6 bd b0 fa ff ff 	movzbl -0x550(%rbp),%edi
  103c0d:	e8 ae ce ff ff       	callq  100ac0 <_ZN47_$LT$core..result..Result$LT$T$C$$u20$E$GT$$GT$6unwrap17h6a65383c3a5182fcE>
  103c12:	48 8d bd 70 fe ff ff 	lea    -0x190(%rbp),%rdi
  103c19:	e8 42 e1 ff ff       	callq  101d60 <_ZN4drop17h80e900ba5b592571E>
  103c1e:	eb fe                	jmp    103c1e <rust_main+0xa3e>
  103c20:	48 8b 85 98 fa ff ff 	mov    -0x568(%rbp),%rax
  103c27:	48 8b 8d a8 fa ff ff 	mov    -0x558(%rbp),%rcx
  103c2e:	48 39 c8             	cmp    %rcx,%rax
  103c31:	48 89 85 88 f9 ff ff 	mov    %rax,-0x678(%rbp)
  103c38:	73 1c                	jae    103c56 <rust_main+0xa76>
  103c3a:	48 8b 85 88 f9 ff ff 	mov    -0x678(%rbp),%rax
  103c41:	8a 8d a7 fa ff ff    	mov    -0x559(%rbp),%cl
  103c47:	88 08                	mov    %cl,(%rax)
  103c49:	48 83 c0 01          	add    $0x1,%rax
  103c4d:	48 89 85 98 fa ff ff 	mov    %rax,-0x568(%rbp)
  103c54:	eb ca                	jmp    103c20 <rust_main+0xa40>
  103c56:	48 8d bd 30 fe ff ff 	lea    -0x1d0(%rbp),%rdi
  103c5d:	48 8b 75 e0          	mov    -0x20(%rbp),%rsi
  103c61:	e8 0a de ff ff       	callq  101a70 <_ZN4core5array101_$LT$impl$u20$core..iter..traits..IntoIterator$u20$for$u20$$RF$$u27$a$u20$$u5b$T$u3b$$u20$12$u5d$$GT$9into_iter17h6a043505b75b6b34E>
  103c66:	e9 c5 f5 ff ff       	jmpq   103230 <rust_main+0x50>
  103c6b:	48 8d 3d c6 c3 00 00 	lea    0xc3c6(%rip),%rdi        # 110038 <panic_loc3464>
  103c72:	e8 19 18 00 00       	callq  105490 <_ZN4core9panicking5panic17h585bd70cda921012E>
  103c77:	66 0f 1f 84 00 00 00 	nopw   0x0(%rax,%rax,1)
  103c7e:	00 00 

0000000000103c80 <rust_begin_unwind>:
  103c80:	55                   	push   %rbp
  103c81:	48 89 e5             	mov    %rsp,%rbp
  103c84:	48 81 ec 70 02 00 00 	sub    $0x270,%rsp
  103c8b:	48 8d 45 10          	lea    0x10(%rbp),%rax
  103c8f:	b9 30 00 00 00       	mov    $0x30,%ecx
  103c94:	41 89 c8             	mov    %ecx,%r8d
  103c97:	4c 8d 4d d0          	lea    -0x30(%rbp),%r9
  103c9b:	48 89 bd 10 fe ff ff 	mov    %rdi,-0x1f0(%rbp)
  103ca2:	4c 89 cf             	mov    %r9,%rdi
  103ca5:	48 89 b5 08 fe ff ff 	mov    %rsi,-0x1f8(%rbp)
  103cac:	48 89 c6             	mov    %rax,%rsi
  103caf:	89 95 04 fe ff ff    	mov    %edx,-0x1fc(%rbp)
  103cb5:	4c 89 c2             	mov    %r8,%rdx
  103cb8:	e8 93 04 00 00       	callq  104150 <memcpy>
  103cbd:	48 8b 85 10 fe ff ff 	mov    -0x1f0(%rbp),%rax
  103cc4:	48 89 45 c0          	mov    %rax,-0x40(%rbp)
  103cc8:	48 8b 95 08 fe ff ff 	mov    -0x1f8(%rbp),%rdx
  103ccf:	48 89 55 c8          	mov    %rdx,-0x38(%rbp)
  103cd3:	8b 8d 04 fe ff ff    	mov    -0x1fc(%rbp),%ecx
  103cd9:	89 4d bc             	mov    %ecx,-0x44(%rbp)
  103cdc:	48 8d bd 58 ff ff ff 	lea    -0xa8(%rbp),%rdi
  103ce3:	48 8d 05 96 b5 00 00 	lea    0xb596(%rip),%rax        # 10f280 <_ZN7rich_os10vga_buffer6WRITER17h7346cb9e5b3f5e7aE>
  103cea:	b9 30 00 00 00       	mov    $0x30,%ecx
  103cef:	89 ca                	mov    %ecx,%edx
  103cf1:	48 8d 75 88          	lea    -0x78(%rbp),%rsi
  103cf5:	4c 8d 45 d0          	lea    -0x30(%rbp),%r8
  103cf9:	48 89 bd f8 fd ff ff 	mov    %rdi,-0x208(%rbp)
  103d00:	48 89 f7             	mov    %rsi,%rdi
  103d03:	4c 89 c6             	mov    %r8,%rsi
  103d06:	48 89 85 f0 fd ff ff 	mov    %rax,-0x210(%rbp)
  103d0d:	e8 3e 04 00 00       	callq  104150 <memcpy>
  103d12:	48 8b 45 c0          	mov    -0x40(%rbp),%rax
  103d16:	48 8b 55 c8          	mov    -0x38(%rbp),%rdx
  103d1a:	48 89 85 78 ff ff ff 	mov    %rax,-0x88(%rbp)
  103d21:	48 89 55 80          	mov    %rdx,-0x80(%rbp)
  103d25:	8b 4d bc             	mov    -0x44(%rbp),%ecx
  103d28:	89 8d 74 ff ff ff    	mov    %ecx,-0x8c(%rbp)
  103d2e:	48 8b bd f8 fd ff ff 	mov    -0x208(%rbp),%rdi
  103d35:	48 8b b5 f0 fd ff ff 	mov    -0x210(%rbp),%rsi
  103d3c:	e8 7f c6 ff ff       	callq  1003c0 <_ZN36_$LT$spin..mutex..Mutex$LT$T$GT$$GT$4lock17hcc1d961b5e07eeebE>
  103d41:	48 8d bd 58 ff ff ff 	lea    -0xa8(%rbp),%rdi
  103d48:	e8 83 e8 ff ff       	callq  1025d0 <_ZN86_$LT$spin..mutex..MutexGuard$LT$$u27$a$C$$u20$T$GT$$u20$as$u20$core..ops..DerefMut$GT$9deref_mut17h9014bcbc5dcd09afE>
  103d4d:	48 89 85 e8 fd ff ff 	mov    %rax,-0x218(%rbp)
  103d54:	48 8d bd 48 fe ff ff 	lea    -0x1b8(%rbp),%rdi
  103d5b:	48 8d 15 6e e6 ff ff 	lea    -0x1992(%rip),%rdx        # 1023d0 <_ZN55_$LT$$RF$$u27$a$u20$T$u20$as$u20$core..fmt..Display$GT$3fmt17hd58574be7c4db377E>
  103d62:	48 8d 85 74 ff ff ff 	lea    -0x8c(%rbp),%rax
  103d69:	48 8d 8d 78 ff ff ff 	lea    -0x88(%rbp),%rcx
  103d70:	48 8b 35 89 c1 00 00 	mov    0xc189(%rip),%rsi        # 10ff00 <str14787+0x80>
  103d77:	4c 8b 05 8a c1 00 00 	mov    0xc18a(%rip),%r8        # 10ff08 <str14787+0x88>
  103d7e:	48 89 8d b0 fe ff ff 	mov    %rcx,-0x150(%rbp)
  103d85:	48 89 85 b8 fe ff ff 	mov    %rax,-0x148(%rbp)
  103d8c:	48 8b 85 b0 fe ff ff 	mov    -0x150(%rbp),%rax
  103d93:	48 89 85 50 ff ff ff 	mov    %rax,-0xb0(%rbp)
  103d9a:	48 8b 85 b8 fe ff ff 	mov    -0x148(%rbp),%rax
  103da1:	48 89 85 48 ff ff ff 	mov    %rax,-0xb8(%rbp)
  103da8:	48 8b 85 50 ff ff ff 	mov    -0xb0(%rbp),%rax
  103daf:	48 89 b5 e0 fd ff ff 	mov    %rsi,-0x220(%rbp)
  103db6:	48 89 c6             	mov    %rax,%rsi
  103db9:	4c 89 85 d8 fd ff ff 	mov    %r8,-0x228(%rbp)
  103dc0:	e8 eb ce ff ff       	callq  100cb0 <_ZN4core3fmt10ArgumentV13new17h710935a10de9157aE>
  103dc5:	48 8b 85 48 fe ff ff 	mov    -0x1b8(%rbp),%rax
  103dcc:	48 8b 8d 50 fe ff ff 	mov    -0x1b0(%rbp),%rcx
  103dd3:	48 89 85 d0 fd ff ff 	mov    %rax,-0x230(%rbp)
  103dda:	48 89 8d c8 fd ff ff 	mov    %rcx,-0x238(%rbp)
  103de1:	48 8d bd 38 fe ff ff 	lea    -0x1c8(%rbp),%rdi
  103de8:	48 8d 15 d1 69 00 00 	lea    0x69d1(%rip),%rdx        # 10a7c0 <_ZN4core3fmt3num52_$LT$impl$u20$core..fmt..Display$u20$for$u20$u32$GT$3fmt17hba040a675ed7e801E>
  103def:	48 8b b5 48 ff ff ff 	mov    -0xb8(%rbp),%rsi
  103df6:	e8 25 cf ff ff       	callq  100d20 <_ZN4core3fmt10ArgumentV13new17ha44b0589c3ad86f4E>
  103dfb:	48 8b 95 38 fe ff ff 	mov    -0x1c8(%rbp),%rdx
  103e02:	48 8b b5 40 fe ff ff 	mov    -0x1c0(%rbp),%rsi
  103e09:	48 89 95 c0 fd ff ff 	mov    %rdx,-0x240(%rbp)
  103e10:	48 89 b5 b8 fd ff ff 	mov    %rsi,-0x248(%rbp)
  103e17:	48 8d bd e0 fe ff ff 	lea    -0x120(%rbp),%rdi
  103e1e:	b8 02 00 00 00       	mov    $0x2,%eax
  103e23:	41 89 c0             	mov    %eax,%r8d
  103e26:	48 8d 8d c0 fe ff ff 	lea    -0x140(%rbp),%rcx
  103e2d:	48 8b 95 d0 fd ff ff 	mov    -0x230(%rbp),%rdx
  103e34:	48 89 95 c0 fe ff ff 	mov    %rdx,-0x140(%rbp)
  103e3b:	48 8b b5 c8 fd ff ff 	mov    -0x238(%rbp),%rsi
  103e42:	48 89 b5 c8 fe ff ff 	mov    %rsi,-0x138(%rbp)
  103e49:	4c 8b 8d c0 fd ff ff 	mov    -0x240(%rbp),%r9
  103e50:	4c 89 8d d0 fe ff ff 	mov    %r9,-0x130(%rbp)
  103e57:	4c 8b 95 b8 fd ff ff 	mov    -0x248(%rbp),%r10
  103e5e:	4c 89 95 d8 fe ff ff 	mov    %r10,-0x128(%rbp)
  103e65:	48 8b b5 e0 fd ff ff 	mov    -0x220(%rbp),%rsi
  103e6c:	48 8b 95 d8 fd ff ff 	mov    -0x228(%rbp),%rdx
  103e73:	e8 38 d1 ff ff       	callq  100fb0 <_ZN4core3fmt9Arguments6new_v117h2ee48eb28c0cff0aE>
  103e78:	48 8d b5 e0 fe ff ff 	lea    -0x120(%rbp),%rsi
  103e7f:	48 8b bd e8 fd ff ff 	mov    -0x218(%rbp),%rdi
  103e86:	e8 35 d0 ff ff       	callq  100ec0 <_ZN4core3fmt5Write9write_fmt17h7ffd43ad7946567dE>
  103e8b:	88 85 37 fe ff ff    	mov    %al,-0x1c9(%rbp)
  103e91:	8a 85 37 fe ff ff    	mov    -0x1c9(%rbp),%al
  103e97:	88 85 10 ff ff ff    	mov    %al,-0xf0(%rbp)
  103e9d:	8a 85 10 ff ff ff    	mov    -0xf0(%rbp),%al
  103ea3:	88 85 30 fe ff ff    	mov    %al,-0x1d0(%rbp)
  103ea9:	0f b6 bd 30 fe ff ff 	movzbl -0x1d0(%rbp),%edi
  103eb0:	e8 0b cc ff ff       	callq  100ac0 <_ZN47_$LT$core..result..Result$LT$T$C$$u20$E$GT$$GT$6unwrap17h6a65383c3a5182fcE>
  103eb5:	48 8d bd 58 ff ff ff 	lea    -0xa8(%rbp),%rdi
  103ebc:	e8 9f de ff ff       	callq  101d60 <_ZN4drop17h80e900ba5b592571E>
  103ec1:	48 8d bd 30 ff ff ff 	lea    -0xd0(%rbp),%rdi
  103ec8:	48 8d 05 b1 b3 00 00 	lea    0xb3b1(%rip),%rax        # 10f280 <_ZN7rich_os10vga_buffer6WRITER17h7346cb9e5b3f5e7aE>
  103ecf:	48 89 c6             	mov    %rax,%rsi
  103ed2:	e8 e9 c4 ff ff       	callq  1003c0 <_ZN36_$LT$spin..mutex..Mutex$LT$T$GT$$GT$4lock17hcc1d961b5e07eeebE>
  103ed7:	48 8d bd 30 ff ff ff 	lea    -0xd0(%rbp),%rdi
  103ede:	e8 ed e6 ff ff       	callq  1025d0 <_ZN86_$LT$spin..mutex..MutexGuard$LT$$u27$a$C$$u20$T$GT$$u20$as$u20$core..ops..DerefMut$GT$9deref_mut17h9014bcbc5dcd09afE>
  103ee3:	48 89 85 b0 fd ff ff 	mov    %rax,-0x250(%rbp)
  103eea:	48 8d bd 20 fe ff ff 	lea    -0x1e0(%rbp),%rdi
  103ef1:	48 8d 15 c8 81 00 00 	lea    0x81c8(%rip),%rdx        # 10c0c0 <_ZN73_$LT$core..fmt..Arguments$LT$$u27$a$GT$$u20$as$u20$core..fmt..Display$GT$3fmt17h4158d1739e290565E>
  103ef8:	48 8d 45 88          	lea    -0x78(%rbp),%rax
  103efc:	48 8b 35 0d c0 00 00 	mov    0xc00d(%rip),%rsi        # 10ff10 <str14787+0x90>
  103f03:	48 8b 0d 0e c0 00 00 	mov    0xc00e(%rip),%rcx        # 10ff18 <str14787+0x98>
  103f0a:	48 89 85 58 fe ff ff 	mov    %rax,-0x1a8(%rbp)
  103f11:	48 8b 85 58 fe ff ff 	mov    -0x1a8(%rbp),%rax
  103f18:	48 89 85 28 ff ff ff 	mov    %rax,-0xd8(%rbp)
  103f1f:	48 8b 85 28 ff ff ff 	mov    -0xd8(%rbp),%rax
  103f26:	48 89 b5 a8 fd ff ff 	mov    %rsi,-0x258(%rbp)
  103f2d:	48 89 c6             	mov    %rax,%rsi
  103f30:	48 89 8d a0 fd ff ff 	mov    %rcx,-0x260(%rbp)
  103f37:	e8 54 ce ff ff       	callq  100d90 <_ZN4core3fmt10ArgumentV13new17hb135dd234f17800cE>
  103f3c:	48 8b 85 20 fe ff ff 	mov    -0x1e0(%rbp),%rax
  103f43:	48 8b 8d 28 fe ff ff 	mov    -0x1d8(%rbp),%rcx
  103f4a:	48 89 85 98 fd ff ff 	mov    %rax,-0x268(%rbp)
  103f51:	48 89 8d 90 fd ff ff 	mov    %rcx,-0x270(%rbp)
  103f58:	48 8d bd 70 fe ff ff 	lea    -0x190(%rbp),%rdi
  103f5f:	b8 01 00 00 00       	mov    $0x1,%eax
  103f64:	41 89 c0             	mov    %eax,%r8d
  103f67:	48 8d 8d 60 fe ff ff 	lea    -0x1a0(%rbp),%rcx
  103f6e:	48 8b 95 98 fd ff ff 	mov    -0x268(%rbp),%rdx
  103f75:	48 89 95 60 fe ff ff 	mov    %rdx,-0x1a0(%rbp)
  103f7c:	48 8b b5 90 fd ff ff 	mov    -0x270(%rbp),%rsi
  103f83:	48 89 b5 68 fe ff ff 	mov    %rsi,-0x198(%rbp)
  103f8a:	48 8b b5 a8 fd ff ff 	mov    -0x258(%rbp),%rsi
  103f91:	48 8b 95 a0 fd ff ff 	mov    -0x260(%rbp),%rdx
  103f98:	e8 13 d0 ff ff       	callq  100fb0 <_ZN4core3fmt9Arguments6new_v117h2ee48eb28c0cff0aE>
  103f9d:	48 8d b5 70 fe ff ff 	lea    -0x190(%rbp),%rsi
  103fa4:	48 8b bd b0 fd ff ff 	mov    -0x250(%rbp),%rdi
  103fab:	e8 10 cf ff ff       	callq  100ec0 <_ZN4core3fmt5Write9write_fmt17h7ffd43ad7946567dE>
  103fb0:	88 85 1f fe ff ff    	mov    %al,-0x1e1(%rbp)
  103fb6:	8a 85 1f fe ff ff    	mov    -0x1e1(%rbp),%al
  103fbc:	88 85 a0 fe ff ff    	mov    %al,-0x160(%rbp)
  103fc2:	8a 85 a0 fe ff ff    	mov    -0x160(%rbp),%al
  103fc8:	88 85 18 fe ff ff    	mov    %al,-0x1e8(%rbp)
  103fce:	0f b6 bd 18 fe ff ff 	movzbl -0x1e8(%rbp),%edi
  103fd5:	e8 e6 ca ff ff       	callq  100ac0 <_ZN47_$LT$core..result..Result$LT$T$C$$u20$E$GT$$GT$6unwrap17h6a65383c3a5182fcE>
  103fda:	48 8d bd 30 ff ff ff 	lea    -0xd0(%rbp),%rdi
  103fe1:	e8 7a dd ff ff       	callq  101d60 <_ZN4drop17h80e900ba5b592571E>
  103fe6:	eb fe                	jmp    103fe6 <rust_begin_unwind+0x366>
  103fe8:	0f 1f 84 00 00 00 00 	nopl   0x0(%rax,%rax,1)
  103fef:	00 

0000000000103ff0 <_ZN81_$LT$core..iter..Enumerate$LT$I$GT$$u20$as$u20$core..iter..iterator..Iterator$GT$4next28_$u7b$$u7b$closure$u7d$$u7d$17h92081411776c22caE>:
  103ff0:	55                   	push   %rbp
  103ff1:	48 89 e5             	mov    %rsp,%rbp
  103ff4:	48 83 ec 40          	sub    $0x40,%rsp
  103ff8:	48 89 f8             	mov    %rdi,%rax
  103ffb:	48 89 75 f0          	mov    %rsi,-0x10(%rbp)
  103fff:	48 8b 75 f0          	mov    -0x10(%rbp),%rsi
  104003:	48 89 75 f8          	mov    %rsi,-0x8(%rbp)
  104007:	48 89 45 d8          	mov    %rax,-0x28(%rbp)
  10400b:	48 89 55 d0          	mov    %rdx,-0x30(%rbp)
  10400f:	48 89 7d c8          	mov    %rdi,-0x38(%rbp)
  104013:	48 8b 45 f8          	mov    -0x8(%rbp),%rax
  104017:	48 8b 00             	mov    (%rax),%rax
  10401a:	48 8b 40 10          	mov    0x10(%rax),%rax
  10401e:	48 89 45 e0          	mov    %rax,-0x20(%rbp)
  104022:	48 8b 45 d0          	mov    -0x30(%rbp),%rax
  104026:	48 89 45 e8          	mov    %rax,-0x18(%rbp)
  10402a:	48 8b 45 f8          	mov    -0x8(%rbp),%rax
  10402e:	48 8b 00             	mov    (%rax),%rax
  104031:	48 8b 40 10          	mov    0x10(%rax),%rax
  104035:	48 83 c0 01          	add    $0x1,%rax
  104039:	0f 92 c1             	setb   %cl
  10403c:	f6 c1 01             	test   $0x1,%cl
  10403f:	48 89 45 c0          	mov    %rax,-0x40(%rbp)
  104043:	75 2c                	jne    104071 <_ZN81_$LT$core..iter..Enumerate$LT$I$GT$$u20$as$u20$core..iter..iterator..Iterator$GT$4next28_$u7b$$u7b$closure$u7d$$u7d$17h92081411776c22caE+0x81>
  104045:	48 8b 45 f8          	mov    -0x8(%rbp),%rax
  104049:	48 8b 00             	mov    (%rax),%rax
  10404c:	48 8b 4d c0          	mov    -0x40(%rbp),%rcx
  104050:	48 89 48 10          	mov    %rcx,0x10(%rax)
  104054:	48 8b 45 e0          	mov    -0x20(%rbp),%rax
  104058:	48 8b 55 e8          	mov    -0x18(%rbp),%rdx
  10405c:	48 8b 75 c8          	mov    -0x38(%rbp),%rsi
  104060:	48 89 06             	mov    %rax,(%rsi)
  104063:	48 89 56 08          	mov    %rdx,0x8(%rsi)
  104067:	48 8b 45 d8          	mov    -0x28(%rbp),%rax
  10406b:	48 83 c4 40          	add    $0x40,%rsp
  10406f:	5d                   	pop    %rbp
  104070:	c3                   	retq   
  104071:	48 8d 3d 00 bf 00 00 	lea    0xbf00(%rip),%rdi        # 10ff78 <panic_loc3429>
  104078:	e8 13 14 00 00       	callq  105490 <_ZN4core9panicking5panic17h585bd70cda921012E>
  10407d:	0f 1f 00             	nopl   (%rax)

0000000000104080 <_ZN53_$LT$core..option..Option$LT$$RF$$u27$a$u20$T$GT$$GT$6cloned28_$u7b$$u7b$closure$u7d$$u7d$17h2956de0948f04beeE>:
  104080:	55                   	push   %rbp
  104081:	48 89 e5             	mov    %rsp,%rbp
  104084:	48 83 ec 20          	sub    $0x20,%rsp
  104088:	48 89 7d f0          	mov    %rdi,-0x10(%rbp)
  10408c:	48 8b 7d f0          	mov    -0x10(%rbp),%rdi
  104090:	e8 fb c7 ff ff       	callq  100890 <_ZN41_$LT$u8$u20$as$u20$core..clone..Clone$GT$5clone17h6751b84c5ec0546dE>
  104095:	88 45 ef             	mov    %al,-0x11(%rbp)
  104098:	8a 45 ef             	mov    -0x11(%rbp),%al
  10409b:	48 83 c4 20          	add    $0x20,%rsp
  10409f:	5d                   	pop    %rbp
  1040a0:	c3                   	retq   
  1040a1:	66 2e 0f 1f 84 00 00 	nopw   %cs:0x0(%rax,%rax,1)
  1040a8:	00 00 00 
  1040ab:	0f 1f 44 00 00       	nopl   0x0(%rax,%rax,1)

00000000001040b0 <_ZN7rich_os3pic11ChainedPics10setup_pics28_$u7b$$u7b$closure$u7d$$u7d$17hf39a837232cb1933E>:
  1040b0:	55                   	push   %rbp
  1040b1:	48 89 e5             	mov    %rsp,%rbp
  1040b4:	48 83 ec 10          	sub    $0x10,%rsp
  1040b8:	48 89 7d f8          	mov    %rdi,-0x8(%rbp)
  1040bc:	31 f6                	xor    %esi,%esi
  1040be:	48 8b 45 f8          	mov    -0x8(%rbp),%rax
  1040c2:	48 8b 38             	mov    (%rax),%rdi
  1040c5:	e8 86 ee ff ff       	callq  102f50 <_ZN37_$LT$rich_os..port..Port$LT$T$GT$$GT$5write17h1aa53b25e814758eE>
  1040ca:	48 83 c4 10          	add    $0x10,%rsp
  1040ce:	5d                   	pop    %rbp
  1040cf:	c3                   	retq   

00000000001040d0 <_ZN4core3ptr31_$LT$impl$u20$$BP$mut$u20$T$GT$6offset17hd699195ba756a29fE>:
  1040d0:	55                   	push   %rbp
  1040d1:	48 89 e5             	mov    %rsp,%rbp
  1040d4:	48 83 ec 38          	sub    $0x38,%rsp
  1040d8:	48 89 7d f0          	mov    %rdi,-0x10(%rbp)
  1040dc:	48 89 75 e8          	mov    %rsi,-0x18(%rbp)
  1040e0:	48 8b 45 f0          	mov    -0x10(%rbp),%rax
  1040e4:	48 89 45 e0          	mov    %rax,-0x20(%rbp)
  1040e8:	48 8b 45 e8          	mov    -0x18(%rbp),%rax
  1040ec:	48 89 45 d8          	mov    %rax,-0x28(%rbp)
  1040f0:	48 8b 45 e0          	mov    -0x20(%rbp),%rax
  1040f4:	48 03 45 d8          	add    -0x28(%rbp),%rax
  1040f8:	48 89 45 d0          	mov    %rax,-0x30(%rbp)
  1040fc:	48 8b 45 d0          	mov    -0x30(%rbp),%rax
  104100:	48 89 45 c8          	mov    %rax,-0x38(%rbp)
  104104:	48 8b 45 c8          	mov    -0x38(%rbp),%rax
  104108:	48 83 c4 38          	add    $0x38,%rsp
  10410c:	5d                   	pop    %rbp
  10410d:	c3                   	retq   
  10410e:	66 90                	xchg   %ax,%ax

0000000000104110 <_ZN4core3ptr33_$LT$impl$u20$$BP$const$u20$T$GT$6offset17h0d62b7cbced53ff4E>:
  104110:	55                   	push   %rbp
  104111:	48 89 e5             	mov    %rsp,%rbp
  104114:	48 83 ec 38          	sub    $0x38,%rsp
  104118:	48 89 7d f0          	mov    %rdi,-0x10(%rbp)
  10411c:	48 89 75 e8          	mov    %rsi,-0x18(%rbp)
  104120:	48 8b 45 f0          	mov    -0x10(%rbp),%rax
  104124:	48 89 45 e0          	mov    %rax,-0x20(%rbp)
  104128:	48 8b 45 e8          	mov    -0x18(%rbp),%rax
  10412c:	48 89 45 d8          	mov    %rax,-0x28(%rbp)
  104130:	48 8b 45 e0          	mov    -0x20(%rbp),%rax
  104134:	48 03 45 d8          	add    -0x28(%rbp),%rax
  104138:	48 89 45 d0          	mov    %rax,-0x30(%rbp)
  10413c:	48 8b 45 d0          	mov    -0x30(%rbp),%rax
  104140:	48 89 45 c8          	mov    %rax,-0x38(%rbp)
  104144:	48 8b 45 c8          	mov    -0x38(%rbp),%rax
  104148:	48 83 c4 38          	add    $0x38,%rsp
  10414c:	5d                   	pop    %rbp
  10414d:	c3                   	retq   
  10414e:	66 90                	xchg   %ax,%ax

0000000000104150 <memcpy>:
  104150:	55                   	push   %rbp
  104151:	48 89 e5             	mov    %rsp,%rbp
  104154:	48 83 ec 70          	sub    $0x70,%rsp
  104158:	48 89 7d f0          	mov    %rdi,-0x10(%rbp)
  10415c:	48 89 75 e8          	mov    %rsi,-0x18(%rbp)
  104160:	48 89 55 e0          	mov    %rdx,-0x20(%rbp)
  104164:	48 8b 45 f0          	mov    -0x10(%rbp),%rax
  104168:	48 89 45 d8          	mov    %rax,-0x28(%rbp)
  10416c:	48 8b 45 e8          	mov    -0x18(%rbp),%rax
  104170:	48 89 45 d0          	mov    %rax,-0x30(%rbp)
  104174:	48 8b 45 e0          	mov    -0x20(%rbp),%rax
  104178:	48 89 45 c8          	mov    %rax,-0x38(%rbp)
  10417c:	48 c7 45 c0 00 00 00 	movq   $0x0,-0x40(%rbp)
  104183:	00 
  104184:	48 8b 45 c0          	mov    -0x40(%rbp),%rax
  104188:	48 3b 45 c8          	cmp    -0x38(%rbp),%rax
  10418c:	72 0a                	jb     104198 <memcpy+0x48>
  10418e:	48 8b 45 c0          	mov    -0x40(%rbp),%rax
  104192:	48 83 c4 70          	add    $0x70,%rsp
  104196:	5d                   	pop    %rbp
  104197:	c3                   	retq   
  104198:	48 8b 7d d0          	mov    -0x30(%rbp),%rdi
  10419c:	48 8b 75 c0          	mov    -0x40(%rbp),%rsi
  1041a0:	e8 6b ff ff ff       	callq  104110 <_ZN4core3ptr33_$LT$impl$u20$$BP$const$u20$T$GT$6offset17h0d62b7cbced53ff4E>
  1041a5:	48 89 45 a8          	mov    %rax,-0x58(%rbp)
  1041a9:	48 8b 45 a8          	mov    -0x58(%rbp),%rax
  1041ad:	8a 08                	mov    (%rax),%cl
  1041af:	48 8b 7d d8          	mov    -0x28(%rbp),%rdi
  1041b3:	48 8b 75 c0          	mov    -0x40(%rbp),%rsi
  1041b7:	88 4d a7             	mov    %cl,-0x59(%rbp)
  1041ba:	e8 11 ff ff ff       	callq  1040d0 <_ZN4core3ptr31_$LT$impl$u20$$BP$mut$u20$T$GT$6offset17hd699195ba756a29fE>
  1041bf:	48 89 45 98          	mov    %rax,-0x68(%rbp)
  1041c3:	48 8b 45 98          	mov    -0x68(%rbp),%rax
  1041c7:	8a 4d a7             	mov    -0x59(%rbp),%cl
  1041ca:	88 08                	mov    %cl,(%rax)
  1041cc:	48 8b 55 c0          	mov    -0x40(%rbp),%rdx
  1041d0:	48 83 c2 01          	add    $0x1,%rdx
  1041d4:	40 0f 92 c6          	setb   %sil
  1041d8:	40 f6 c6 01          	test   $0x1,%sil
  1041dc:	48 89 55 90          	mov    %rdx,-0x70(%rbp)
  1041e0:	75 0a                	jne    1041ec <memcpy+0x9c>
  1041e2:	48 8b 45 90          	mov    -0x70(%rbp),%rax
  1041e6:	48 89 45 c0          	mov    %rax,-0x40(%rbp)
  1041ea:	eb 98                	jmp    104184 <memcpy+0x34>
  1041ec:	48 8d 3d 8d bf 00 00 	lea    0xbf8d(%rip),%rdi        # 110180 <panic_loc2098>
  1041f3:	e8 98 12 00 00       	callq  105490 <_ZN4core9panicking5panic17h585bd70cda921012E>
  1041f8:	0f 1f 84 00 00 00 00 	nopl   0x0(%rax,%rax,1)
  1041ff:	00 

0000000000104200 <_ZN38_$LT$core..option..Option$LT$T$GT$$GT$3map17h6df50b684d384c68E>:
  104200:	55                   	push   %rbp
  104201:	48 89 e5             	mov    %rsp,%rbp
  104204:	48 83 ec 60          	sub    $0x60,%rsp
  104208:	48 89 7d f0          	mov    %rdi,-0x10(%rbp)
  10420c:	c6 45 c7 00          	movb   $0x0,-0x39(%rbp)
  104210:	c6 45 c6 00          	movb   $0x0,-0x3a(%rbp)
  104214:	c6 45 c6 01          	movb   $0x1,-0x3a(%rbp)
  104218:	48 8b 45 f0          	mov    -0x10(%rbp),%rax
  10421c:	48 89 45 e0          	mov    %rax,-0x20(%rbp)
  104220:	c6 45 c7 01          	movb   $0x1,-0x39(%rbp)
  104224:	48 8b 45 e0          	mov    -0x20(%rbp),%rax
  104228:	48 85 c0             	test   %rax,%rax
  10422b:	0f 95 c1             	setne  %cl
  10422e:	88 4d b7             	mov    %cl,-0x49(%rbp)
  104231:	75 17                	jne    10424a <_ZN38_$LT$core..option..Option$LT$T$GT$$GT$3map17h6df50b684d384c68E+0x4a>
  104233:	eb 00                	jmp    104235 <_ZN38_$LT$core..option..Option$LT$T$GT$$GT$3map17h6df50b684d384c68E+0x35>
  104235:	8a 45 b7             	mov    -0x49(%rbp),%al
  104238:	f6 d0                	not    %al
  10423a:	a8 01                	test   $0x1,%al
  10423c:	74 7a                	je     1042b8 <_ZN38_$LT$core..option..Option$LT$T$GT$$GT$3map17h6df50b684d384c68E+0xb8>
  10423e:	eb 00                	jmp    104240 <_ZN38_$LT$core..option..Option$LT$T$GT$$GT$3map17h6df50b684d384c68E+0x40>
  104240:	48 c7 45 b8 00 00 00 	movq   $0x0,-0x48(%rbp)
  104247:	00 
  104248:	eb 3e                	jmp    104288 <_ZN38_$LT$core..option..Option$LT$T$GT$$GT$3map17h6df50b684d384c68E+0x88>
  10424a:	c6 45 c6 00          	movb   $0x0,-0x3a(%rbp)
  10424e:	48 8b 45 e0          	mov    -0x20(%rbp),%rax
  104252:	48 89 45 d0          	mov    %rax,-0x30(%rbp)
  104256:	c6 45 c7 00          	movb   $0x0,-0x39(%rbp)
  10425a:	48 8b 45 d0          	mov    -0x30(%rbp),%rax
  10425e:	48 89 45 c8          	mov    %rax,-0x38(%rbp)
  104262:	48 89 c7             	mov    %rax,%rdi
  104265:	e8 26 08 00 00       	callq  104a90 <_ZN10multiboot215BootInformation16elf_sections_tag28_$u7b$$u7b$closure$u7d$$u7d$17ha25f2ae5f682eddcE>
  10426a:	48 89 45 a8          	mov    %rax,-0x58(%rbp)
  10426e:	48 8b 45 a8          	mov    -0x58(%rbp),%rax
  104272:	48 89 45 b8          	mov    %rax,-0x48(%rbp)
  104276:	eb 10                	jmp    104288 <_ZN38_$LT$core..option..Option$LT$T$GT$$GT$3map17h6df50b684d384c68E+0x88>
  104278:	48 8b 45 b8          	mov    -0x48(%rbp),%rax
  10427c:	48 83 c4 60          	add    $0x60,%rsp
  104280:	5d                   	pop    %rbp
  104281:	c3                   	retq   
  104282:	c6 45 c7 00          	movb   $0x0,-0x39(%rbp)
  104286:	eb 16                	jmp    10429e <_ZN38_$LT$core..option..Option$LT$T$GT$$GT$3map17h6df50b684d384c68E+0x9e>
  104288:	f6 45 c7 01          	testb  $0x1,-0x39(%rbp)
  10428c:	75 f4                	jne    104282 <_ZN38_$LT$core..option..Option$LT$T$GT$$GT$3map17h6df50b684d384c68E+0x82>
  10428e:	eb 0e                	jmp    10429e <_ZN38_$LT$core..option..Option$LT$T$GT$$GT$3map17h6df50b684d384c68E+0x9e>
  104290:	eb e6                	jmp    104278 <_ZN38_$LT$core..option..Option$LT$T$GT$$GT$3map17h6df50b684d384c68E+0x78>
  104292:	f6 45 c6 01          	testb  $0x1,-0x3a(%rbp)
  104296:	74 e0                	je     104278 <_ZN38_$LT$core..option..Option$LT$T$GT$$GT$3map17h6df50b684d384c68E+0x78>
  104298:	c6 45 c6 00          	movb   $0x0,-0x3a(%rbp)
  10429c:	eb da                	jmp    104278 <_ZN38_$LT$core..option..Option$LT$T$GT$$GT$3map17h6df50b684d384c68E+0x78>
  10429e:	48 8b 45 e0          	mov    -0x20(%rbp),%rax
  1042a2:	48 85 c0             	test   %rax,%rax
  1042a5:	0f 95 c1             	setne  %cl
  1042a8:	88 4d a7             	mov    %cl,-0x59(%rbp)
  1042ab:	75 e5                	jne    104292 <_ZN38_$LT$core..option..Option$LT$T$GT$$GT$3map17h6df50b684d384c68E+0x92>
  1042ad:	eb 00                	jmp    1042af <_ZN38_$LT$core..option..Option$LT$T$GT$$GT$3map17h6df50b684d384c68E+0xaf>
  1042af:	8a 45 a7             	mov    -0x59(%rbp),%al
  1042b2:	a8 01                	test   $0x1,%al
  1042b4:	74 da                	je     104290 <_ZN38_$LT$core..option..Option$LT$T$GT$$GT$3map17h6df50b684d384c68E+0x90>
  1042b6:	eb 00                	jmp    1042b8 <_ZN38_$LT$core..option..Option$LT$T$GT$$GT$3map17h6df50b684d384c68E+0xb8>
  1042b8:	0f 1f 84 00 00 00 00 	nopl   0x0(%rax,%rax,1)
  1042bf:	00 

00000000001042c0 <_ZN38_$LT$core..option..Option$LT$T$GT$$GT$3map17hb145e9313117dfd2E>:
  1042c0:	55                   	push   %rbp
  1042c1:	48 89 e5             	mov    %rsp,%rbp
  1042c4:	48 83 ec 60          	sub    $0x60,%rsp
  1042c8:	48 89 7d f0          	mov    %rdi,-0x10(%rbp)
  1042cc:	c6 45 c7 00          	movb   $0x0,-0x39(%rbp)
  1042d0:	c6 45 c6 00          	movb   $0x0,-0x3a(%rbp)
  1042d4:	c6 45 c6 01          	movb   $0x1,-0x3a(%rbp)
  1042d8:	48 8b 45 f0          	mov    -0x10(%rbp),%rax
  1042dc:	48 89 45 e0          	mov    %rax,-0x20(%rbp)
  1042e0:	c6 45 c7 01          	movb   $0x1,-0x39(%rbp)
  1042e4:	48 8b 45 e0          	mov    -0x20(%rbp),%rax
  1042e8:	48 85 c0             	test   %rax,%rax
  1042eb:	0f 95 c1             	setne  %cl
  1042ee:	88 4d b7             	mov    %cl,-0x49(%rbp)
  1042f1:	75 17                	jne    10430a <_ZN38_$LT$core..option..Option$LT$T$GT$$GT$3map17hb145e9313117dfd2E+0x4a>
  1042f3:	eb 00                	jmp    1042f5 <_ZN38_$LT$core..option..Option$LT$T$GT$$GT$3map17hb145e9313117dfd2E+0x35>
  1042f5:	8a 45 b7             	mov    -0x49(%rbp),%al
  1042f8:	f6 d0                	not    %al
  1042fa:	a8 01                	test   $0x1,%al
  1042fc:	74 7a                	je     104378 <_ZN38_$LT$core..option..Option$LT$T$GT$$GT$3map17hb145e9313117dfd2E+0xb8>
  1042fe:	eb 00                	jmp    104300 <_ZN38_$LT$core..option..Option$LT$T$GT$$GT$3map17hb145e9313117dfd2E+0x40>
  104300:	48 c7 45 b8 00 00 00 	movq   $0x0,-0x48(%rbp)
  104307:	00 
  104308:	eb 3e                	jmp    104348 <_ZN38_$LT$core..option..Option$LT$T$GT$$GT$3map17hb145e9313117dfd2E+0x88>
  10430a:	c6 45 c6 00          	movb   $0x0,-0x3a(%rbp)
  10430e:	48 8b 45 e0          	mov    -0x20(%rbp),%rax
  104312:	48 89 45 d0          	mov    %rax,-0x30(%rbp)
  104316:	c6 45 c7 00          	movb   $0x0,-0x39(%rbp)
  10431a:	48 8b 45 d0          	mov    -0x30(%rbp),%rax
  10431e:	48 89 45 c8          	mov    %rax,-0x38(%rbp)
  104322:	48 89 c7             	mov    %rax,%rdi
  104325:	e8 96 07 00 00       	callq  104ac0 <_ZN10multiboot215BootInformation14memory_map_tag28_$u7b$$u7b$closure$u7d$$u7d$17hf346c641bbb964b4E>
  10432a:	48 89 45 a8          	mov    %rax,-0x58(%rbp)
  10432e:	48 8b 45 a8          	mov    -0x58(%rbp),%rax
  104332:	48 89 45 b8          	mov    %rax,-0x48(%rbp)
  104336:	eb 10                	jmp    104348 <_ZN38_$LT$core..option..Option$LT$T$GT$$GT$3map17hb145e9313117dfd2E+0x88>
  104338:	48 8b 45 b8          	mov    -0x48(%rbp),%rax
  10433c:	48 83 c4 60          	add    $0x60,%rsp
  104340:	5d                   	pop    %rbp
  104341:	c3                   	retq   
  104342:	c6 45 c7 00          	movb   $0x0,-0x39(%rbp)
  104346:	eb 16                	jmp    10435e <_ZN38_$LT$core..option..Option$LT$T$GT$$GT$3map17hb145e9313117dfd2E+0x9e>
  104348:	f6 45 c7 01          	testb  $0x1,-0x39(%rbp)
  10434c:	75 f4                	jne    104342 <_ZN38_$LT$core..option..Option$LT$T$GT$$GT$3map17hb145e9313117dfd2E+0x82>
  10434e:	eb 0e                	jmp    10435e <_ZN38_$LT$core..option..Option$LT$T$GT$$GT$3map17hb145e9313117dfd2E+0x9e>
  104350:	eb e6                	jmp    104338 <_ZN38_$LT$core..option..Option$LT$T$GT$$GT$3map17hb145e9313117dfd2E+0x78>
  104352:	f6 45 c6 01          	testb  $0x1,-0x3a(%rbp)
  104356:	74 e0                	je     104338 <_ZN38_$LT$core..option..Option$LT$T$GT$$GT$3map17hb145e9313117dfd2E+0x78>
  104358:	c6 45 c6 00          	movb   $0x0,-0x3a(%rbp)
  10435c:	eb da                	jmp    104338 <_ZN38_$LT$core..option..Option$LT$T$GT$$GT$3map17hb145e9313117dfd2E+0x78>
  10435e:	48 8b 45 e0          	mov    -0x20(%rbp),%rax
  104362:	48 85 c0             	test   %rax,%rax
  104365:	0f 95 c1             	setne  %cl
  104368:	88 4d a7             	mov    %cl,-0x59(%rbp)
  10436b:	75 e5                	jne    104352 <_ZN38_$LT$core..option..Option$LT$T$GT$$GT$3map17hb145e9313117dfd2E+0x92>
  10436d:	eb 00                	jmp    10436f <_ZN38_$LT$core..option..Option$LT$T$GT$$GT$3map17hb145e9313117dfd2E+0xaf>
  10436f:	8a 45 a7             	mov    -0x59(%rbp),%al
  104372:	a8 01                	test   $0x1,%al
  104374:	74 da                	je     104350 <_ZN38_$LT$core..option..Option$LT$T$GT$$GT$3map17hb145e9313117dfd2E+0x90>
  104376:	eb 00                	jmp    104378 <_ZN38_$LT$core..option..Option$LT$T$GT$$GT$3map17hb145e9313117dfd2E+0xb8>
  104378:	0f 1f 84 00 00 00 00 	nopl   0x0(%rax,%rax,1)
  10437f:	00 

0000000000104380 <_ZN4core4iter8iterator8Iterator4find17h847919b071b20703E>:
  104380:	55                   	push   %rbp
  104381:	48 89 e5             	mov    %rsp,%rbp
  104384:	48 81 ec 80 00 00 00 	sub    $0x80,%rsp
  10438b:	48 89 7d f0          	mov    %rdi,-0x10(%rbp)
  10438f:	48 89 75 e0          	mov    %rsi,-0x20(%rbp)
  104393:	48 8b 75 e0          	mov    -0x20(%rbp),%rsi
  104397:	48 89 75 e8          	mov    %rsi,-0x18(%rbp)
  10439b:	48 8b 45 f0          	mov    -0x10(%rbp),%rax
  10439f:	48 89 45 d8          	mov    %rax,-0x28(%rbp)
  1043a3:	48 8b 45 e8          	mov    -0x18(%rbp),%rax
  1043a7:	48 89 45 d0          	mov    %rax,-0x30(%rbp)
  1043ab:	48 8b 7d d8          	mov    -0x28(%rbp),%rdi
  1043af:	e8 cc 00 00 00       	callq  104480 <_ZN54_$LT$I$u20$as$u20$core..iter..traits..IntoIterator$GT$9into_iter17hca0ff95f91800b30E>
  1043b4:	48 89 45 90          	mov    %rax,-0x70(%rbp)
  1043b8:	48 8b 45 90          	mov    -0x70(%rbp),%rax
  1043bc:	48 89 45 c0          	mov    %rax,-0x40(%rbp)
  1043c0:	48 8d 7d c0          	lea    -0x40(%rbp),%rdi
  1043c4:	e8 e7 00 00 00       	callq  1044b0 <_ZN75_$LT$$RF$$u27$a$u20$mut$u20$I$u20$as$u20$core..iter..iterator..Iterator$GT$4next17hd631c141d7b314a4E>
  1043c9:	48 89 45 a8          	mov    %rax,-0x58(%rbp)
  1043cd:	eb 0a                	jmp    1043d9 <_ZN4core4iter8iterator8Iterator4find17h847919b071b20703E+0x59>
  1043cf:	48 c7 45 98 00 00 00 	movq   $0x0,-0x68(%rbp)
  1043d6:	00 
  1043d7:	eb 51                	jmp    10442a <_ZN4core4iter8iterator8Iterator4find17h847919b071b20703E+0xaa>
  1043d9:	48 8b 45 a8          	mov    -0x58(%rbp),%rax
  1043dd:	48 85 c0             	test   %rax,%rax
  1043e0:	0f 95 c1             	setne  %cl
  1043e3:	88 4d 8f             	mov    %cl,-0x71(%rbp)
  1043e6:	75 0e                	jne    1043f6 <_ZN4core4iter8iterator8Iterator4find17h847919b071b20703E+0x76>
  1043e8:	eb 00                	jmp    1043ea <_ZN4core4iter8iterator8Iterator4find17h847919b071b20703E+0x6a>
  1043ea:	8a 45 8f             	mov    -0x71(%rbp),%al
  1043ed:	a8 01                	test   $0x1,%al
  1043ef:	74 48                	je     104439 <_ZN4core4iter8iterator8Iterator4find17h847919b071b20703E+0xb9>
  1043f1:	e9 84 00 00 00       	jmpq   10447a <_ZN4core4iter8iterator8Iterator4find17h847919b071b20703E+0xfa>
  1043f6:	48 8d 7d d0          	lea    -0x30(%rbp),%rdi
  1043fa:	48 8b 45 a8          	mov    -0x58(%rbp),%rax
  1043fe:	48 89 45 b8          	mov    %rax,-0x48(%rbp)
  104402:	48 8d 45 b8          	lea    -0x48(%rbp),%rax
  104406:	48 89 45 a0          	mov    %rax,-0x60(%rbp)
  10440a:	48 89 c6             	mov    %rax,%rsi
  10440d:	e8 de 06 00 00       	callq  104af0 <_ZN10multiboot215BootInformation7get_tag28_$u7b$$u7b$closure$u7d$$u7d$17h237aaaae4de488c0E>
  104412:	88 45 8e             	mov    %al,-0x72(%rbp)
  104415:	8a 45 8e             	mov    -0x72(%rbp),%al
  104418:	a8 01                	test   $0x1,%al
  10441a:	75 02                	jne    10441e <_ZN4core4iter8iterator8Iterator4find17h847919b071b20703E+0x9e>
  10441c:	eb 0a                	jmp    104428 <_ZN4core4iter8iterator8Iterator4find17h847919b071b20703E+0xa8>
  10441e:	48 8b 45 b8          	mov    -0x48(%rbp),%rax
  104422:	48 89 45 98          	mov    %rax,-0x68(%rbp)
  104426:	eb 15                	jmp    10443d <_ZN4core4iter8iterator8Iterator4find17h847919b071b20703E+0xbd>
  104428:	eb 32                	jmp    10445c <_ZN4core4iter8iterator8Iterator4find17h847919b071b20703E+0xdc>
  10442a:	48 8b 45 98          	mov    -0x68(%rbp),%rax
  10442e:	48 81 c4 80 00 00 00 	add    $0x80,%rsp
  104435:	5d                   	pop    %rbp
  104436:	c3                   	retq   
  104437:	eb f1                	jmp    10442a <_ZN4core4iter8iterator8Iterator4find17h847919b071b20703E+0xaa>
  104439:	eb 94                	jmp    1043cf <_ZN4core4iter8iterator8Iterator4find17h847919b071b20703E+0x4f>
  10443b:	eb fa                	jmp    104437 <_ZN4core4iter8iterator8Iterator4find17h847919b071b20703E+0xb7>
  10443d:	48 8b 45 a8          	mov    -0x58(%rbp),%rax
  104441:	48 85 c0             	test   %rax,%rax
  104444:	0f 95 c1             	setne  %cl
  104447:	88 4d 8d             	mov    %cl,-0x73(%rbp)
  10444a:	75 eb                	jne    104437 <_ZN4core4iter8iterator8Iterator4find17h847919b071b20703E+0xb7>
  10444c:	eb 00                	jmp    10444e <_ZN4core4iter8iterator8Iterator4find17h847919b071b20703E+0xce>
  10444e:	8a 45 8d             	mov    -0x73(%rbp),%al
  104451:	a8 01                	test   $0x1,%al
  104453:	74 e6                	je     10443b <_ZN4core4iter8iterator8Iterator4find17h847919b071b20703E+0xbb>
  104455:	eb 23                	jmp    10447a <_ZN4core4iter8iterator8Iterator4find17h847919b071b20703E+0xfa>
  104457:	e9 64 ff ff ff       	jmpq   1043c0 <_ZN4core4iter8iterator8Iterator4find17h847919b071b20703E+0x40>
  10445c:	48 8b 45 a8          	mov    -0x58(%rbp),%rax
  104460:	48 85 c0             	test   %rax,%rax
  104463:	0f 95 c1             	setne  %cl
  104466:	88 4d 8c             	mov    %cl,-0x74(%rbp)
  104469:	0f 85 51 ff ff ff    	jne    1043c0 <_ZN4core4iter8iterator8Iterator4find17h847919b071b20703E+0x40>
  10446f:	eb 00                	jmp    104471 <_ZN4core4iter8iterator8Iterator4find17h847919b071b20703E+0xf1>
  104471:	8a 45 8c             	mov    -0x74(%rbp),%al
  104474:	a8 01                	test   $0x1,%al
  104476:	74 df                	je     104457 <_ZN4core4iter8iterator8Iterator4find17h847919b071b20703E+0xd7>
  104478:	eb 00                	jmp    10447a <_ZN4core4iter8iterator8Iterator4find17h847919b071b20703E+0xfa>
  10447a:	66 0f 1f 44 00 00    	nopw   0x0(%rax,%rax,1)

0000000000104480 <_ZN54_$LT$I$u20$as$u20$core..iter..traits..IntoIterator$GT$9into_iter17hca0ff95f91800b30E>:
  104480:	55                   	push   %rbp
  104481:	48 89 e5             	mov    %rsp,%rbp
  104484:	48 83 ec 20          	sub    $0x20,%rsp
  104488:	48 89 7d f0          	mov    %rdi,-0x10(%rbp)
  10448c:	48 8b 45 f0          	mov    -0x10(%rbp),%rax
  104490:	48 89 45 e8          	mov    %rax,-0x18(%rbp)
  104494:	48 8b 45 e8          	mov    -0x18(%rbp),%rax
  104498:	48 89 45 e0          	mov    %rax,-0x20(%rbp)
  10449c:	eb 00                	jmp    10449e <_ZN54_$LT$I$u20$as$u20$core..iter..traits..IntoIterator$GT$9into_iter17hca0ff95f91800b30E+0x1e>
  10449e:	48 8b 45 e0          	mov    -0x20(%rbp),%rax
  1044a2:	48 83 c4 20          	add    $0x20,%rsp
  1044a6:	5d                   	pop    %rbp
  1044a7:	c3                   	retq   
  1044a8:	0f 1f 84 00 00 00 00 	nopl   0x0(%rax,%rax,1)
  1044af:	00 

00000000001044b0 <_ZN75_$LT$$RF$$u27$a$u20$mut$u20$I$u20$as$u20$core..iter..iterator..Iterator$GT$4next17hd631c141d7b314a4E>:
  1044b0:	55                   	push   %rbp
  1044b1:	48 89 e5             	mov    %rsp,%rbp
  1044b4:	48 83 ec 20          	sub    $0x20,%rsp
  1044b8:	48 89 7d f0          	mov    %rdi,-0x10(%rbp)
  1044bc:	48 8b 45 f0          	mov    -0x10(%rbp),%rax
  1044c0:	48 89 45 e8          	mov    %rax,-0x18(%rbp)
  1044c4:	48 8b 45 e8          	mov    -0x18(%rbp),%rax
  1044c8:	48 8b 38             	mov    (%rax),%rdi
  1044cb:	e8 d0 04 00 00       	callq  1049a0 <_ZN70_$LT$multiboot2..TagIter$u20$as$u20$core..iter..iterator..Iterator$GT$4next17h4f9b8eba79a01a64E>
  1044d0:	48 89 45 e0          	mov    %rax,-0x20(%rbp)
  1044d4:	48 8b 45 e0          	mov    -0x20(%rbp),%rax
  1044d8:	48 83 c4 20          	add    $0x20,%rsp
  1044dc:	5d                   	pop    %rbp
  1044dd:	c3                   	retq   
  1044de:	66 90                	xchg   %ax,%ax

00000000001044e0 <_ZN10multiboot212elf_sections14ElfSectionsTag8sections17hbcc9d2a3917016beE>:
  1044e0:	55                   	push   %rbp
  1044e1:	48 89 e5             	mov    %rsp,%rbp
  1044e4:	48 83 ec 30          	sub    $0x30,%rsp
  1044e8:	48 89 f8             	mov    %rdi,%rax
  1044eb:	48 89 75 f8          	mov    %rsi,-0x8(%rbp)
  1044ef:	48 89 45 e8          	mov    %rax,-0x18(%rbp)
  1044f3:	48 89 7d e0          	mov    %rdi,-0x20(%rbp)
  1044f7:	48 8b 45 f8          	mov    -0x8(%rbp),%rax
  1044fb:	48 89 45 f0          	mov    %rax,-0x10(%rbp)
  1044ff:	48 8b 45 f0          	mov    -0x10(%rbp),%rax
  104503:	48 83 c0 14          	add    $0x14,%rax
  104507:	48 8b 4d f0          	mov    -0x10(%rbp),%rcx
  10450b:	8b 51 08             	mov    0x8(%rcx),%edx
  10450e:	83 ea 01             	sub    $0x1,%edx
  104511:	40 0f 92 c6          	setb   %sil
  104515:	40 f6 c6 01          	test   $0x1,%sil
  104519:	48 89 45 d8          	mov    %rax,-0x28(%rbp)
  10451d:	89 55 d4             	mov    %edx,-0x2c(%rbp)
  104520:	75 25                	jne    104547 <_ZN10multiboot212elf_sections14ElfSectionsTag8sections17hbcc9d2a3917016beE+0x67>
  104522:	48 8b 45 f0          	mov    -0x10(%rbp),%rax
  104526:	8b 48 0c             	mov    0xc(%rax),%ecx
  104529:	48 8b 45 e0          	mov    -0x20(%rbp),%rax
  10452d:	48 8b 55 d8          	mov    -0x28(%rbp),%rdx
  104531:	48 89 10             	mov    %rdx,(%rax)
  104534:	8b 75 d4             	mov    -0x2c(%rbp),%esi
  104537:	89 70 08             	mov    %esi,0x8(%rax)
  10453a:	89 48 0c             	mov    %ecx,0xc(%rax)
  10453d:	48 8b 45 e8          	mov    -0x18(%rbp),%rax
  104541:	48 83 c4 30          	add    $0x30,%rsp
  104545:	5d                   	pop    %rbp
  104546:	c3                   	retq   
  104547:	48 8d 3d 82 bc 00 00 	lea    0xbc82(%rip),%rdi        # 1101d0 <panic_loc2822>
  10454e:	e8 3d 0f 00 00       	callq  105490 <_ZN4core9panicking5panic17h585bd70cda921012E>
  104553:	66 2e 0f 1f 84 00 00 	nopw   %cs:0x0(%rax,%rax,1)
  10455a:	00 00 00 
  10455d:	0f 1f 00             	nopl   (%rax)

0000000000104560 <_ZN91_$LT$multiboot2..elf_sections..ElfSectionIter$u20$as$u20$core..iter..iterator..Iterator$GT$4next17h31b5efa28e26b5fbE>:
  104560:	55                   	push   %rbp
  104561:	48 89 e5             	mov    %rsp,%rbp
  104564:	48 83 ec 40          	sub    $0x40,%rsp
  104568:	48 89 7d f0          	mov    %rdi,-0x10(%rbp)
  10456c:	48 8b 45 f0          	mov    -0x10(%rbp),%rax
  104570:	48 89 45 e8          	mov    %rax,-0x18(%rbp)
  104574:	48 8b 45 e8          	mov    -0x18(%rbp),%rax
  104578:	83 78 08 00          	cmpl   $0x0,0x8(%rax)
  10457c:	75 0d                	jne    10458b <_ZN91_$LT$multiboot2..elf_sections..ElfSectionIter$u20$as$u20$core..iter..iterator..Iterator$GT$4next17h31b5efa28e26b5fbE+0x2b>
  10457e:	48 c7 45 d0 00 00 00 	movq   $0x0,-0x30(%rbp)
  104585:	00 
  104586:	e9 83 00 00 00       	jmpq   10460e <_ZN91_$LT$multiboot2..elf_sections..ElfSectionIter$u20$as$u20$core..iter..iterator..Iterator$GT$4next17h31b5efa28e26b5fbE+0xae>
  10458b:	48 8b 45 e8          	mov    -0x18(%rbp),%rax
  10458f:	48 8b 00             	mov    (%rax),%rax
  104592:	48 89 45 e0          	mov    %rax,-0x20(%rbp)
  104596:	48 8b 45 e8          	mov    -0x18(%rbp),%rax
  10459a:	48 8b 00             	mov    (%rax),%rax
  10459d:	89 c1                	mov    %eax,%ecx
  10459f:	48 8b 45 e8          	mov    -0x18(%rbp),%rax
  1045a3:	03 48 0c             	add    0xc(%rax),%ecx
  1045a6:	0f 92 c2             	setb   %dl
  1045a9:	f6 c2 01             	test   $0x1,%dl
  1045ac:	89 4d cc             	mov    %ecx,-0x34(%rbp)
  1045af:	75 67                	jne    104618 <_ZN91_$LT$multiboot2..elf_sections..ElfSectionIter$u20$as$u20$core..iter..iterator..Iterator$GT$4next17h31b5efa28e26b5fbE+0xb8>
  1045b1:	8b 45 cc             	mov    -0x34(%rbp),%eax
  1045b4:	89 45 dc             	mov    %eax,-0x24(%rbp)
  1045b7:	8b 4d dc             	mov    -0x24(%rbp),%ecx
  1045ba:	89 ca                	mov    %ecx,%edx
  1045bc:	48 8b 75 e8          	mov    -0x18(%rbp),%rsi
  1045c0:	48 89 16             	mov    %rdx,(%rsi)
  1045c3:	48 8b 55 e8          	mov    -0x18(%rbp),%rdx
  1045c7:	8b 4a 08             	mov    0x8(%rdx),%ecx
  1045ca:	83 e9 01             	sub    $0x1,%ecx
  1045cd:	40 0f 92 c7          	setb   %dil
  1045d1:	40 f6 c7 01          	test   $0x1,%dil
  1045d5:	89 4d c8             	mov    %ecx,-0x38(%rbp)
  1045d8:	75 4a                	jne    104624 <_ZN91_$LT$multiboot2..elf_sections..ElfSectionIter$u20$as$u20$core..iter..iterator..Iterator$GT$4next17h31b5efa28e26b5fbE+0xc4>
  1045da:	48 8b 45 e8          	mov    -0x18(%rbp),%rax
  1045de:	8b 4d c8             	mov    -0x38(%rbp),%ecx
  1045e1:	89 48 08             	mov    %ecx,0x8(%rax)
  1045e4:	48 8b 45 e0          	mov    -0x20(%rbp),%rax
  1045e8:	8b 50 04             	mov    0x4(%rax),%edx
  1045eb:	c7 45 d8 00 00 00 00 	movl   $0x0,-0x28(%rbp)
  1045f2:	3b 55 d8             	cmp    -0x28(%rbp),%edx
  1045f5:	75 0f                	jne    104606 <_ZN91_$LT$multiboot2..elf_sections..ElfSectionIter$u20$as$u20$core..iter..iterator..Iterator$GT$4next17h31b5efa28e26b5fbE+0xa6>
  1045f7:	48 8b 7d e8          	mov    -0x18(%rbp),%rdi
  1045fb:	e8 60 ff ff ff       	callq  104560 <_ZN91_$LT$multiboot2..elf_sections..ElfSectionIter$u20$as$u20$core..iter..iterator..Iterator$GT$4next17h31b5efa28e26b5fbE>
  104600:	48 89 45 d0          	mov    %rax,-0x30(%rbp)
  104604:	eb 08                	jmp    10460e <_ZN91_$LT$multiboot2..elf_sections..ElfSectionIter$u20$as$u20$core..iter..iterator..Iterator$GT$4next17h31b5efa28e26b5fbE+0xae>
  104606:	48 8b 45 e0          	mov    -0x20(%rbp),%rax
  10460a:	48 89 45 d0          	mov    %rax,-0x30(%rbp)
  10460e:	48 8b 45 d0          	mov    -0x30(%rbp),%rax
  104612:	48 83 c4 40          	add    $0x40,%rsp
  104616:	5d                   	pop    %rbp
  104617:	c3                   	retq   
  104618:	48 8d 3d d9 bb 00 00 	lea    0xbbd9(%rip),%rdi        # 1101f8 <panic_loc2825>
  10461f:	e8 6c 0e 00 00       	callq  105490 <_ZN4core9panicking5panic17h585bd70cda921012E>
  104624:	48 8d 3d f5 bb 00 00 	lea    0xbbf5(%rip),%rdi        # 110220 <panic_loc2826>
  10462b:	e8 60 0e 00 00       	callq  105490 <_ZN4core9panicking5panic17h585bd70cda921012E>

0000000000104630 <_ZN10multiboot210memory_map12MemoryMapTag12memory_areas17hcebd930c093b8d74E>:
  104630:	55                   	push   %rbp
  104631:	48 89 e5             	mov    %rsp,%rbp
  104634:	48 83 ec 40          	sub    $0x40,%rsp
  104638:	48 89 f8             	mov    %rdi,%rax
  10463b:	48 89 75 f8          	mov    %rsi,-0x8(%rbp)
  10463f:	48 89 45 d8          	mov    %rax,-0x28(%rbp)
  104643:	48 89 7d d0          	mov    %rdi,-0x30(%rbp)
  104647:	48 8b 45 f8          	mov    -0x8(%rbp),%rax
  10464b:	48 89 45 f0          	mov    %rax,-0x10(%rbp)
  10464f:	48 8b 45 f0          	mov    -0x10(%rbp),%rax
  104653:	48 89 45 e8          	mov    %rax,-0x18(%rbp)
  104657:	48 8b 45 f0          	mov    -0x10(%rbp),%rax
  10465b:	48 83 c0 10          	add    $0x10,%rax
  10465f:	48 89 45 e0          	mov    %rax,-0x20(%rbp)
  104663:	48 8b 45 e0          	mov    -0x20(%rbp),%rax
  104667:	48 8b 4d e8          	mov    -0x18(%rbp),%rcx
  10466b:	89 ca                	mov    %ecx,%edx
  10466d:	48 8b 4d f0          	mov    -0x10(%rbp),%rcx
  104671:	03 51 04             	add    0x4(%rcx),%edx
  104674:	40 0f 92 c6          	setb   %sil
  104678:	40 f6 c6 01          	test   $0x1,%sil
  10467c:	48 89 45 c8          	mov    %rax,-0x38(%rbp)
  104680:	89 55 c4             	mov    %edx,-0x3c(%rbp)
  104683:	75 3f                	jne    1046c4 <_ZN10multiboot210memory_map12MemoryMapTag12memory_areas17hcebd930c093b8d74E+0x94>
  104685:	48 8b 45 f0          	mov    -0x10(%rbp),%rax
  104689:	8b 4d c4             	mov    -0x3c(%rbp),%ecx
  10468c:	2b 48 08             	sub    0x8(%rax),%ecx
  10468f:	0f 92 c2             	setb   %dl
  104692:	f6 c2 01             	test   $0x1,%dl
  104695:	89 4d c0             	mov    %ecx,-0x40(%rbp)
  104698:	75 36                	jne    1046d0 <_ZN10multiboot210memory_map12MemoryMapTag12memory_areas17hcebd930c093b8d74E+0xa0>
  10469a:	8b 45 c0             	mov    -0x40(%rbp),%eax
  10469d:	89 c1                	mov    %eax,%ecx
  10469f:	89 ca                	mov    %ecx,%edx
  1046a1:	48 8b 75 f0          	mov    -0x10(%rbp),%rsi
  1046a5:	8b 4e 08             	mov    0x8(%rsi),%ecx
  1046a8:	48 8b 75 d0          	mov    -0x30(%rbp),%rsi
  1046ac:	48 8b 7d c8          	mov    -0x38(%rbp),%rdi
  1046b0:	48 89 3e             	mov    %rdi,(%rsi)
  1046b3:	48 89 56 08          	mov    %rdx,0x8(%rsi)
  1046b7:	89 4e 10             	mov    %ecx,0x10(%rsi)
  1046ba:	48 8b 45 d8          	mov    -0x28(%rbp),%rax
  1046be:	48 83 c4 40          	add    $0x40,%rsp
  1046c2:	5d                   	pop    %rbp
  1046c3:	c3                   	retq   
  1046c4:	48 8d 3d 7d bb 00 00 	lea    0xbb7d(%rip),%rdi        # 110248 <panic_loc2848>
  1046cb:	e8 c0 0d 00 00       	callq  105490 <_ZN4core9panicking5panic17h585bd70cda921012E>
  1046d0:	48 8d 3d 99 bb 00 00 	lea    0xbb99(%rip),%rdi        # 110270 <panic_loc2849>
  1046d7:	e8 b4 0d 00 00       	callq  105490 <_ZN4core9panicking5panic17h585bd70cda921012E>
  1046dc:	0f 1f 40 00          	nopl   0x0(%rax)

00000000001046e0 <_ZN89_$LT$multiboot2..memory_map..MemoryAreaIter$u20$as$u20$core..iter..iterator..Iterator$GT$4next17h96af31255da8f73aE>:
  1046e0:	55                   	push   %rbp
  1046e1:	48 89 e5             	mov    %rsp,%rbp
  1046e4:	48 83 ec 30          	sub    $0x30,%rsp
  1046e8:	48 89 7d f0          	mov    %rdi,-0x10(%rbp)
  1046ec:	48 8b 45 f0          	mov    -0x10(%rbp),%rax
  1046f0:	48 89 45 e8          	mov    %rax,-0x18(%rbp)
  1046f4:	48 8b 45 e8          	mov    -0x18(%rbp),%rax
  1046f8:	48 8b 00             	mov    (%rax),%rax
  1046fb:	48 8b 4d e8          	mov    -0x18(%rbp),%rcx
  1046ff:	48 3b 41 08          	cmp    0x8(%rcx),%rax
  104703:	76 0a                	jbe    10470f <_ZN89_$LT$multiboot2..memory_map..MemoryAreaIter$u20$as$u20$core..iter..iterator..Iterator$GT$4next17h96af31255da8f73aE+0x2f>
  104705:	48 c7 45 d8 00 00 00 	movq   $0x0,-0x28(%rbp)
  10470c:	00 
  10470d:	eb 55                	jmp    104764 <_ZN89_$LT$multiboot2..memory_map..MemoryAreaIter$u20$as$u20$core..iter..iterator..Iterator$GT$4next17h96af31255da8f73aE+0x84>
  10470f:	48 8b 45 e8          	mov    -0x18(%rbp),%rax
  104713:	48 8b 00             	mov    (%rax),%rax
  104716:	48 89 45 e0          	mov    %rax,-0x20(%rbp)
  10471a:	48 8b 45 e8          	mov    -0x18(%rbp),%rax
  10471e:	48 8b 00             	mov    (%rax),%rax
  104721:	89 c1                	mov    %eax,%ecx
  104723:	48 8b 45 e8          	mov    -0x18(%rbp),%rax
  104727:	03 48 10             	add    0x10(%rax),%ecx
  10472a:	0f 92 c2             	setb   %dl
  10472d:	f6 c2 01             	test   $0x1,%dl
  104730:	89 4d d4             	mov    %ecx,-0x2c(%rbp)
  104733:	75 39                	jne    10476e <_ZN89_$LT$multiboot2..memory_map..MemoryAreaIter$u20$as$u20$core..iter..iterator..Iterator$GT$4next17h96af31255da8f73aE+0x8e>
  104735:	48 8b 45 e8          	mov    -0x18(%rbp),%rax
  104739:	8b 4d d4             	mov    -0x2c(%rbp),%ecx
  10473c:	89 ca                	mov    %ecx,%edx
  10473e:	89 d6                	mov    %edx,%esi
  104740:	48 89 30             	mov    %rsi,(%rax)
  104743:	48 8b 45 e0          	mov    -0x20(%rbp),%rax
  104747:	83 78 10 01          	cmpl   $0x1,0x10(%rax)
  10474b:	75 0a                	jne    104757 <_ZN89_$LT$multiboot2..memory_map..MemoryAreaIter$u20$as$u20$core..iter..iterator..Iterator$GT$4next17h96af31255da8f73aE+0x77>
  10474d:	48 8b 45 e0          	mov    -0x20(%rbp),%rax
  104751:	48 89 45 d8          	mov    %rax,-0x28(%rbp)
  104755:	eb 0d                	jmp    104764 <_ZN89_$LT$multiboot2..memory_map..MemoryAreaIter$u20$as$u20$core..iter..iterator..Iterator$GT$4next17h96af31255da8f73aE+0x84>
  104757:	48 8b 7d e8          	mov    -0x18(%rbp),%rdi
  10475b:	e8 80 ff ff ff       	callq  1046e0 <_ZN89_$LT$multiboot2..memory_map..MemoryAreaIter$u20$as$u20$core..iter..iterator..Iterator$GT$4next17h96af31255da8f73aE>
  104760:	48 89 45 d8          	mov    %rax,-0x28(%rbp)
  104764:	48 8b 45 d8          	mov    -0x28(%rbp),%rax
  104768:	48 83 c4 30          	add    $0x30,%rsp
  10476c:	5d                   	pop    %rbp
  10476d:	c3                   	retq   
  10476e:	48 8d 3d 23 bb 00 00 	lea    0xbb23(%rip),%rdi        # 110298 <panic_loc2850>
  104775:	e8 16 0d 00 00       	callq  105490 <_ZN4core9panicking5panic17h585bd70cda921012E>
  10477a:	66 0f 1f 44 00 00    	nopw   0x0(%rax,%rax,1)

0000000000104780 <_ZN10multiboot24load17hb2204bdd257de7b7E>:
  104780:	55                   	push   %rbp
  104781:	48 89 e5             	mov    %rsp,%rbp
  104784:	48 83 ec 30          	sub    $0x30,%rsp
  104788:	48 89 7d f0          	mov    %rdi,-0x10(%rbp)
  10478c:	48 8b 45 f0          	mov    -0x10(%rbp),%rax
  104790:	48 89 45 e8          	mov    %rax,-0x18(%rbp)
  104794:	48 8b 45 e8          	mov    -0x18(%rbp),%rax
  104798:	48 89 45 e0          	mov    %rax,-0x20(%rbp)
  10479c:	48 8b 7d e0          	mov    -0x20(%rbp),%rdi
  1047a0:	e8 ab 00 00 00       	callq  104850 <_ZN10multiboot215BootInformation17has_valid_end_tag17hf562f57286531a97E>
  1047a5:	88 45 d7             	mov    %al,-0x29(%rbp)
  1047a8:	8a 45 d7             	mov    -0x29(%rbp),%al
  1047ab:	34 ff                	xor    $0xff,%al
  1047ad:	a8 01                	test   $0x1,%al
  1047af:	75 02                	jne    1047b3 <_ZN10multiboot24load17hb2204bdd257de7b7E+0x33>
  1047b1:	eb 0c                	jmp    1047bf <_ZN10multiboot24load17hb2204bdd257de7b7E+0x3f>
  1047b3:	48 8d 3d ee b9 00 00 	lea    0xb9ee(%rip),%rdi        # 1101a8 <panic_loc2098+0x28>
  1047ba:	e8 d1 0c 00 00       	callq  105490 <_ZN4core9panicking5panic17h585bd70cda921012E>
  1047bf:	48 8b 45 e0          	mov    -0x20(%rbp),%rax
  1047c3:	48 83 c4 30          	add    $0x30,%rsp
  1047c7:	5d                   	pop    %rbp
  1047c8:	c3                   	retq   
  1047c9:	0f 1f 80 00 00 00 00 	nopl   0x0(%rax)

00000000001047d0 <_ZN10multiboot215BootInformation16elf_sections_tag17hc47944b5275e2493E>:
  1047d0:	55                   	push   %rbp
  1047d1:	48 89 e5             	mov    %rsp,%rbp
  1047d4:	48 83 ec 30          	sub    $0x30,%rsp
  1047d8:	48 89 7d f0          	mov    %rdi,-0x10(%rbp)
  1047dc:	be 09 00 00 00       	mov    $0x9,%esi
  1047e1:	48 8b 45 f0          	mov    -0x10(%rbp),%rax
  1047e5:	48 89 45 e8          	mov    %rax,-0x18(%rbp)
  1047e9:	48 8b 7d e8          	mov    -0x18(%rbp),%rdi
  1047ed:	e8 1e 01 00 00       	callq  104910 <_ZN10multiboot215BootInformation7get_tag17hef16bd95072db2d1E>
  1047f2:	48 89 45 e0          	mov    %rax,-0x20(%rbp)
  1047f6:	48 8b 7d e0          	mov    -0x20(%rbp),%rdi
  1047fa:	e8 01 fa ff ff       	callq  104200 <_ZN38_$LT$core..option..Option$LT$T$GT$$GT$3map17h6df50b684d384c68E>
  1047ff:	48 89 45 d0          	mov    %rax,-0x30(%rbp)
  104803:	48 8b 45 d0          	mov    -0x30(%rbp),%rax
  104807:	48 83 c4 30          	add    $0x30,%rsp
  10480b:	5d                   	pop    %rbp
  10480c:	c3                   	retq   
  10480d:	0f 1f 00             	nopl   (%rax)

0000000000104810 <_ZN10multiboot215BootInformation14memory_map_tag17h2837438976bc3fe0E>:
  104810:	55                   	push   %rbp
  104811:	48 89 e5             	mov    %rsp,%rbp
  104814:	48 83 ec 30          	sub    $0x30,%rsp
  104818:	48 89 7d f0          	mov    %rdi,-0x10(%rbp)
  10481c:	be 06 00 00 00       	mov    $0x6,%esi
  104821:	48 8b 45 f0          	mov    -0x10(%rbp),%rax
  104825:	48 89 45 e8          	mov    %rax,-0x18(%rbp)
  104829:	48 8b 7d e8          	mov    -0x18(%rbp),%rdi
  10482d:	e8 de 00 00 00       	callq  104910 <_ZN10multiboot215BootInformation7get_tag17hef16bd95072db2d1E>
  104832:	48 89 45 e0          	mov    %rax,-0x20(%rbp)
  104836:	48 8b 7d e0          	mov    -0x20(%rbp),%rdi
  10483a:	e8 81 fa ff ff       	callq  1042c0 <_ZN38_$LT$core..option..Option$LT$T$GT$$GT$3map17hb145e9313117dfd2E>
  10483f:	48 89 45 d0          	mov    %rax,-0x30(%rbp)
  104843:	48 8b 45 d0          	mov    -0x30(%rbp),%rax
  104847:	48 83 c4 30          	add    $0x30,%rsp
  10484b:	5d                   	pop    %rbp
  10484c:	c3                   	retq   
  10484d:	0f 1f 00             	nopl   (%rax)

0000000000104850 <_ZN10multiboot215BootInformation17has_valid_end_tag17hf562f57286531a97E>:
  104850:	55                   	push   %rbp
  104851:	48 89 e5             	mov    %rsp,%rbp
  104854:	48 83 ec 50          	sub    $0x50,%rsp
  104858:	48 89 7d f0          	mov    %rdi,-0x10(%rbp)
  10485c:	48 8b 45 f0          	mov    -0x10(%rbp),%rax
  104860:	48 89 45 e8          	mov    %rax,-0x18(%rbp)
  104864:	48 8b 45 e8          	mov    -0x18(%rbp),%rax
  104868:	48 89 45 e0          	mov    %rax,-0x20(%rbp)
  10486c:	48 8b 45 e0          	mov    -0x20(%rbp),%rax
  104870:	48 8b 4d e8          	mov    -0x18(%rbp),%rcx
  104874:	8b 11                	mov    (%rcx),%edx
  104876:	2b 15 80 ad 00 00    	sub    0xad80(%rip),%edx        # 10f5fc <const2854+0x4>
  10487c:	40 0f 92 c6          	setb   %sil
  104880:	40 f6 c6 01          	test   $0x1,%sil
  104884:	48 89 45 c0          	mov    %rax,-0x40(%rbp)
  104888:	89 55 bc             	mov    %edx,-0x44(%rbp)
  10488b:	75 67                	jne    1048f4 <_ZN10multiboot215BootInformation17has_valid_end_tag17hf562f57286531a97E+0xa4>
  10488d:	8b 45 bc             	mov    -0x44(%rbp),%eax
  104890:	89 c1                	mov    %eax,%ecx
  104892:	89 ca                	mov    %ecx,%edx
  104894:	48 8b 75 c0          	mov    -0x40(%rbp),%rsi
  104898:	48 01 d6             	add    %rdx,%rsi
  10489b:	40 0f 92 c7          	setb   %dil
  10489f:	40 f6 c7 01          	test   $0x1,%dil
  1048a3:	48 89 75 b0          	mov    %rsi,-0x50(%rbp)
  1048a7:	75 57                	jne    104900 <_ZN10multiboot215BootInformation17has_valid_end_tag17hf562f57286531a97E+0xb0>
  1048a9:	48 8b 45 b0          	mov    -0x50(%rbp),%rax
  1048ad:	48 89 45 d8          	mov    %rax,-0x28(%rbp)
  1048b1:	48 8b 4d d8          	mov    -0x28(%rbp),%rcx
  1048b5:	48 89 4d d0          	mov    %rcx,-0x30(%rbp)
  1048b9:	48 8b 4d d0          	mov    -0x30(%rbp),%rcx
  1048bd:	8b 11                	mov    (%rcx),%edx
  1048bf:	3b 15 33 ad 00 00    	cmp    0xad33(%rip),%edx        # 10f5f8 <const2854>
  1048c5:	74 0e                	je     1048d5 <_ZN10multiboot215BootInformation17has_valid_end_tag17hf562f57286531a97E+0x85>
  1048c7:	eb 06                	jmp    1048cf <_ZN10multiboot215BootInformation17has_valid_end_tag17hf562f57286531a97E+0x7f>
  1048c9:	c6 45 cf 01          	movb   $0x1,-0x31(%rbp)
  1048cd:	eb 17                	jmp    1048e6 <_ZN10multiboot215BootInformation17has_valid_end_tag17hf562f57286531a97E+0x96>
  1048cf:	c6 45 cf 00          	movb   $0x0,-0x31(%rbp)
  1048d3:	eb 11                	jmp    1048e6 <_ZN10multiboot215BootInformation17has_valid_end_tag17hf562f57286531a97E+0x96>
  1048d5:	48 8b 45 d0          	mov    -0x30(%rbp),%rax
  1048d9:	8b 48 04             	mov    0x4(%rax),%ecx
  1048dc:	3b 0d 1a ad 00 00    	cmp    0xad1a(%rip),%ecx        # 10f5fc <const2854+0x4>
  1048e2:	74 e5                	je     1048c9 <_ZN10multiboot215BootInformation17has_valid_end_tag17hf562f57286531a97E+0x79>
  1048e4:	eb e9                	jmp    1048cf <_ZN10multiboot215BootInformation17has_valid_end_tag17hf562f57286531a97E+0x7f>
  1048e6:	8a 45 cf             	mov    -0x31(%rbp),%al
  1048e9:	24 01                	and    $0x1,%al
  1048eb:	0f b6 c0             	movzbl %al,%eax
  1048ee:	48 83 c4 50          	add    $0x50,%rsp
  1048f2:	5d                   	pop    %rbp
  1048f3:	c3                   	retq   
  1048f4:	48 8d 3d c5 b9 00 00 	lea    0xb9c5(%rip),%rdi        # 1102c0 <panic_loc2855>
  1048fb:	e8 90 0b 00 00       	callq  105490 <_ZN4core9panicking5panic17h585bd70cda921012E>
  104900:	48 8d 3d e1 b9 00 00 	lea    0xb9e1(%rip),%rdi        # 1102e8 <panic_loc2856>
  104907:	e8 84 0b 00 00       	callq  105490 <_ZN4core9panicking5panic17h585bd70cda921012E>
  10490c:	0f 1f 40 00          	nopl   0x0(%rax)

0000000000104910 <_ZN10multiboot215BootInformation7get_tag17hef16bd95072db2d1E>:
  104910:	55                   	push   %rbp
  104911:	48 89 e5             	mov    %rsp,%rbp
  104914:	48 83 ec 50          	sub    $0x50,%rsp
  104918:	48 89 7d f0          	mov    %rdi,-0x10(%rbp)
  10491c:	89 75 ec             	mov    %esi,-0x14(%rbp)
  10491f:	48 8b 45 f0          	mov    -0x10(%rbp),%rax
  104923:	48 89 45 e0          	mov    %rax,-0x20(%rbp)
  104927:	8b 4d ec             	mov    -0x14(%rbp),%ecx
  10492a:	89 4d dc             	mov    %ecx,-0x24(%rbp)
  10492d:	48 8b 7d e0          	mov    -0x20(%rbp),%rdi
  104931:	e8 3a 00 00 00       	callq  104970 <_ZN10multiboot215BootInformation4tags17ha4c35d1bca1ceeddE>
  104936:	48 89 45 b8          	mov    %rax,-0x48(%rbp)
  10493a:	48 8b 45 b8          	mov    -0x48(%rbp),%rax
  10493e:	48 89 45 d0          	mov    %rax,-0x30(%rbp)
  104942:	48 8d 7d d0          	lea    -0x30(%rbp),%rdi
  104946:	48 8d 45 dc          	lea    -0x24(%rbp),%rax
  10494a:	48 89 45 c8          	mov    %rax,-0x38(%rbp)
  10494e:	48 89 45 b0          	mov    %rax,-0x50(%rbp)
  104952:	48 8b 75 b0          	mov    -0x50(%rbp),%rsi
  104956:	e8 25 fa ff ff       	callq  104380 <_ZN4core4iter8iterator8Iterator4find17h847919b071b20703E>
  10495b:	48 89 45 c0          	mov    %rax,-0x40(%rbp)
  10495f:	48 8b 45 c0          	mov    -0x40(%rbp),%rax
  104963:	48 83 c4 50          	add    $0x50,%rsp
  104967:	5d                   	pop    %rbp
  104968:	c3                   	retq   
  104969:	0f 1f 80 00 00 00 00 	nopl   0x0(%rax)

0000000000104970 <_ZN10multiboot215BootInformation4tags17ha4c35d1bca1ceeddE>:
  104970:	55                   	push   %rbp
  104971:	48 89 e5             	mov    %rsp,%rbp
  104974:	48 83 ec 20          	sub    $0x20,%rsp
  104978:	48 89 7d f0          	mov    %rdi,-0x10(%rbp)
  10497c:	48 8b 45 f0          	mov    -0x10(%rbp),%rax
  104980:	48 89 45 e8          	mov    %rax,-0x18(%rbp)
  104984:	48 8b 45 e8          	mov    -0x18(%rbp),%rax
  104988:	48 83 c0 08          	add    $0x8,%rax
  10498c:	48 89 45 e0          	mov    %rax,-0x20(%rbp)
  104990:	48 8b 45 e0          	mov    -0x20(%rbp),%rax
  104994:	48 83 c4 20          	add    $0x20,%rsp
  104998:	5d                   	pop    %rbp
  104999:	c3                   	retq   
  10499a:	66 0f 1f 44 00 00    	nopw   0x0(%rax,%rax,1)

00000000001049a0 <_ZN70_$LT$multiboot2..TagIter$u20$as$u20$core..iter..iterator..Iterator$GT$4next17h4f9b8eba79a01a64E>:
  1049a0:	55                   	push   %rbp
  1049a1:	48 89 e5             	mov    %rsp,%rbp
  1049a4:	48 83 ec 60          	sub    $0x60,%rsp
  1049a8:	48 89 7d f0          	mov    %rdi,-0x10(%rbp)
  1049ac:	48 8b 45 f0          	mov    -0x10(%rbp),%rax
  1049b0:	48 89 45 e8          	mov    %rax,-0x18(%rbp)
  1049b4:	48 8b 00             	mov    (%rax),%rax
  1049b7:	8b 08                	mov    (%rax),%ecx
  1049b9:	85 c9                	test   %ecx,%ecx
  1049bb:	48 89 45 c8          	mov    %rax,-0x38(%rbp)
  1049bf:	74 11                	je     1049d2 <_ZN70_$LT$multiboot2..TagIter$u20$as$u20$core..iter..iterator..Iterator$GT$4next17h4f9b8eba79a01a64E+0x32>
  1049c1:	eb 0d                	jmp    1049d0 <_ZN70_$LT$multiboot2..TagIter$u20$as$u20$core..iter..iterator..Iterator$GT$4next17h4f9b8eba79a01a64E+0x30>
  1049c3:	48 c7 45 d0 00 00 00 	movq   $0x0,-0x30(%rbp)
  1049ca:	00 
  1049cb:	e9 90 00 00 00       	jmpq   104a60 <_ZN70_$LT$multiboot2..TagIter$u20$as$u20$core..iter..iterator..Iterator$GT$4next17h4f9b8eba79a01a64E+0xc0>
  1049d0:	eb 11                	jmp    1049e3 <_ZN70_$LT$multiboot2..TagIter$u20$as$u20$core..iter..iterator..Iterator$GT$4next17h4f9b8eba79a01a64E+0x43>
  1049d2:	48 8b 45 c8          	mov    -0x38(%rbp),%rax
  1049d6:	8b 48 04             	mov    0x4(%rax),%ecx
  1049d9:	83 e9 08             	sub    $0x8,%ecx
  1049dc:	89 4d c4             	mov    %ecx,-0x3c(%rbp)
  1049df:	74 e2                	je     1049c3 <_ZN70_$LT$multiboot2..TagIter$u20$as$u20$core..iter..iterator..Iterator$GT$4next17h4f9b8eba79a01a64E+0x23>
  1049e1:	eb 00                	jmp    1049e3 <_ZN70_$LT$multiboot2..TagIter$u20$as$u20$core..iter..iterator..Iterator$GT$4next17h4f9b8eba79a01a64E+0x43>
  1049e3:	48 8b 45 c8          	mov    -0x38(%rbp),%rax
  1049e7:	48 89 45 e0          	mov    %rax,-0x20(%rbp)
  1049eb:	48 8b 4d e8          	mov    -0x18(%rbp),%rcx
  1049ef:	48 8b 09             	mov    (%rcx),%rcx
  1049f2:	48 89 4d d8          	mov    %rcx,-0x28(%rbp)
  1049f6:	48 8b 4d e0          	mov    -0x20(%rbp),%rcx
  1049fa:	8b 51 04             	mov    0x4(%rcx),%edx
  1049fd:	89 d1                	mov    %edx,%ecx
  1049ff:	48 03 4d d8          	add    -0x28(%rbp),%rcx
  104a03:	40 0f 92 c6          	setb   %sil
  104a07:	40 f6 c6 01          	test   $0x1,%sil
  104a0b:	48 89 4d b8          	mov    %rcx,-0x48(%rbp)
  104a0f:	75 59                	jne    104a6a <_ZN70_$LT$multiboot2..TagIter$u20$as$u20$core..iter..iterator..Iterator$GT$4next17h4f9b8eba79a01a64E+0xca>
  104a11:	48 8b 45 b8          	mov    -0x48(%rbp),%rax
  104a15:	48 89 45 d8          	mov    %rax,-0x28(%rbp)
  104a19:	48 8b 4d d8          	mov    -0x28(%rbp),%rcx
  104a1d:	48 83 e9 01          	sub    $0x1,%rcx
  104a21:	0f 92 c2             	setb   %dl
  104a24:	f6 c2 01             	test   $0x1,%dl
  104a27:	48 89 4d b0          	mov    %rcx,-0x50(%rbp)
  104a2b:	75 49                	jne    104a76 <_ZN70_$LT$multiboot2..TagIter$u20$as$u20$core..iter..iterator..Iterator$GT$4next17h4f9b8eba79a01a64E+0xd6>
  104a2d:	48 8b 45 b0          	mov    -0x50(%rbp),%rax
  104a31:	48 83 e0 f8          	and    $0xfffffffffffffff8,%rax
  104a35:	48 83 c0 08          	add    $0x8,%rax
  104a39:	0f 92 c1             	setb   %cl
  104a3c:	f6 c1 01             	test   $0x1,%cl
  104a3f:	48 89 45 a8          	mov    %rax,-0x58(%rbp)
  104a43:	75 3d                	jne    104a82 <_ZN70_$LT$multiboot2..TagIter$u20$as$u20$core..iter..iterator..Iterator$GT$4next17h4f9b8eba79a01a64E+0xe2>
  104a45:	48 8b 45 a8          	mov    -0x58(%rbp),%rax
  104a49:	48 89 45 d8          	mov    %rax,-0x28(%rbp)
  104a4d:	48 8b 4d d8          	mov    -0x28(%rbp),%rcx
  104a51:	48 8b 55 e8          	mov    -0x18(%rbp),%rdx
  104a55:	48 89 0a             	mov    %rcx,(%rdx)
  104a58:	48 8b 4d e0          	mov    -0x20(%rbp),%rcx
  104a5c:	48 89 4d d0          	mov    %rcx,-0x30(%rbp)
  104a60:	48 8b 45 d0          	mov    -0x30(%rbp),%rax
  104a64:	48 83 c4 60          	add    $0x60,%rsp
  104a68:	5d                   	pop    %rbp
  104a69:	c3                   	retq   
  104a6a:	48 8d 3d 9f b8 00 00 	lea    0xb89f(%rip),%rdi        # 110310 <panic_loc2857>
  104a71:	e8 1a 0a 00 00       	callq  105490 <_ZN4core9panicking5panic17h585bd70cda921012E>
  104a76:	48 8d 3d bb b8 00 00 	lea    0xb8bb(%rip),%rdi        # 110338 <panic_loc2858>
  104a7d:	e8 0e 0a 00 00       	callq  105490 <_ZN4core9panicking5panic17h585bd70cda921012E>
  104a82:	48 8d 3d d7 b8 00 00 	lea    0xb8d7(%rip),%rdi        # 110360 <panic_loc2859>
  104a89:	e8 02 0a 00 00       	callq  105490 <_ZN4core9panicking5panic17h585bd70cda921012E>
  104a8e:	66 90                	xchg   %ax,%ax

0000000000104a90 <_ZN10multiboot215BootInformation16elf_sections_tag28_$u7b$$u7b$closure$u7d$$u7d$17ha25f2ae5f682eddcE>:
  104a90:	55                   	push   %rbp
  104a91:	48 89 e5             	mov    %rsp,%rbp
  104a94:	48 83 ec 28          	sub    $0x28,%rsp
  104a98:	48 89 7d e8          	mov    %rdi,-0x18(%rbp)
  104a9c:	48 8b 45 e8          	mov    -0x18(%rbp),%rax
  104aa0:	48 89 45 e0          	mov    %rax,-0x20(%rbp)
  104aa4:	48 8b 45 e0          	mov    -0x20(%rbp),%rax
  104aa8:	48 89 45 d8          	mov    %rax,-0x28(%rbp)
  104aac:	48 8b 45 d8          	mov    -0x28(%rbp),%rax
  104ab0:	48 83 c4 28          	add    $0x28,%rsp
  104ab4:	5d                   	pop    %rbp
  104ab5:	c3                   	retq   
  104ab6:	66 2e 0f 1f 84 00 00 	nopw   %cs:0x0(%rax,%rax,1)
  104abd:	00 00 00 

0000000000104ac0 <_ZN10multiboot215BootInformation14memory_map_tag28_$u7b$$u7b$closure$u7d$$u7d$17hf346c641bbb964b4E>:
  104ac0:	55                   	push   %rbp
  104ac1:	48 89 e5             	mov    %rsp,%rbp
  104ac4:	48 83 ec 28          	sub    $0x28,%rsp
  104ac8:	48 89 7d e8          	mov    %rdi,-0x18(%rbp)
  104acc:	48 8b 45 e8          	mov    -0x18(%rbp),%rax
  104ad0:	48 89 45 e0          	mov    %rax,-0x20(%rbp)
  104ad4:	48 8b 45 e0          	mov    -0x20(%rbp),%rax
  104ad8:	48 89 45 d8          	mov    %rax,-0x28(%rbp)
  104adc:	48 8b 45 d8          	mov    -0x28(%rbp),%rax
  104ae0:	48 83 c4 28          	add    $0x28,%rsp
  104ae4:	5d                   	pop    %rbp
  104ae5:	c3                   	retq   
  104ae6:	66 2e 0f 1f 84 00 00 	nopw   %cs:0x0(%rax,%rax,1)
  104aed:	00 00 00 

0000000000104af0 <_ZN10multiboot215BootInformation7get_tag28_$u7b$$u7b$closure$u7d$$u7d$17h237aaaae4de488c0E>:
  104af0:	55                   	push   %rbp
  104af1:	48 89 e5             	mov    %rsp,%rbp
  104af4:	48 83 ec 28          	sub    $0x28,%rsp
  104af8:	48 89 7d f0          	mov    %rdi,-0x10(%rbp)
  104afc:	48 89 75 e8          	mov    %rsi,-0x18(%rbp)
  104b00:	48 8b 45 e8          	mov    -0x18(%rbp),%rax
  104b04:	48 89 45 e0          	mov    %rax,-0x20(%rbp)
  104b08:	48 8b 45 e0          	mov    -0x20(%rbp),%rax
  104b0c:	48 8b 00             	mov    (%rax),%rax
  104b0f:	8b 08                	mov    (%rax),%ecx
  104b11:	48 8b 45 f0          	mov    -0x10(%rbp),%rax
  104b15:	48 8b 00             	mov    (%rax),%rax
  104b18:	3b 08                	cmp    (%rax),%ecx
  104b1a:	0f 94 c2             	sete   %dl
  104b1d:	88 55 df             	mov    %dl,-0x21(%rbp)
  104b20:	8a 45 df             	mov    -0x21(%rbp),%al
  104b23:	24 01                	and    $0x1,%al
  104b25:	0f b6 c0             	movzbl %al,%eax
  104b28:	48 83 c4 28          	add    $0x28,%rsp
  104b2c:	5d                   	pop    %rbp
  104b2d:	c3                   	retq   
  104b2e:	66 90                	xchg   %ax,%ax

0000000000104b30 <_ZN4drop17h4330df09c4c43b19E>:
  104b30:	50                   	push   %rax
  104b31:	48 89 3c 24          	mov    %rdi,(%rsp)
  104b35:	58                   	pop    %rax
  104b36:	c3                   	retq   
  104b37:	66 0f 1f 84 00 00 00 	nopw   0x0(%rax,%rax,1)
  104b3e:	00 00 

0000000000104b40 <_ZN4drop17hbeeee56e4a9dc3c4E>:
  104b40:	50                   	push   %rax
  104b41:	48 89 3c 24          	mov    %rdi,(%rsp)
  104b45:	58                   	pop    %rax
  104b46:	c3                   	retq   
  104b47:	66 0f 1f 84 00 00 00 	nopw   0x0(%rax,%rax,1)
  104b4e:	00 00 

0000000000104b50 <_ZN4drop17hc05115ff0d33e6eeE>:
  104b50:	50                   	push   %rax
  104b51:	48 89 3c 24          	mov    %rdi,(%rsp)
  104b55:	58                   	pop    %rax
  104b56:	c3                   	retq   
  104b57:	66 0f 1f 84 00 00 00 	nopw   0x0(%rax,%rax,1)
  104b5e:	00 00 

0000000000104b60 <_ZN4drop17hc9dac9009221bf85E>:
  104b60:	50                   	push   %rax
  104b61:	48 89 3c 24          	mov    %rdi,(%rsp)
  104b65:	58                   	pop    %rax
  104b66:	c3                   	retq   
  104b67:	66 0f 1f 84 00 00 00 	nopw   0x0(%rax,%rax,1)
  104b6e:	00 00 

0000000000104b70 <_ZN39_$LT$u64$u20$as$u20$core..num..Zero$GT$4zero17h43a9941fa31d1f90E>:
  104b70:	50                   	push   %rax
  104b71:	eb 00                	jmp    104b73 <_ZN39_$LT$u64$u20$as$u20$core..num..Zero$GT$4zero17h43a9941fa31d1f90E+0x3>
  104b73:	31 c0                	xor    %eax,%eax
  104b75:	59                   	pop    %rcx
  104b76:	c3                   	retq   
  104b77:	66 0f 1f 84 00 00 00 	nopw   0x0(%rax,%rax,1)
  104b7e:	00 00 

0000000000104b80 <_ZN4core3num20_$LT$impl$u20$u8$GT$9max_value17he98aba8516cdc4dcE>:
  104b80:	48 83 ec 01          	sub    $0x1,%rsp
  104b84:	eb 00                	jmp    104b86 <_ZN4core3num20_$LT$impl$u20$u8$GT$9max_value17he98aba8516cdc4dcE+0x6>
  104b86:	b0 ff                	mov    $0xff,%al
  104b88:	48 83 c4 01          	add    $0x1,%rsp
  104b8c:	c3                   	retq   
  104b8d:	0f 1f 00             	nopl   (%rax)

0000000000104b90 <_ZN4core3num21_$LT$impl$u20$u32$GT$9max_value17hea799cf529f65d01E>:
  104b90:	48 83 ec 04          	sub    $0x4,%rsp
  104b94:	eb 00                	jmp    104b96 <_ZN4core3num21_$LT$impl$u20$u32$GT$9max_value17hea799cf529f65d01E+0x6>
  104b96:	b8 ff ff ff ff       	mov    $0xffffffff,%eax
  104b9b:	48 83 c4 04          	add    $0x4,%rsp
  104b9f:	c3                   	retq   

0000000000104ba0 <_ZN4core3num21_$LT$impl$u20$u32$GT$12wrapping_add17hf16f0110270c0aa9E>:
  104ba0:	48 83 ec 14          	sub    $0x14,%rsp
  104ba4:	89 7c 24 08          	mov    %edi,0x8(%rsp)
  104ba8:	89 74 24 04          	mov    %esi,0x4(%rsp)
  104bac:	8b 44 24 08          	mov    0x8(%rsp),%eax
  104bb0:	8b 4c 24 04          	mov    0x4(%rsp),%ecx
  104bb4:	01 c8                	add    %ecx,%eax
  104bb6:	89 44 24 0c          	mov    %eax,0xc(%rsp)
  104bba:	8b 44 24 0c          	mov    0xc(%rsp),%eax
  104bbe:	89 04 24             	mov    %eax,(%rsp)
  104bc1:	8b 04 24             	mov    (%rsp),%eax
  104bc4:	48 83 c4 14          	add    $0x14,%rsp
  104bc8:	c3                   	retq   
  104bc9:	0f 1f 80 00 00 00 00 	nopl   0x0(%rax)

0000000000104bd0 <_ZN4core3num21_$LT$impl$u20$u64$GT$12wrapping_add17h8eb4ef31a4a29a8cE>:
  104bd0:	48 83 ec 28          	sub    $0x28,%rsp
  104bd4:	48 89 7c 24 10       	mov    %rdi,0x10(%rsp)
  104bd9:	48 89 74 24 08       	mov    %rsi,0x8(%rsp)
  104bde:	48 8b 44 24 10       	mov    0x10(%rsp),%rax
  104be3:	48 8b 4c 24 08       	mov    0x8(%rsp),%rcx
  104be8:	48 01 c8             	add    %rcx,%rax
  104beb:	48 89 44 24 18       	mov    %rax,0x18(%rsp)
  104bf0:	48 8b 44 24 18       	mov    0x18(%rsp),%rax
  104bf5:	48 89 04 24          	mov    %rax,(%rsp)
  104bf9:	48 8b 04 24          	mov    (%rsp),%rax
  104bfd:	48 83 c4 28          	add    $0x28,%rsp
  104c01:	c3                   	retq   
  104c02:	66 2e 0f 1f 84 00 00 	nopw   %cs:0x0(%rax,%rax,1)
  104c09:	00 00 00 
  104c0c:	0f 1f 40 00          	nopl   0x0(%rax)

0000000000104c10 <_ZN4core3num23_$LT$impl$u20$usize$GT$9max_value17hfbfe9015056267ffE>:
  104c10:	50                   	push   %rax
  104c11:	eb 00                	jmp    104c13 <_ZN4core3num23_$LT$impl$u20$usize$GT$9max_value17hfbfe9015056267ffE+0x3>
  104c13:	48 c7 c0 ff ff ff ff 	mov    $0xffffffffffffffff,%rax
  104c1a:	59                   	pop    %rcx
  104c1b:	c3                   	retq   
  104c1c:	0f 1f 40 00          	nopl   0x0(%rax)

0000000000104c20 <_ZN4core3num23_$LT$impl$u20$usize$GT$12wrapping_sub17hc8158ca7d9aebd84E>:
  104c20:	48 83 ec 28          	sub    $0x28,%rsp
  104c24:	48 89 7c 24 10       	mov    %rdi,0x10(%rsp)
  104c29:	48 89 74 24 08       	mov    %rsi,0x8(%rsp)
  104c2e:	48 8b 44 24 10       	mov    0x10(%rsp),%rax
  104c33:	48 8b 4c 24 08       	mov    0x8(%rsp),%rcx
  104c38:	48 29 c8             	sub    %rcx,%rax
  104c3b:	48 89 44 24 18       	mov    %rax,0x18(%rsp)
  104c40:	48 8b 44 24 18       	mov    0x18(%rsp),%rax
  104c45:	48 89 04 24          	mov    %rax,(%rsp)
  104c49:	48 8b 04 24          	mov    (%rsp),%rax
  104c4d:	48 83 c4 28          	add    $0x28,%rsp
  104c51:	c3                   	retq   
  104c52:	66 2e 0f 1f 84 00 00 	nopw   %cs:0x0(%rax,%rax,1)
  104c59:	00 00 00 
  104c5c:	0f 1f 40 00          	nopl   0x0(%rax)

0000000000104c60 <_ZN4core3mem6forget17h75fdb96bad032ef5E>:
  104c60:	50                   	push   %rax
  104c61:	48 89 3c 24          	mov    %rdi,(%rsp)
  104c65:	eb 00                	jmp    104c67 <_ZN4core3mem6forget17h75fdb96bad032ef5E+0x7>
  104c67:	eb 00                	jmp    104c69 <_ZN4core3mem6forget17h75fdb96bad032ef5E+0x9>
  104c69:	eb 00                	jmp    104c6b <_ZN4core3mem6forget17h75fdb96bad032ef5E+0xb>
  104c6b:	58                   	pop    %rax
  104c6c:	c3                   	retq   
  104c6d:	0f 1f 00             	nopl   (%rax)

0000000000104c70 <_ZN4core3mem7size_of17h1938af5aae08a1a4E>:
  104c70:	48 83 ec 18          	sub    $0x18,%rsp
  104c74:	48 c7 44 24 08 10 00 	movq   $0x10,0x8(%rsp)
  104c7b:	00 00 
  104c7d:	48 8b 44 24 08       	mov    0x8(%rsp),%rax
  104c82:	48 89 04 24          	mov    %rax,(%rsp)
  104c86:	48 8b 04 24          	mov    (%rsp),%rax
  104c8a:	48 83 c4 18          	add    $0x18,%rsp
  104c8e:	c3                   	retq   
  104c8f:	90                   	nop

0000000000104c90 <_ZN4core3mem7size_of17h23710f381bc230bdE>:
  104c90:	48 83 ec 18          	sub    $0x18,%rsp
  104c94:	48 c7 44 24 08 40 00 	movq   $0x40,0x8(%rsp)
  104c9b:	00 00 
  104c9d:	48 8b 44 24 08       	mov    0x8(%rsp),%rax
  104ca2:	48 89 04 24          	mov    %rax,(%rsp)
  104ca6:	48 8b 04 24          	mov    (%rsp),%rax
  104caa:	48 83 c4 18          	add    $0x18,%rsp
  104cae:	c3                   	retq   
  104caf:	90                   	nop

0000000000104cb0 <_ZN4core3mem7size_of17hb50227bb32dde6e0E>:
  104cb0:	48 83 ec 18          	sub    $0x18,%rsp
  104cb4:	48 c7 44 24 08 10 00 	movq   $0x10,0x8(%rsp)
  104cbb:	00 00 
  104cbd:	48 8b 44 24 08       	mov    0x8(%rsp),%rax
  104cc2:	48 89 04 24          	mov    %rax,(%rsp)
  104cc6:	48 8b 04 24          	mov    (%rsp),%rax
  104cca:	48 83 c4 18          	add    $0x18,%rsp
  104cce:	c3                   	retq   
  104ccf:	90                   	nop

0000000000104cd0 <_ZN4core3mem7size_of17hb7c38d54091f1b39E>:
  104cd0:	48 83 ec 18          	sub    $0x18,%rsp
  104cd4:	48 c7 44 24 08 01 00 	movq   $0x1,0x8(%rsp)
  104cdb:	00 00 
  104cdd:	48 8b 44 24 08       	mov    0x8(%rsp),%rax
  104ce2:	48 89 04 24          	mov    %rax,(%rsp)
  104ce6:	48 8b 04 24          	mov    (%rsp),%rax
  104cea:	48 83 c4 18          	add    $0x18,%rsp
  104cee:	c3                   	retq   
  104cef:	90                   	nop

0000000000104cf0 <_ZN4core3mem13uninitialized17h4344f60e5097a3ffE>:
  104cf0:	50                   	push   %rax
  104cf1:	48 89 3c 24          	mov    %rdi,(%rsp)
  104cf5:	eb 00                	jmp    104cf7 <_ZN4core3mem13uninitialized17h4344f60e5097a3ffE+0x7>
  104cf7:	eb 00                	jmp    104cf9 <_ZN4core3mem13uninitialized17h4344f60e5097a3ffE+0x9>
  104cf9:	48 8b 04 24          	mov    (%rsp),%rax
  104cfd:	59                   	pop    %rcx
  104cfe:	c3                   	retq   
  104cff:	90                   	nop

0000000000104d00 <_ZN4core3mem13uninitialized17hcc7bbf736b8e680eE>:
  104d00:	48 83 ec 18          	sub    $0x18,%rsp
  104d04:	48 8b 44 24 08       	mov    0x8(%rsp),%rax
  104d09:	48 89 04 24          	mov    %rax,(%rsp)
  104d0d:	48 8b 04 24          	mov    (%rsp),%rax
  104d11:	48 83 c4 18          	add    $0x18,%rsp
  104d15:	c3                   	retq   
  104d16:	66 2e 0f 1f 84 00 00 	nopw   %cs:0x0(%rax,%rax,1)
  104d1d:	00 00 00 

0000000000104d20 <_ZN4core3mem4swap17he49de6341082a5f9E>:
  104d20:	48 83 ec 28          	sub    $0x28,%rsp
  104d24:	48 89 7c 24 10       	mov    %rdi,0x10(%rsp)
  104d29:	48 89 74 24 08       	mov    %rsi,0x8(%rsp)
  104d2e:	e8 cd ff ff ff       	callq  104d00 <_ZN4core3mem13uninitialized17hcc7bbf736b8e680eE>
  104d33:	48 89 44 24 20       	mov    %rax,0x20(%rsp)
  104d38:	48 8b 44 24 10       	mov    0x10(%rsp),%rax
  104d3d:	48 8b 08             	mov    (%rax),%rcx
  104d40:	48 89 4c 24 20       	mov    %rcx,0x20(%rsp)
  104d45:	48 8b 44 24 08       	mov    0x8(%rsp),%rax
  104d4a:	48 8b 08             	mov    (%rax),%rcx
  104d4d:	48 8b 54 24 10       	mov    0x10(%rsp),%rdx
  104d52:	48 89 0a             	mov    %rcx,(%rdx)
  104d55:	48 8b 44 24 20       	mov    0x20(%rsp),%rax
  104d5a:	48 8b 4c 24 08       	mov    0x8(%rsp),%rcx
  104d5f:	48 89 01             	mov    %rax,(%rcx)
  104d62:	48 8b 7c 24 20       	mov    0x20(%rsp),%rdi
  104d67:	e8 f4 fe ff ff       	callq  104c60 <_ZN4core3mem6forget17h75fdb96bad032ef5E>
  104d6c:	48 83 c4 28          	add    $0x28,%rsp
  104d70:	c3                   	retq   
  104d71:	66 2e 0f 1f 84 00 00 	nopw   %cs:0x0(%rax,%rax,1)
  104d78:	00 00 00 
  104d7b:	0f 1f 44 00 00       	nopl   0x0(%rax,%rax,1)

0000000000104d80 <_ZN4core3ptr4null17h143e56713b0a38bfE>:
  104d80:	50                   	push   %rax
  104d81:	eb 00                	jmp    104d83 <_ZN4core3ptr4null17h143e56713b0a38bfE+0x3>
  104d83:	31 c0                	xor    %eax,%eax
  104d85:	59                   	pop    %rcx
  104d86:	c3                   	retq   
  104d87:	66 0f 1f 84 00 00 00 	nopw   0x0(%rax,%rax,1)
  104d8e:	00 00 

0000000000104d90 <_ZN4core3ptr4null17h23a81723ef2cefcdE>:
  104d90:	50                   	push   %rax
  104d91:	eb 00                	jmp    104d93 <_ZN4core3ptr4null17h23a81723ef2cefcdE+0x3>
  104d93:	31 c0                	xor    %eax,%eax
  104d95:	59                   	pop    %rcx
  104d96:	c3                   	retq   
  104d97:	66 0f 1f 84 00 00 00 	nopw   0x0(%rax,%rax,1)
  104d9e:	00 00 

0000000000104da0 <_ZN4core3ptr4null17h38bc82616197e7b7E>:
  104da0:	50                   	push   %rax
  104da1:	eb 00                	jmp    104da3 <_ZN4core3ptr4null17h38bc82616197e7b7E+0x3>
  104da3:	31 c0                	xor    %eax,%eax
  104da5:	59                   	pop    %rcx
  104da6:	c3                   	retq   
  104da7:	66 0f 1f 84 00 00 00 	nopw   0x0(%rax,%rax,1)
  104dae:	00 00 

0000000000104db0 <_ZN4core3ptr4null17hf2baa5295ee72813E>:
  104db0:	50                   	push   %rax
  104db1:	eb 00                	jmp    104db3 <_ZN4core3ptr4null17hf2baa5295ee72813E+0x3>
  104db3:	31 c0                	xor    %eax,%eax
  104db5:	59                   	pop    %rcx
  104db6:	c3                   	retq   
  104db7:	66 0f 1f 84 00 00 00 	nopw   0x0(%rax,%rax,1)
  104dbe:	00 00 

0000000000104dc0 <_ZN4core3ptr8null_mut17he059b5774693e1eeE>:
  104dc0:	50                   	push   %rax
  104dc1:	eb 00                	jmp    104dc3 <_ZN4core3ptr8null_mut17he059b5774693e1eeE+0x3>
  104dc3:	31 c0                	xor    %eax,%eax
  104dc5:	59                   	pop    %rcx
  104dc6:	c3                   	retq   
  104dc7:	66 0f 1f 84 00 00 00 	nopw   0x0(%rax,%rax,1)
  104dce:	00 00 

0000000000104dd0 <_ZN4core3ptr33_$LT$impl$u20$$BP$const$u20$T$GT$7is_null17h21634c72833c3b8dE>:
  104dd0:	48 83 ec 18          	sub    $0x18,%rsp
  104dd4:	48 89 7c 24 08       	mov    %rdi,0x8(%rsp)
  104dd9:	e8 d2 ff ff ff       	callq  104db0 <_ZN4core3ptr4null17hf2baa5295ee72813E>
  104dde:	48 89 04 24          	mov    %rax,(%rsp)
  104de2:	48 8b 44 24 08       	mov    0x8(%rsp),%rax
  104de7:	48 8b 0c 24          	mov    (%rsp),%rcx
  104deb:	48 39 c8             	cmp    %rcx,%rax
  104dee:	0f 94 c2             	sete   %dl
  104df1:	80 e2 01             	and    $0x1,%dl
  104df4:	0f b6 c2             	movzbl %dl,%eax
  104df7:	48 83 c4 18          	add    $0x18,%rsp
  104dfb:	c3                   	retq   
  104dfc:	0f 1f 40 00          	nopl   0x0(%rax)

0000000000104e00 <_ZN4core3ptr33_$LT$impl$u20$$BP$const$u20$T$GT$7is_null17h99216fd405cc08a2E>:
  104e00:	48 83 ec 18          	sub    $0x18,%rsp
  104e04:	48 89 7c 24 08       	mov    %rdi,0x8(%rsp)
  104e09:	e8 92 ff ff ff       	callq  104da0 <_ZN4core3ptr4null17h38bc82616197e7b7E>
  104e0e:	48 89 04 24          	mov    %rax,(%rsp)
  104e12:	48 8b 44 24 08       	mov    0x8(%rsp),%rax
  104e17:	48 8b 0c 24          	mov    (%rsp),%rcx
  104e1b:	48 39 c8             	cmp    %rcx,%rax
  104e1e:	0f 94 c2             	sete   %dl
  104e21:	80 e2 01             	and    $0x1,%dl
  104e24:	0f b6 c2             	movzbl %dl,%eax
  104e27:	48 83 c4 18          	add    $0x18,%rsp
  104e2b:	c3                   	retq   
  104e2c:	0f 1f 40 00          	nopl   0x0(%rax)

0000000000104e30 <_ZN4core3ptr33_$LT$impl$u20$$BP$const$u20$T$GT$7is_null17hd68c1a3d68c0869bE>:
  104e30:	48 83 ec 18          	sub    $0x18,%rsp
  104e34:	48 89 7c 24 08       	mov    %rdi,0x8(%rsp)
  104e39:	e8 42 ff ff ff       	callq  104d80 <_ZN4core3ptr4null17h143e56713b0a38bfE>
  104e3e:	48 89 04 24          	mov    %rax,(%rsp)
  104e42:	48 8b 44 24 08       	mov    0x8(%rsp),%rax
  104e47:	48 8b 0c 24          	mov    (%rsp),%rcx
  104e4b:	48 39 c8             	cmp    %rcx,%rax
  104e4e:	0f 94 c2             	sete   %dl
  104e51:	80 e2 01             	and    $0x1,%dl
  104e54:	0f b6 c2             	movzbl %dl,%eax
  104e57:	48 83 c4 18          	add    $0x18,%rsp
  104e5b:	c3                   	retq   
  104e5c:	0f 1f 40 00          	nopl   0x0(%rax)

0000000000104e60 <_ZN4core3ptr33_$LT$impl$u20$$BP$const$u20$T$GT$7is_null17hfa0cebb9f0a20ce0E>:
  104e60:	48 83 ec 18          	sub    $0x18,%rsp
  104e64:	48 89 7c 24 08       	mov    %rdi,0x8(%rsp)
  104e69:	e8 22 ff ff ff       	callq  104d90 <_ZN4core3ptr4null17h23a81723ef2cefcdE>
  104e6e:	48 89 04 24          	mov    %rax,(%rsp)
  104e72:	48 8b 44 24 08       	mov    0x8(%rsp),%rax
  104e77:	48 8b 0c 24          	mov    (%rsp),%rcx
  104e7b:	48 39 c8             	cmp    %rcx,%rax
  104e7e:	0f 94 c2             	sete   %dl
  104e81:	80 e2 01             	and    $0x1,%dl
  104e84:	0f b6 c2             	movzbl %dl,%eax
  104e87:	48 83 c4 18          	add    $0x18,%rsp
  104e8b:	c3                   	retq   
  104e8c:	0f 1f 40 00          	nopl   0x0(%rax)

0000000000104e90 <_ZN4core3ptr33_$LT$impl$u20$$BP$const$u20$T$GT$6offset17h0d62b7cbced53ff4E>:
  104e90:	48 83 ec 28          	sub    $0x28,%rsp
  104e94:	48 89 7c 24 10       	mov    %rdi,0x10(%rsp)
  104e99:	48 89 74 24 08       	mov    %rsi,0x8(%rsp)
  104e9e:	48 8b 44 24 10       	mov    0x10(%rsp),%rax
  104ea3:	48 8b 4c 24 08       	mov    0x8(%rsp),%rcx
  104ea8:	48 01 c8             	add    %rcx,%rax
  104eab:	48 89 44 24 18       	mov    %rax,0x18(%rsp)
  104eb0:	48 8b 44 24 18       	mov    0x18(%rsp),%rax
  104eb5:	48 89 04 24          	mov    %rax,(%rsp)
  104eb9:	48 8b 04 24          	mov    (%rsp),%rax
  104ebd:	48 83 c4 28          	add    $0x28,%rsp
  104ec1:	c3                   	retq   
  104ec2:	66 2e 0f 1f 84 00 00 	nopw   %cs:0x0(%rax,%rax,1)
  104ec9:	00 00 00 
  104ecc:	0f 1f 40 00          	nopl   0x0(%rax)

0000000000104ed0 <_ZN4core3ptr33_$LT$impl$u20$$BP$const$u20$T$GT$6offset17ha082c373f8ad8d3bE>:
  104ed0:	48 83 ec 28          	sub    $0x28,%rsp
  104ed4:	48 89 7c 24 10       	mov    %rdi,0x10(%rsp)
  104ed9:	48 89 74 24 08       	mov    %rsi,0x8(%rsp)
  104ede:	48 8b 44 24 08       	mov    0x8(%rsp),%rax
  104ee3:	48 c1 e0 04          	shl    $0x4,%rax
  104ee7:	48 8b 4c 24 10       	mov    0x10(%rsp),%rcx
  104eec:	48 01 c1             	add    %rax,%rcx
  104eef:	48 89 4c 24 18       	mov    %rcx,0x18(%rsp)
  104ef4:	48 8b 44 24 18       	mov    0x18(%rsp),%rax
  104ef9:	48 89 04 24          	mov    %rax,(%rsp)
  104efd:	48 8b 04 24          	mov    (%rsp),%rax
  104f01:	48 83 c4 28          	add    $0x28,%rsp
  104f05:	c3                   	retq   
  104f06:	66 2e 0f 1f 84 00 00 	nopw   %cs:0x0(%rax,%rax,1)
  104f0d:	00 00 00 

0000000000104f10 <_ZN4core3ptr33_$LT$impl$u20$$BP$const$u20$T$GT$6offset17hb2ae816dc4960c6cE>:
  104f10:	48 83 ec 28          	sub    $0x28,%rsp
  104f14:	48 89 7c 24 10       	mov    %rdi,0x10(%rsp)
  104f19:	48 89 74 24 08       	mov    %rsi,0x8(%rsp)
  104f1e:	48 8b 44 24 08       	mov    0x8(%rsp),%rax
  104f23:	48 c1 e0 06          	shl    $0x6,%rax
  104f27:	48 8b 4c 24 10       	mov    0x10(%rsp),%rcx
  104f2c:	48 01 c1             	add    %rax,%rcx
  104f2f:	48 89 4c 24 18       	mov    %rcx,0x18(%rsp)
  104f34:	48 8b 44 24 18       	mov    0x18(%rsp),%rax
  104f39:	48 89 04 24          	mov    %rax,(%rsp)
  104f3d:	48 8b 04 24          	mov    (%rsp),%rax
  104f41:	48 83 c4 28          	add    $0x28,%rsp
  104f45:	c3                   	retq   
  104f46:	66 2e 0f 1f 84 00 00 	nopw   %cs:0x0(%rax,%rax,1)
  104f4d:	00 00 00 

0000000000104f50 <_ZN4core3ptr33_$LT$impl$u20$$BP$const$u20$T$GT$6offset17heb747abc29f3bd4aE>:
  104f50:	48 83 ec 28          	sub    $0x28,%rsp
  104f54:	48 89 7c 24 10       	mov    %rdi,0x10(%rsp)
  104f59:	48 89 74 24 08       	mov    %rsi,0x8(%rsp)
  104f5e:	48 8b 44 24 08       	mov    0x8(%rsp),%rax
  104f63:	48 c1 e0 04          	shl    $0x4,%rax
  104f67:	48 8b 4c 24 10       	mov    0x10(%rsp),%rcx
  104f6c:	48 01 c1             	add    %rax,%rcx
  104f6f:	48 89 4c 24 18       	mov    %rcx,0x18(%rsp)
  104f74:	48 8b 44 24 18       	mov    0x18(%rsp),%rax
  104f79:	48 89 04 24          	mov    %rax,(%rsp)
  104f7d:	48 8b 04 24          	mov    (%rsp),%rax
  104f81:	48 83 c4 28          	add    $0x28,%rsp
  104f85:	c3                   	retq   
  104f86:	66 2e 0f 1f 84 00 00 	nopw   %cs:0x0(%rax,%rax,1)
  104f8d:	00 00 00 

0000000000104f90 <_ZN4core3ptr31_$LT$impl$u20$$BP$mut$u20$T$GT$7is_null17hd48a02205a55039bE>:
  104f90:	48 83 ec 18          	sub    $0x18,%rsp
  104f94:	48 89 7c 24 08       	mov    %rdi,0x8(%rsp)
  104f99:	e8 22 fe ff ff       	callq  104dc0 <_ZN4core3ptr8null_mut17he059b5774693e1eeE>
  104f9e:	48 89 04 24          	mov    %rax,(%rsp)
  104fa2:	48 8b 44 24 08       	mov    0x8(%rsp),%rax
  104fa7:	48 8b 0c 24          	mov    (%rsp),%rcx
  104fab:	48 39 c8             	cmp    %rcx,%rax
  104fae:	0f 94 c2             	sete   %dl
  104fb1:	80 e2 01             	and    $0x1,%dl
  104fb4:	0f b6 c2             	movzbl %dl,%eax
  104fb7:	48 83 c4 18          	add    $0x18,%rsp
  104fbb:	c3                   	retq   
  104fbc:	0f 1f 40 00          	nopl   0x0(%rax)

0000000000104fc0 <_ZN4core3ptr31_$LT$impl$u20$$BP$mut$u20$T$GT$6offset17hd699195ba756a29fE>:
  104fc0:	48 83 ec 28          	sub    $0x28,%rsp
  104fc4:	48 89 7c 24 10       	mov    %rdi,0x10(%rsp)
  104fc9:	48 89 74 24 08       	mov    %rsi,0x8(%rsp)
  104fce:	48 8b 44 24 10       	mov    0x10(%rsp),%rax
  104fd3:	48 8b 4c 24 08       	mov    0x8(%rsp),%rcx
  104fd8:	48 01 c8             	add    %rcx,%rax
  104fdb:	48 89 44 24 18       	mov    %rax,0x18(%rsp)
  104fe0:	48 8b 44 24 18       	mov    0x18(%rsp),%rax
  104fe5:	48 89 04 24          	mov    %rax,(%rsp)
  104fe9:	48 8b 04 24          	mov    (%rsp),%rax
  104fed:	48 83 c4 28          	add    $0x28,%rsp
  104ff1:	c3                   	retq   
  104ff2:	66 2e 0f 1f 84 00 00 	nopw   %cs:0x0(%rax,%rax,1)
  104ff9:	00 00 00 
  104ffc:	0f 1f 40 00          	nopl   0x0(%rax)

0000000000105000 <_ZN38_$LT$u64$u20$as$u20$core..ops..Sub$GT$3sub17hea9cb14291813c39E>:
  105000:	48 83 ec 28          	sub    $0x28,%rsp
  105004:	48 89 7c 24 18       	mov    %rdi,0x18(%rsp)
  105009:	48 89 74 24 10       	mov    %rsi,0x10(%rsp)
  10500e:	48 8b 44 24 18       	mov    0x18(%rsp),%rax
  105013:	48 8b 4c 24 10       	mov    0x10(%rsp),%rcx
  105018:	48 29 c8             	sub    %rcx,%rax
  10501b:	0f 92 c2             	setb   %dl
  10501e:	f6 c2 01             	test   $0x1,%dl
  105021:	48 89 44 24 08       	mov    %rax,0x8(%rsp)
  105026:	75 0a                	jne    105032 <_ZN38_$LT$u64$u20$as$u20$core..ops..Sub$GT$3sub17hea9cb14291813c39E+0x32>
  105028:	48 8b 44 24 08       	mov    0x8(%rsp),%rax
  10502d:	48 83 c4 28          	add    $0x28,%rsp
  105031:	c3                   	retq   
  105032:	48 8d 3d 77 b6 00 00 	lea    0xb677(%rip),%rdi        # 1106b0 <panic_loc14309>
  105039:	e8 52 04 00 00       	callq  105490 <_ZN4core9panicking5panic17h585bd70cda921012E>
  10503e:	66 90                	xchg   %ax,%ax

0000000000105040 <_ZN38_$LT$u64$u20$as$u20$core..ops..Div$GT$3div17hc2913abea99d2ae2E>:
  105040:	48 83 ec 18          	sub    $0x18,%rsp
  105044:	48 89 7c 24 08       	mov    %rdi,0x8(%rsp)
  105049:	48 89 34 24          	mov    %rsi,(%rsp)
  10504d:	48 8b 04 24          	mov    (%rsp),%rax
  105051:	48 83 f8 00          	cmp    $0x0,%rax
  105055:	0f 94 c1             	sete   %cl
  105058:	f6 c1 01             	test   $0x1,%cl
  10505b:	75 15                	jne    105072 <_ZN38_$LT$u64$u20$as$u20$core..ops..Div$GT$3div17hc2913abea99d2ae2E+0x32>
  10505d:	48 8b 44 24 08       	mov    0x8(%rsp),%rax
  105062:	31 c9                	xor    %ecx,%ecx
  105064:	89 ca                	mov    %ecx,%edx
  105066:	48 8b 34 24          	mov    (%rsp),%rsi
  10506a:	48 f7 f6             	div    %rsi
  10506d:	48 83 c4 18          	add    $0x18,%rsp
  105071:	c3                   	retq   
  105072:	48 8d 3d 5f b6 00 00 	lea    0xb65f(%rip),%rdi        # 1106d8 <panic_loc14311>
  105079:	e8 12 04 00 00       	callq  105490 <_ZN4core9panicking5panic17h585bd70cda921012E>
  10507e:	66 90                	xchg   %ax,%ax

0000000000105080 <_ZN38_$LT$u64$u20$as$u20$core..ops..Rem$GT$3rem17h63209e7e002e6a41E>:
  105080:	48 83 ec 18          	sub    $0x18,%rsp
  105084:	48 89 7c 24 08       	mov    %rdi,0x8(%rsp)
  105089:	48 89 34 24          	mov    %rsi,(%rsp)
  10508d:	48 8b 04 24          	mov    (%rsp),%rax
  105091:	48 83 f8 00          	cmp    $0x0,%rax
  105095:	0f 94 c1             	sete   %cl
  105098:	f6 c1 01             	test   $0x1,%cl
  10509b:	75 18                	jne    1050b5 <_ZN38_$LT$u64$u20$as$u20$core..ops..Rem$GT$3rem17h63209e7e002e6a41E+0x35>
  10509d:	48 8b 44 24 08       	mov    0x8(%rsp),%rax
  1050a2:	31 c9                	xor    %ecx,%ecx
  1050a4:	89 ca                	mov    %ecx,%edx
  1050a6:	48 8b 34 24          	mov    (%rsp),%rsi
  1050aa:	48 f7 f6             	div    %rsi
  1050ad:	48 89 d0             	mov    %rdx,%rax
  1050b0:	48 83 c4 18          	add    $0x18,%rsp
  1050b4:	c3                   	retq   
  1050b5:	48 8d 3d 44 b6 00 00 	lea    0xb644(%rip),%rdi        # 110700 <panic_loc14313>
  1050bc:	e8 cf 03 00 00       	callq  105490 <_ZN4core9panicking5panic17h585bd70cda921012E>
  1050c1:	66 2e 0f 1f 84 00 00 	nopw   %cs:0x0(%rax,%rax,1)
  1050c8:	00 00 00 
  1050cb:	0f 1f 44 00 00       	nopl   0x0(%rax,%rax,1)

00000000001050d0 <_ZN4core3cmp5impls56_$LT$impl$u20$core..cmp..PartialEq$u20$for$u20$usize$GT$2eq17h52fdec58a06cfc09E>:
  1050d0:	48 83 ec 20          	sub    $0x20,%rsp
  1050d4:	48 89 7c 24 10       	mov    %rdi,0x10(%rsp)
  1050d9:	48 89 74 24 08       	mov    %rsi,0x8(%rsp)
  1050de:	48 8b 44 24 10       	mov    0x10(%rsp),%rax
  1050e3:	48 8b 08             	mov    (%rax),%rcx
  1050e6:	48 8b 54 24 08       	mov    0x8(%rsp),%rdx
  1050eb:	48 3b 0a             	cmp    (%rdx),%rcx
  1050ee:	40 0f 94 c6          	sete   %sil
  1050f2:	40 88 74 24 07       	mov    %sil,0x7(%rsp)
  1050f7:	8a 44 24 07          	mov    0x7(%rsp),%al
  1050fb:	24 01                	and    $0x1,%al
  1050fd:	0f b6 c0             	movzbl %al,%eax
  105100:	48 83 c4 20          	add    $0x20,%rsp
  105104:	c3                   	retq   
  105105:	66 2e 0f 1f 84 00 00 	nopw   %cs:0x0(%rax,%rax,1)
  10510c:	00 00 00 
  10510f:	90                   	nop

0000000000105110 <_ZN4core3cmp5impls54_$LT$impl$u20$core..cmp..PartialEq$u20$for$u20$u64$GT$2eq17h85487a84f5335159E>:
  105110:	48 83 ec 20          	sub    $0x20,%rsp
  105114:	48 89 7c 24 10       	mov    %rdi,0x10(%rsp)
  105119:	48 89 74 24 08       	mov    %rsi,0x8(%rsp)
  10511e:	48 8b 44 24 10       	mov    0x10(%rsp),%rax
  105123:	48 8b 08             	mov    (%rax),%rcx
  105126:	48 8b 54 24 08       	mov    0x8(%rsp),%rdx
  10512b:	48 3b 0a             	cmp    (%rdx),%rcx
  10512e:	40 0f 94 c6          	sete   %sil
  105132:	40 88 74 24 07       	mov    %sil,0x7(%rsp)
  105137:	8a 44 24 07          	mov    0x7(%rsp),%al
  10513b:	24 01                	and    $0x1,%al
  10513d:	0f b6 c0             	movzbl %al,%eax
  105140:	48 83 c4 20          	add    $0x20,%rsp
  105144:	c3                   	retq   
  105145:	66 2e 0f 1f 84 00 00 	nopw   %cs:0x0(%rax,%rax,1)
  10514c:	00 00 00 
  10514f:	90                   	nop

0000000000105150 <_ZN4core3cmp5impls57_$LT$impl$u20$core..cmp..PartialOrd$u20$for$u20$usize$GT$2lt17hd644d2d93a548c2aE>:
  105150:	48 83 ec 20          	sub    $0x20,%rsp
  105154:	48 89 7c 24 10       	mov    %rdi,0x10(%rsp)
  105159:	48 89 74 24 08       	mov    %rsi,0x8(%rsp)
  10515e:	48 8b 44 24 10       	mov    0x10(%rsp),%rax
  105163:	48 8b 08             	mov    (%rax),%rcx
  105166:	48 8b 54 24 08       	mov    0x8(%rsp),%rdx
  10516b:	48 3b 0a             	cmp    (%rdx),%rcx
  10516e:	40 0f 92 c6          	setb   %sil
  105172:	40 88 74 24 07       	mov    %sil,0x7(%rsp)
  105177:	8a 44 24 07          	mov    0x7(%rsp),%al
  10517b:	24 01                	and    $0x1,%al
  10517d:	0f b6 c0             	movzbl %al,%eax
  105180:	48 83 c4 20          	add    $0x20,%rsp
  105184:	c3                   	retq   
  105185:	66 2e 0f 1f 84 00 00 	nopw   %cs:0x0(%rax,%rax,1)
  10518c:	00 00 00 
  10518f:	90                   	nop

0000000000105190 <_ZN4core3cmp5impls55_$LT$impl$u20$core..cmp..PartialOrd$u20$for$u20$u64$GT$2ge17h2752b4df72fdfc82E>:
  105190:	48 83 ec 20          	sub    $0x20,%rsp
  105194:	48 89 7c 24 10       	mov    %rdi,0x10(%rsp)
  105199:	48 89 74 24 08       	mov    %rsi,0x8(%rsp)
  10519e:	48 8b 44 24 10       	mov    0x10(%rsp),%rax
  1051a3:	48 8b 08             	mov    (%rax),%rcx
  1051a6:	48 8b 54 24 08       	mov    0x8(%rsp),%rdx
  1051ab:	48 3b 0a             	cmp    (%rdx),%rcx
  1051ae:	40 0f 93 c6          	setae  %sil
  1051b2:	40 88 74 24 07       	mov    %sil,0x7(%rsp)
  1051b7:	8a 44 24 07          	mov    0x7(%rsp),%al
  1051bb:	24 01                	and    $0x1,%al
  1051bd:	0f b6 c0             	movzbl %al,%eax
  1051c0:	48 83 c4 20          	add    $0x20,%rsp
  1051c4:	c3                   	retq   
  1051c5:	66 2e 0f 1f 84 00 00 	nopw   %cs:0x0(%rax,%rax,1)
  1051cc:	00 00 00 
  1051cf:	90                   	nop

00000000001051d0 <_ZN51_$LT$$LP$$RP$$u20$as$u20$core..default..Default$GT$7default17h823932cc8467ad32E>:
  1051d0:	50                   	push   %rax
  1051d1:	eb 00                	jmp    1051d3 <_ZN51_$LT$$LP$$RP$$u20$as$u20$core..default..Default$GT$7default17h823932cc8467ad32E+0x3>
  1051d3:	58                   	pop    %rax
  1051d4:	c3                   	retq   
  1051d5:	66 2e 0f 1f 84 00 00 	nopw   %cs:0x0(%rax,%rax,1)
  1051dc:	00 00 00 
  1051df:	90                   	nop

00000000001051e0 <_ZN50_$LT$T$u20$as$u20$core..convert..From$LT$T$GT$$GT$4from17hde9d3f996ad54071E>:
  1051e0:	eb 00                	jmp    1051e2 <_ZN50_$LT$T$u20$as$u20$core..convert..From$LT$T$GT$$GT$4from17hde9d3f996ad54071E+0x2>
  1051e2:	eb 00                	jmp    1051e4 <_ZN50_$LT$T$u20$as$u20$core..convert..From$LT$T$GT$$GT$4from17hde9d3f996ad54071E+0x4>
  1051e4:	eb 00                	jmp    1051e6 <_ZN50_$LT$T$u20$as$u20$core..convert..From$LT$T$GT$$GT$4from17hde9d3f996ad54071E+0x6>
  1051e6:	c3                   	retq   
  1051e7:	66 0f 1f 84 00 00 00 	nopw   0x0(%rax,%rax,1)
  1051ee:	00 00 

00000000001051f0 <_ZN4core4char18from_u32_unchecked17heed2252c05bdacdfE>:
  1051f0:	48 83 ec 10          	sub    $0x10,%rsp
  1051f4:	89 7c 24 04          	mov    %edi,0x4(%rsp)
  1051f8:	8b 44 24 04          	mov    0x4(%rsp),%eax
  1051fc:	89 44 24 08          	mov    %eax,0x8(%rsp)
  105200:	8b 44 24 08          	mov    0x8(%rsp),%eax
  105204:	89 04 24             	mov    %eax,(%rsp)
  105207:	8b 04 24             	mov    (%rsp),%eax
  10520a:	48 83 c4 10          	add    $0x10,%rsp
  10520e:	c3                   	retq   
  10520f:	90                   	nop

0000000000105210 <_ZN44_$LT$char$u20$as$u20$core..char..CharExt$GT$11encode_utf817h7df4fc3325f57883E>:
  105210:	48 83 ec 78          	sub    $0x78,%rsp
  105214:	48 89 f8             	mov    %rdi,%rax
  105217:	48 89 44 24 58       	mov    %rax,0x58(%rsp)
  10521c:	89 74 24 54          	mov    %esi,0x54(%rsp)
  105220:	48 89 7c 24 48       	mov    %rdi,0x48(%rsp)
  105225:	48 8d 44 24 74       	lea    0x74(%rsp),%rax
  10522a:	48 89 c1             	mov    %rax,%rcx
  10522d:	48 83 c1 04          	add    $0x4,%rcx
  105231:	48 89 4c 24 40       	mov    %rcx,0x40(%rsp)
  105236:	48 89 44 24 38       	mov    %rax,0x38(%rsp)
  10523b:	e9 c7 01 00 00       	jmpq   105407 <_ZN44_$LT$char$u20$as$u20$core..char..CharExt$GT$11encode_utf817h7df4fc3325f57883E+0x1f7>
  105240:	eb 0d                	jmp    10524f <_ZN44_$LT$char$u20$as$u20$core..char..CharExt$GT$11encode_utf817h7df4fc3325f57883E+0x3f>
  105242:	8b 44 24 54          	mov    0x54(%rsp),%eax
  105246:	3d 00 08 00 00       	cmp    $0x800,%eax
  10524b:	72 1a                	jb     105267 <_ZN44_$LT$char$u20$as$u20$core..char..CharExt$GT$11encode_utf817h7df4fc3325f57883E+0x57>
  10524d:	eb 25                	jmp    105274 <_ZN44_$LT$char$u20$as$u20$core..char..CharExt$GT$11encode_utf817h7df4fc3325f57883E+0x64>
  10524f:	8b 44 24 54          	mov    0x54(%rsp),%eax
  105253:	88 c1                	mov    %al,%cl
  105255:	88 4c 24 77          	mov    %cl,0x77(%rsp)
  105259:	48 c7 44 24 68 03 00 	movq   $0x3,0x68(%rsp)
  105260:	00 00 
  105262:	e9 46 01 00 00       	jmpq   1053ad <_ZN44_$LT$char$u20$as$u20$core..char..CharExt$GT$11encode_utf817h7df4fc3325f57883E+0x19d>
  105267:	8b 44 24 54          	mov    0x54(%rsp),%eax
  10526b:	c1 e8 06             	shr    $0x6,%eax
  10526e:	89 44 24 34          	mov    %eax,0x34(%rsp)
  105272:	eb 0d                	jmp    105281 <_ZN44_$LT$char$u20$as$u20$core..char..CharExt$GT$11encode_utf817h7df4fc3325f57883E+0x71>
  105274:	8b 44 24 54          	mov    0x54(%rsp),%eax
  105278:	3d 00 00 01 00       	cmp    $0x10000,%eax
  10527d:	72 3e                	jb     1052bd <_ZN44_$LT$char$u20$as$u20$core..char..CharExt$GT$11encode_utf817h7df4fc3325f57883E+0xad>
  10527f:	eb 49                	jmp    1052ca <_ZN44_$LT$char$u20$as$u20$core..char..CharExt$GT$11encode_utf817h7df4fc3325f57883E+0xba>
  105281:	8b 44 24 34          	mov    0x34(%rsp),%eax
  105285:	83 e0 1f             	and    $0x1f,%eax
  105288:	88 c1                	mov    %al,%cl
  10528a:	88 4c 24 33          	mov    %cl,0x33(%rsp)
  10528e:	8a 44 24 33          	mov    0x33(%rsp),%al
  105292:	0c c0                	or     $0xc0,%al
  105294:	88 44 24 76          	mov    %al,0x76(%rsp)
  105298:	8b 4c 24 54          	mov    0x54(%rsp),%ecx
  10529c:	83 e1 3f             	and    $0x3f,%ecx
  10529f:	88 c8                	mov    %cl,%al
  1052a1:	88 44 24 32          	mov    %al,0x32(%rsp)
  1052a5:	8a 44 24 32          	mov    0x32(%rsp),%al
  1052a9:	0c 80                	or     $0x80,%al
  1052ab:	88 44 24 77          	mov    %al,0x77(%rsp)
  1052af:	48 c7 44 24 68 02 00 	movq   $0x2,0x68(%rsp)
  1052b6:	00 00 
  1052b8:	e9 f0 00 00 00       	jmpq   1053ad <_ZN44_$LT$char$u20$as$u20$core..char..CharExt$GT$11encode_utf817h7df4fc3325f57883E+0x19d>
  1052bd:	8b 44 24 54          	mov    0x54(%rsp),%eax
  1052c1:	c1 e8 0c             	shr    $0xc,%eax
  1052c4:	89 44 24 2c          	mov    %eax,0x2c(%rsp)
  1052c8:	eb 0d                	jmp    1052d7 <_ZN44_$LT$char$u20$as$u20$core..char..CharExt$GT$11encode_utf817h7df4fc3325f57883E+0xc7>
  1052ca:	8b 44 24 54          	mov    0x54(%rsp),%eax
  1052ce:	c1 e8 12             	shr    $0x12,%eax
  1052d1:	89 44 24 28          	mov    %eax,0x28(%rsp)
  1052d5:	eb 5b                	jmp    105332 <_ZN44_$LT$char$u20$as$u20$core..char..CharExt$GT$11encode_utf817h7df4fc3325f57883E+0x122>
  1052d7:	8b 44 24 2c          	mov    0x2c(%rsp),%eax
  1052db:	83 e0 0f             	and    $0xf,%eax
  1052de:	88 c1                	mov    %al,%cl
  1052e0:	88 4c 24 27          	mov    %cl,0x27(%rsp)
  1052e4:	8a 44 24 27          	mov    0x27(%rsp),%al
  1052e8:	0c e0                	or     $0xe0,%al
  1052ea:	88 44 24 75          	mov    %al,0x75(%rsp)
  1052ee:	8b 4c 24 54          	mov    0x54(%rsp),%ecx
  1052f2:	c1 e9 06             	shr    $0x6,%ecx
  1052f5:	89 4c 24 20          	mov    %ecx,0x20(%rsp)
  1052f9:	8b 44 24 20          	mov    0x20(%rsp),%eax
  1052fd:	83 e0 3f             	and    $0x3f,%eax
  105300:	88 c1                	mov    %al,%cl
  105302:	88 4c 24 1f          	mov    %cl,0x1f(%rsp)
  105306:	8a 44 24 1f          	mov    0x1f(%rsp),%al
  10530a:	0c 80                	or     $0x80,%al
  10530c:	88 44 24 76          	mov    %al,0x76(%rsp)
  105310:	8b 4c 24 54          	mov    0x54(%rsp),%ecx
  105314:	83 e1 3f             	and    $0x3f,%ecx
  105317:	88 c8                	mov    %cl,%al
  105319:	88 44 24 1e          	mov    %al,0x1e(%rsp)
  10531d:	8a 44 24 1e          	mov    0x1e(%rsp),%al
  105321:	0c 80                	or     $0x80,%al
  105323:	88 44 24 77          	mov    %al,0x77(%rsp)
  105327:	48 c7 44 24 68 01 00 	movq   $0x1,0x68(%rsp)
  10532e:	00 00 
  105330:	eb 7b                	jmp    1053ad <_ZN44_$LT$char$u20$as$u20$core..char..CharExt$GT$11encode_utf817h7df4fc3325f57883E+0x19d>
  105332:	8b 44 24 28          	mov    0x28(%rsp),%eax
  105336:	83 e0 07             	and    $0x7,%eax
  105339:	88 c1                	mov    %al,%cl
  10533b:	88 4c 24 1d          	mov    %cl,0x1d(%rsp)
  10533f:	8a 44 24 1d          	mov    0x1d(%rsp),%al
  105343:	0c f0                	or     $0xf0,%al
  105345:	88 44 24 74          	mov    %al,0x74(%rsp)
  105349:	8b 4c 24 54          	mov    0x54(%rsp),%ecx
  10534d:	c1 e9 0c             	shr    $0xc,%ecx
  105350:	89 4c 24 18          	mov    %ecx,0x18(%rsp)
  105354:	8b 44 24 18          	mov    0x18(%rsp),%eax
  105358:	83 e0 3f             	and    $0x3f,%eax
  10535b:	88 c1                	mov    %al,%cl
  10535d:	88 4c 24 17          	mov    %cl,0x17(%rsp)
  105361:	8a 44 24 17          	mov    0x17(%rsp),%al
  105365:	0c 80                	or     $0x80,%al
  105367:	88 44 24 75          	mov    %al,0x75(%rsp)
  10536b:	8b 4c 24 54          	mov    0x54(%rsp),%ecx
  10536f:	c1 e9 06             	shr    $0x6,%ecx
  105372:	89 4c 24 10          	mov    %ecx,0x10(%rsp)
  105376:	8b 44 24 10          	mov    0x10(%rsp),%eax
  10537a:	83 e0 3f             	and    $0x3f,%eax
  10537d:	88 c1                	mov    %al,%cl
  10537f:	88 4c 24 0f          	mov    %cl,0xf(%rsp)
  105383:	8a 44 24 0f          	mov    0xf(%rsp),%al
  105387:	0c 80                	or     $0x80,%al
  105389:	88 44 24 76          	mov    %al,0x76(%rsp)
  10538d:	8b 4c 24 54          	mov    0x54(%rsp),%ecx
  105391:	83 e1 3f             	and    $0x3f,%ecx
  105394:	88 c8                	mov    %cl,%al
  105396:	88 44 24 0e          	mov    %al,0xe(%rsp)
  10539a:	8a 44 24 0e          	mov    0xe(%rsp),%al
  10539e:	0c 80                	or     $0x80,%al
  1053a0:	88 44 24 77          	mov    %al,0x77(%rsp)
  1053a4:	48 c7 44 24 68 00 00 	movq   $0x0,0x68(%rsp)
  1053ab:	00 00 
  1053ad:	8a 44 24 74          	mov    0x74(%rsp),%al
  1053b1:	8a 4c 24 75          	mov    0x75(%rsp),%cl
  1053b5:	8a 54 24 76          	mov    0x76(%rsp),%dl
  1053b9:	40 8a 74 24 77       	mov    0x77(%rsp),%sil
  1053be:	40 88 74 24 67       	mov    %sil,0x67(%rsp)
  1053c3:	88 54 24 66          	mov    %dl,0x66(%rsp)
  1053c7:	88 4c 24 65          	mov    %cl,0x65(%rsp)
  1053cb:	88 44 24 64          	mov    %al,0x64(%rsp)
  1053cf:	48 8b 7c 24 68       	mov    0x68(%rsp),%rdi
  1053d4:	8a 44 24 64          	mov    0x64(%rsp),%al
  1053d8:	8a 4c 24 65          	mov    0x65(%rsp),%cl
  1053dc:	8a 54 24 66          	mov    0x66(%rsp),%dl
  1053e0:	40 8a 74 24 67       	mov    0x67(%rsp),%sil
  1053e5:	4c 8b 44 24 48       	mov    0x48(%rsp),%r8
  1053ea:	41 88 70 03          	mov    %sil,0x3(%r8)
  1053ee:	41 88 50 02          	mov    %dl,0x2(%r8)
  1053f2:	41 88 48 01          	mov    %cl,0x1(%r8)
  1053f6:	41 88 00             	mov    %al,(%r8)
  1053f9:	49 89 78 08          	mov    %rdi,0x8(%r8)
  1053fd:	48 8b 44 24 58       	mov    0x58(%rsp),%rax
  105402:	48 83 c4 78          	add    $0x78,%rsp
  105406:	c3                   	retq   
  105407:	48 8b 44 24 38       	mov    0x38(%rsp),%rax
  10540c:	48 8b 4c 24 40       	mov    0x40(%rsp),%rcx
  105411:	48 39 c8             	cmp    %rcx,%rax
  105414:	48 89 04 24          	mov    %rax,(%rsp)
  105418:	73 12                	jae    10542c <_ZN44_$LT$char$u20$as$u20$core..char..CharExt$GT$11encode_utf817h7df4fc3325f57883E+0x21c>
  10541a:	48 8b 04 24          	mov    (%rsp),%rax
  10541e:	c6 00 00             	movb   $0x0,(%rax)
  105421:	48 83 c0 01          	add    $0x1,%rax
  105425:	48 89 44 24 38       	mov    %rax,0x38(%rsp)
  10542a:	eb db                	jmp    105407 <_ZN44_$LT$char$u20$as$u20$core..char..CharExt$GT$11encode_utf817h7df4fc3325f57883E+0x1f7>
  10542c:	8b 44 24 54          	mov    0x54(%rsp),%eax
  105430:	3d 80 00 00 00       	cmp    $0x80,%eax
  105435:	0f 82 05 fe ff ff    	jb     105240 <_ZN44_$LT$char$u20$as$u20$core..char..CharExt$GT$11encode_utf817h7df4fc3325f57883E+0x30>
  10543b:	e9 02 fe ff ff       	jmpq   105242 <_ZN44_$LT$char$u20$as$u20$core..char..CharExt$GT$11encode_utf817h7df4fc3325f57883E+0x32>

0000000000105440 <_ZN4core4char10EncodeUtf88as_slice17h087b7807397e0642E>:
  105440:	48 83 ec 38          	sub    $0x38,%rsp
  105444:	48 89 7c 24 10       	mov    %rdi,0x10(%rsp)
  105449:	b8 04 00 00 00       	mov    $0x4,%eax
  10544e:	89 c6                	mov    %eax,%esi
  105450:	48 8b 4c 24 10       	mov    0x10(%rsp),%rcx
  105455:	48 8b 54 24 10       	mov    0x10(%rsp),%rdx
  10545a:	48 8b 7a 08          	mov    0x8(%rdx),%rdi
  10545e:	48 89 7c 24 20       	mov    %rdi,0x20(%rsp)
  105463:	48 89 7c 24 18       	mov    %rdi,0x18(%rsp)
  105468:	48 8b 54 24 18       	mov    0x18(%rsp),%rdx
  10546d:	48 89 cf             	mov    %rcx,%rdi
  105470:	e8 ab 28 00 00       	callq  107d20 <_ZN4core5slice99_$LT$impl$u20$core..ops..Index$LT$core..ops..RangeFrom$LT$usize$GT$$GT$$u20$for$u20$$u5b$T$u5d$$GT$5index17hed84da7d754047aaE>
  105475:	48 89 44 24 08       	mov    %rax,0x8(%rsp)
  10547a:	48 89 14 24          	mov    %rdx,(%rsp)
  10547e:	48 8b 44 24 08       	mov    0x8(%rsp),%rax
  105483:	48 8b 14 24          	mov    (%rsp),%rdx
  105487:	48 83 c4 38          	add    $0x38,%rsp
  10548b:	c3                   	retq   
  10548c:	0f 1f 40 00          	nopl   0x0(%rax)

0000000000105490 <_ZN4core9panicking5panic17h585bd70cda921012E>:
  105490:	41 56                	push   %r14
  105492:	53                   	push   %rbx
  105493:	48 83 ec 78          	sub    $0x78,%rsp
  105497:	48 89 7c 24 18       	mov    %rdi,0x18(%rsp)
  10549c:	48 8d 7c 24 48       	lea    0x48(%rsp),%rdi
  1054a1:	b8 01 00 00 00       	mov    $0x1,%eax
  1054a6:	89 c2                	mov    %eax,%edx
  1054a8:	48 8d 0d 39 a4 00 00 	lea    0xa439(%rip),%rcx        # 10f8e8 <ref14327>
  1054af:	31 c0                	xor    %eax,%eax
  1054b1:	41 89 c0             	mov    %eax,%r8d
  1054b4:	48 8d 74 24 38       	lea    0x38(%rsp),%rsi
  1054b9:	4c 8b 4c 24 18       	mov    0x18(%rsp),%r9
  1054be:	4d 8b 11             	mov    (%r9),%r10
  1054c1:	4d 8b 59 08          	mov    0x8(%r9),%r11
  1054c5:	49 8b 59 10          	mov    0x10(%r9),%rbx
  1054c9:	4d 8b 71 18          	mov    0x18(%r9),%r14
  1054cd:	41 8b 41 20          	mov    0x20(%r9),%eax
  1054d1:	4c 89 54 24 38       	mov    %r10,0x38(%rsp)
  1054d6:	4c 89 5c 24 40       	mov    %r11,0x40(%rsp)
  1054db:	4c 89 74 24 10       	mov    %r14,0x10(%rsp)
  1054e0:	89 44 24 0c          	mov    %eax,0xc(%rsp)
  1054e4:	48 89 1c 24          	mov    %rbx,(%rsp)
  1054e8:	e8 d3 6a 00 00       	callq  10bfc0 <_ZN4core3fmt9Arguments6new_v117h2ee48eb28c0cff0aE>
  1054ed:	48 8d 7c 24 48       	lea    0x48(%rsp),%rdi
  1054f2:	48 8d 74 24 20       	lea    0x20(%rsp),%rsi
  1054f7:	48 8b 04 24          	mov    (%rsp),%rax
  1054fb:	48 89 44 24 20       	mov    %rax,0x20(%rsp)
  105500:	48 8b 4c 24 10       	mov    0x10(%rsp),%rcx
  105505:	48 89 4c 24 28       	mov    %rcx,0x28(%rsp)
  10550a:	8b 54 24 0c          	mov    0xc(%rsp),%edx
  10550e:	89 54 24 30          	mov    %edx,0x30(%rsp)
  105512:	e8 49 01 00 00       	callq  105660 <_ZN4core9panicking9panic_fmt17hb567db798f4a4807E>
  105517:	66 0f 1f 84 00 00 00 	nopw   0x0(%rax,%rax,1)
  10551e:	00 00 

0000000000105520 <_ZN4core9panicking18panic_bounds_check17ha826e5548fbc34ddE>:
  105520:	48 81 ec e8 00 00 00 	sub    $0xe8,%rsp
  105527:	48 89 74 24 50       	mov    %rsi,0x50(%rsp)
  10552c:	48 89 7c 24 48       	mov    %rdi,0x48(%rsp)
  105531:	48 89 54 24 40       	mov    %rdx,0x40(%rsp)
  105536:	48 8d 84 24 e0 00 00 	lea    0xe0(%rsp),%rax
  10553d:	00 
  10553e:	48 8d 8c 24 d8 00 00 	lea    0xd8(%rsp),%rcx
  105545:	00 
  105546:	48 8b 54 24 50       	mov    0x50(%rsp),%rdx
  10554b:	48 89 94 24 e0 00 00 	mov    %rdx,0xe0(%rsp)
  105552:	00 
  105553:	48 8b 74 24 40       	mov    0x40(%rsp),%rsi
  105558:	48 89 b4 24 d8 00 00 	mov    %rsi,0xd8(%rsp)
  10555f:	00 
  105560:	48 8b 35 e9 ae 00 00 	mov    0xaee9(%rip),%rsi        # 110450 <_ZN4core4sync6atomic23atomic_compare_exchange14_MSG_FILE_LINE17he72801094272246fE+0x28>
  105567:	48 8b 15 ea ae 00 00 	mov    0xaeea(%rip),%rdx        # 110458 <_ZN4core4sync6atomic23atomic_compare_exchange14_MSG_FILE_LINE17he72801094272246fE+0x30>
  10556e:	48 89 4c 24 78       	mov    %rcx,0x78(%rsp)
  105573:	48 89 84 24 80 00 00 	mov    %rax,0x80(%rsp)
  10557a:	00 
  10557b:	48 8b 44 24 78       	mov    0x78(%rsp),%rax
  105580:	48 8b 8c 24 80 00 00 	mov    0x80(%rsp),%rcx
  105587:	00 
  105588:	48 89 54 24 38       	mov    %rdx,0x38(%rsp)
  10558d:	48 89 74 24 30       	mov    %rsi,0x30(%rsp)
  105592:	48 89 44 24 28       	mov    %rax,0x28(%rsp)
  105597:	48 89 4c 24 20       	mov    %rcx,0x20(%rsp)
  10559c:	48 8d 7c 24 68       	lea    0x68(%rsp),%rdi
  1055a1:	48 8d 15 b8 58 00 00 	lea    0x58b8(%rip),%rdx        # 10ae60 <_ZN4core3fmt3num54_$LT$impl$u20$core..fmt..Display$u20$for$u20$usize$GT$3fmt17h163484b597e27a9bE>
  1055a8:	48 8b 74 24 28       	mov    0x28(%rsp),%rsi
  1055ad:	e8 3e 69 00 00       	callq  10bef0 <_ZN4core3fmt10ArgumentV13new17h917fc33d290e20e0E>
  1055b2:	48 8b 54 24 68       	mov    0x68(%rsp),%rdx
  1055b7:	48 8b 74 24 70       	mov    0x70(%rsp),%rsi
  1055bc:	48 89 54 24 18       	mov    %rdx,0x18(%rsp)
  1055c1:	48 89 74 24 10       	mov    %rsi,0x10(%rsp)
  1055c6:	48 8d 7c 24 58       	lea    0x58(%rsp),%rdi
  1055cb:	48 8d 15 8e 58 00 00 	lea    0x588e(%rip),%rdx        # 10ae60 <_ZN4core3fmt3num54_$LT$impl$u20$core..fmt..Display$u20$for$u20$usize$GT$3fmt17h163484b597e27a9bE>
  1055d2:	48 8b 74 24 20       	mov    0x20(%rsp),%rsi
  1055d7:	e8 14 69 00 00       	callq  10bef0 <_ZN4core3fmt10ArgumentV13new17h917fc33d290e20e0E>
  1055dc:	48 8b 54 24 58       	mov    0x58(%rsp),%rdx
  1055e1:	48 8b 74 24 60       	mov    0x60(%rsp),%rsi
  1055e6:	48 89 54 24 08       	mov    %rdx,0x8(%rsp)
  1055eb:	48 89 34 24          	mov    %rsi,(%rsp)
  1055ef:	48 8d bc 24 a8 00 00 	lea    0xa8(%rsp),%rdi
  1055f6:	00 
  1055f7:	b8 02 00 00 00       	mov    $0x2,%eax
  1055fc:	41 89 c0             	mov    %eax,%r8d
  1055ff:	48 8d 8c 24 88 00 00 	lea    0x88(%rsp),%rcx
  105606:	00 
  105607:	48 8b 54 24 18       	mov    0x18(%rsp),%rdx
  10560c:	48 89 94 24 88 00 00 	mov    %rdx,0x88(%rsp)
  105613:	00 
  105614:	48 8b 74 24 10       	mov    0x10(%rsp),%rsi
  105619:	48 89 b4 24 90 00 00 	mov    %rsi,0x90(%rsp)
  105620:	00 
  105621:	4c 8b 4c 24 08       	mov    0x8(%rsp),%r9
  105626:	4c 89 8c 24 98 00 00 	mov    %r9,0x98(%rsp)
  10562d:	00 
  10562e:	4c 8b 14 24          	mov    (%rsp),%r10
  105632:	4c 89 94 24 a0 00 00 	mov    %r10,0xa0(%rsp)
  105639:	00 
  10563a:	48 8b 74 24 30       	mov    0x30(%rsp),%rsi
  10563f:	48 8b 54 24 38       	mov    0x38(%rsp),%rdx
  105644:	e8 77 69 00 00       	callq  10bfc0 <_ZN4core3fmt9Arguments6new_v117h2ee48eb28c0cff0aE>
  105649:	48 8d bc 24 a8 00 00 	lea    0xa8(%rsp),%rdi
  105650:	00 
  105651:	48 8b 74 24 48       	mov    0x48(%rsp),%rsi
  105656:	e8 05 00 00 00       	callq  105660 <_ZN4core9panicking9panic_fmt17hb567db798f4a4807E>
  10565b:	0f 1f 44 00 00       	nopl   0x0(%rax,%rax,1)

0000000000105660 <_ZN4core9panicking9panic_fmt17hb567db798f4a4807E>:
  105660:	48 81 ec d8 00 00 00 	sub    $0xd8,%rsp
  105667:	48 89 7c 24 70       	mov    %rdi,0x70(%rsp)
  10566c:	48 89 74 24 68       	mov    %rsi,0x68(%rsp)
  105671:	48 8d 44 24 78       	lea    0x78(%rsp),%rax
  105676:	b9 30 00 00 00       	mov    $0x30,%ecx
  10567b:	89 ca                	mov    %ecx,%edx
  10567d:	48 8d b4 24 a8 00 00 	lea    0xa8(%rsp),%rsi
  105684:	00 
  105685:	48 8b 7c 24 70       	mov    0x70(%rsp),%rdi
  10568a:	49 89 f0             	mov    %rsi,%r8
  10568d:	48 89 7c 24 60       	mov    %rdi,0x60(%rsp)
  105692:	4c 89 c7             	mov    %r8,%rdi
  105695:	4c 8b 44 24 60       	mov    0x60(%rsp),%r8
  10569a:	48 89 74 24 58       	mov    %rsi,0x58(%rsp)
  10569f:	4c 89 c6             	mov    %r8,%rsi
  1056a2:	48 89 54 24 50       	mov    %rdx,0x50(%rsp)
  1056a7:	48 89 44 24 48       	mov    %rax,0x48(%rsp)
  1056ac:	e8 9f ea ff ff       	callq  104150 <memcpy>
  1056b1:	48 8b 44 24 68       	mov    0x68(%rsp),%rax
  1056b6:	48 8b 38             	mov    (%rax),%rdi
  1056b9:	48 8b 70 08          	mov    0x8(%rax),%rsi
  1056bd:	8b 50 10             	mov    0x10(%rax),%edx
  1056c0:	4c 8b 44 24 58       	mov    0x58(%rsp),%r8
  1056c5:	4c 8b 4c 24 48       	mov    0x48(%rsp),%r9
  1056ca:	48 89 7c 24 40       	mov    %rdi,0x40(%rsp)
  1056cf:	4c 89 cf             	mov    %r9,%rdi
  1056d2:	48 89 74 24 38       	mov    %rsi,0x38(%rsp)
  1056d7:	4c 89 c6             	mov    %r8,%rsi
  1056da:	4c 8b 44 24 50       	mov    0x50(%rsp),%r8
  1056df:	89 54 24 34          	mov    %edx,0x34(%rsp)
  1056e3:	4c 89 c2             	mov    %r8,%rdx
  1056e6:	e8 65 ea ff ff       	callq  104150 <memcpy>
  1056eb:	48 8b 84 24 a0 00 00 	mov    0xa0(%rsp),%rax
  1056f2:	00 
  1056f3:	48 89 e2             	mov    %rsp,%rdx
  1056f6:	48 89 42 28          	mov    %rax,0x28(%rdx)
  1056fa:	48 8b 84 24 98 00 00 	mov    0x98(%rsp),%rax
  105701:	00 
  105702:	48 89 42 20          	mov    %rax,0x20(%rdx)
  105706:	48 8b 84 24 90 00 00 	mov    0x90(%rsp),%rax
  10570d:	00 
  10570e:	48 89 42 18          	mov    %rax,0x18(%rdx)
  105712:	48 8b 84 24 88 00 00 	mov    0x88(%rsp),%rax
  105719:	00 
  10571a:	48 89 42 10          	mov    %rax,0x10(%rdx)
  10571e:	48 8b 44 24 78       	mov    0x78(%rsp),%rax
  105723:	48 8b b4 24 80 00 00 	mov    0x80(%rsp),%rsi
  10572a:	00 
  10572b:	48 89 72 08          	mov    %rsi,0x8(%rdx)
  10572f:	48 89 02             	mov    %rax,(%rdx)
  105732:	48 8b 7c 24 40       	mov    0x40(%rsp),%rdi
  105737:	48 8b 74 24 38       	mov    0x38(%rsp),%rsi
  10573c:	8b 54 24 34          	mov    0x34(%rsp),%edx
  105740:	e8 3b e5 ff ff       	callq  103c80 <rust_begin_unwind>
  105745:	48 83 ec 30          	sub    $0x30,%rsp
  105749:	0f 1f 80 00 00 00 00 	nopl   0x0(%rax)

0000000000105750 <_ZN4core4iter8iterator8Iterator5count17h90b6be9b2e34bf5aE>:
  105750:	48 83 ec 48          	sub    $0x48,%rsp
  105754:	48 89 7c 24 10       	mov    %rdi,0x10(%rsp)
  105759:	48 8d 7c 24 20       	lea    0x20(%rsp),%rdi
  10575e:	31 c0                	xor    %eax,%eax
  105760:	89 c6                	mov    %eax,%esi
  105762:	48 8b 4c 24 10       	mov    0x10(%rsp),%rcx
  105767:	48 8b 11             	mov    (%rcx),%rdx
  10576a:	48 89 54 24 30       	mov    %rdx,0x30(%rsp)
  10576f:	48 8b 51 08          	mov    0x8(%rcx),%rdx
  105773:	48 89 54 24 38       	mov    %rdx,0x38(%rsp)
  105778:	48 8b 54 24 30       	mov    0x30(%rsp),%rdx
  10577d:	48 89 54 24 20       	mov    %rdx,0x20(%rsp)
  105782:	48 8b 54 24 38       	mov    0x38(%rsp),%rdx
  105787:	48 89 54 24 28       	mov    %rdx,0x28(%rsp)
  10578c:	e8 2f 03 00 00       	callq  105ac0 <_ZN4core4iter8iterator8Iterator4fold17h1c0907ca778aec4eE>
  105791:	48 89 44 24 08       	mov    %rax,0x8(%rsp)
  105796:	eb 00                	jmp    105798 <_ZN4core4iter8iterator8Iterator5count17h90b6be9b2e34bf5aE+0x48>
  105798:	48 8b 44 24 08       	mov    0x8(%rsp),%rax
  10579d:	48 83 c4 48          	add    $0x48,%rsp
  1057a1:	c3                   	retq   
  1057a2:	66 2e 0f 1f 84 00 00 	nopw   %cs:0x0(%rax,%rax,1)
  1057a9:	00 00 00 
  1057ac:	0f 1f 40 00          	nopl   0x0(%rax)

00000000001057b0 <_ZN4core4iter8iterator8Iterator3nth17h413b41ae435e914eE>:
  1057b0:	48 81 ec b8 00 00 00 	sub    $0xb8,%rsp
  1057b7:	48 89 f8             	mov    %rdi,%rax
  1057ba:	48 89 44 24 70       	mov    %rax,0x70(%rsp)
  1057bf:	48 89 54 24 68       	mov    %rdx,0x68(%rsp)
  1057c4:	48 89 74 24 60       	mov    %rsi,0x60(%rsp)
  1057c9:	48 89 7c 24 58       	mov    %rdi,0x58(%rsp)
  1057ce:	48 8b 44 24 68       	mov    0x68(%rsp),%rax
  1057d3:	48 89 84 24 b0 00 00 	mov    %rax,0xb0(%rsp)
  1057da:	00 
  1057db:	48 8b 7c 24 60       	mov    0x60(%rsp),%rdi
  1057e0:	e8 db 07 00 00       	callq  105fc0 <_ZN54_$LT$I$u20$as$u20$core..iter..traits..IntoIterator$GT$9into_iter17hf398efbe73402807E>
  1057e5:	48 89 44 24 50       	mov    %rax,0x50(%rsp)
  1057ea:	48 8b 44 24 50       	mov    0x50(%rsp),%rax
  1057ef:	48 89 84 24 a0 00 00 	mov    %rax,0xa0(%rsp)
  1057f6:	00 
  1057f7:	48 8d bc 24 80 00 00 	lea    0x80(%rsp),%rdi
  1057fe:	00 
  1057ff:	48 8d b4 24 a0 00 00 	lea    0xa0(%rsp),%rsi
  105806:	00 
  105807:	e8 84 04 00 00       	callq  105c90 <_ZN75_$LT$$RF$$u27$a$u20$mut$u20$I$u20$as$u20$core..iter..iterator..Iterator$GT$4next17hfd00f8732cd70ae4E>
  10580c:	eb 11                	jmp    10581f <_ZN4core4iter8iterator8Iterator3nth17h413b41ae435e914eE+0x6f>
  10580e:	48 8b 44 24 58       	mov    0x58(%rsp),%rax
  105813:	48 c7 00 00 00 00 00 	movq   $0x0,(%rax)
  10581a:	e9 8a 00 00 00       	jmpq   1058a9 <_ZN4core4iter8iterator8Iterator3nth17h413b41ae435e914eE+0xf9>
  10581f:	48 8b 84 24 80 00 00 	mov    0x80(%rsp),%rax
  105826:	00 
  105827:	48 85 c0             	test   %rax,%rax
  10582a:	48 89 44 24 48       	mov    %rax,0x48(%rsp)
  10582f:	0f 84 90 00 00 00    	je     1058c5 <_ZN4core4iter8iterator8Iterator3nth17h413b41ae435e914eE+0x115>
  105835:	eb 00                	jmp    105837 <_ZN4core4iter8iterator8Iterator3nth17h413b41ae435e914eE+0x87>
  105837:	48 8b 44 24 48       	mov    0x48(%rsp),%rax
  10583c:	48 83 e8 01          	sub    $0x1,%rax
  105840:	48 89 44 24 40       	mov    %rax,0x40(%rsp)
  105845:	0f 85 d6 00 00 00    	jne    105921 <_ZN4core4iter8iterator8Iterator3nth17h413b41ae435e914eE+0x171>
  10584b:	eb 00                	jmp    10584d <_ZN4core4iter8iterator8Iterator3nth17h413b41ae435e914eE+0x9d>
  10584d:	48 8b 84 24 88 00 00 	mov    0x88(%rsp),%rax
  105854:	00 
  105855:	8b 8c 24 90 00 00 00 	mov    0x90(%rsp),%ecx
  10585c:	48 83 bc 24 b0 00 00 	cmpq   $0x0,0xb0(%rsp)
  105863:	00 00 
  105865:	48 89 44 24 38       	mov    %rax,0x38(%rsp)
  10586a:	89 4c 24 34          	mov    %ecx,0x34(%rsp)
  10586e:	75 1e                	jne    10588e <_ZN4core4iter8iterator8Iterator3nth17h413b41ae435e914eE+0xde>
  105870:	48 8b 44 24 58       	mov    0x58(%rsp),%rax
  105875:	48 c7 00 01 00 00 00 	movq   $0x1,(%rax)
  10587c:	48 8b 4c 24 38       	mov    0x38(%rsp),%rcx
  105881:	48 89 48 08          	mov    %rcx,0x8(%rax)
  105885:	8b 54 24 34          	mov    0x34(%rsp),%edx
  105889:	89 50 10             	mov    %edx,0x10(%rax)
  10588c:	eb 3e                	jmp    1058cc <_ZN4core4iter8iterator8Iterator3nth17h413b41ae435e914eE+0x11c>
  10588e:	48 8b 84 24 b0 00 00 	mov    0xb0(%rsp),%rax
  105895:	00 
  105896:	48 83 e8 01          	sub    $0x1,%rax
  10589a:	0f 92 c1             	setb   %cl
  10589d:	f6 c1 01             	test   $0x1,%cl
  1058a0:	48 89 44 24 28       	mov    %rax,0x28(%rsp)
  1058a5:	75 7a                	jne    105921 <_ZN4core4iter8iterator8Iterator3nth17h413b41ae435e914eE+0x171>
  1058a7:	eb 0d                	jmp    1058b6 <_ZN4core4iter8iterator8Iterator3nth17h413b41ae435e914eE+0x106>
  1058a9:	48 8b 44 24 70       	mov    0x70(%rsp),%rax
  1058ae:	48 81 c4 b8 00 00 00 	add    $0xb8,%rsp
  1058b5:	c3                   	retq   
  1058b6:	48 8b 44 24 28       	mov    0x28(%rsp),%rax
  1058bb:	48 89 84 24 b0 00 00 	mov    %rax,0xb0(%rsp)
  1058c2:	00 
  1058c3:	eb 32                	jmp    1058f7 <_ZN4core4iter8iterator8Iterator3nth17h413b41ae435e914eE+0x147>
  1058c5:	e9 44 ff ff ff       	jmpq   10580e <_ZN4core4iter8iterator8Iterator3nth17h413b41ae435e914eE+0x5e>
  1058ca:	eb dd                	jmp    1058a9 <_ZN4core4iter8iterator8Iterator3nth17h413b41ae435e914eE+0xf9>
  1058cc:	48 8b 84 24 80 00 00 	mov    0x80(%rsp),%rax
  1058d3:	00 
  1058d4:	48 85 c0             	test   %rax,%rax
  1058d7:	48 89 44 24 20       	mov    %rax,0x20(%rsp)
  1058dc:	74 ec                	je     1058ca <_ZN4core4iter8iterator8Iterator3nth17h413b41ae435e914eE+0x11a>
  1058de:	eb 00                	jmp    1058e0 <_ZN4core4iter8iterator8Iterator3nth17h413b41ae435e914eE+0x130>
  1058e0:	48 8b 44 24 20       	mov    0x20(%rsp),%rax
  1058e5:	48 83 e8 01          	sub    $0x1,%rax
  1058e9:	48 89 44 24 18       	mov    %rax,0x18(%rsp)
  1058ee:	74 b9                	je     1058a9 <_ZN4core4iter8iterator8Iterator3nth17h413b41ae435e914eE+0xf9>
  1058f0:	eb 2f                	jmp    105921 <_ZN4core4iter8iterator8Iterator3nth17h413b41ae435e914eE+0x171>
  1058f2:	e9 00 ff ff ff       	jmpq   1057f7 <_ZN4core4iter8iterator8Iterator3nth17h413b41ae435e914eE+0x47>
  1058f7:	48 8b 84 24 80 00 00 	mov    0x80(%rsp),%rax
  1058fe:	00 
  1058ff:	48 85 c0             	test   %rax,%rax
  105902:	48 89 44 24 10       	mov    %rax,0x10(%rsp)
  105907:	74 e9                	je     1058f2 <_ZN4core4iter8iterator8Iterator3nth17h413b41ae435e914eE+0x142>
  105909:	eb 00                	jmp    10590b <_ZN4core4iter8iterator8Iterator3nth17h413b41ae435e914eE+0x15b>
  10590b:	48 8b 44 24 10       	mov    0x10(%rsp),%rax
  105910:	48 83 e8 01          	sub    $0x1,%rax
  105914:	48 89 44 24 08       	mov    %rax,0x8(%rsp)
  105919:	0f 84 d8 fe ff ff    	je     1057f7 <_ZN4core4iter8iterator8Iterator3nth17h413b41ae435e914eE+0x47>
  10591f:	eb 00                	jmp    105921 <_ZN4core4iter8iterator8Iterator3nth17h413b41ae435e914eE+0x171>
  105921:	48 8d 3d 48 ae 00 00 	lea    0xae48(%rip),%rdi        # 110770 <panic_loc14444>
  105928:	e8 63 fb ff ff       	callq  105490 <_ZN4core9panicking5panic17h585bd70cda921012E>
  10592d:	0f 1f 00             	nopl   (%rax)

0000000000105930 <_ZN4core4iter8iterator8Iterator3zip17h106d4af228f04a3cE>:
  105930:	48 83 ec 48          	sub    $0x48,%rsp
  105934:	48 89 f8             	mov    %rdi,%rax
  105937:	48 89 44 24 20       	mov    %rax,0x20(%rsp)
  10593c:	48 89 54 24 18       	mov    %rdx,0x18(%rsp)
  105941:	48 89 74 24 10       	mov    %rsi,0x10(%rsp)
  105946:	48 89 7c 24 08       	mov    %rdi,0x8(%rsp)
  10594b:	48 8b 44 24 10       	mov    0x10(%rsp),%rax
  105950:	48 8b 08             	mov    (%rax),%rcx
  105953:	48 89 4c 24 38       	mov    %rcx,0x38(%rsp)
  105958:	48 8b 48 08          	mov    0x8(%rax),%rcx
  10595c:	48 89 4c 24 40       	mov    %rcx,0x40(%rsp)
  105961:	48 8b 4c 24 38       	mov    0x38(%rsp),%rcx
  105966:	48 89 4c 24 28       	mov    %rcx,0x28(%rsp)
  10596b:	48 8b 4c 24 40       	mov    0x40(%rsp),%rcx
  105970:	48 89 4c 24 30       	mov    %rcx,0x30(%rsp)
  105975:	48 8b 7c 24 18       	mov    0x18(%rsp),%rdi
  10597a:	e8 a1 04 00 00       	callq  105e20 <_ZN54_$LT$I$u20$as$u20$core..iter..traits..IntoIterator$GT$9into_iter17h58ed27892b74bea2E>
  10597f:	48 89 04 24          	mov    %rax,(%rsp)
  105983:	48 8d 74 24 28       	lea    0x28(%rsp),%rsi
  105988:	48 8b 7c 24 08       	mov    0x8(%rsp),%rdi
  10598d:	48 8b 14 24          	mov    (%rsp),%rdx
  105991:	e8 aa 08 00 00       	callq  106240 <_ZN91_$LT$core..iter..Zip$LT$A$C$$u20$B$GT$$u20$as$u20$core..iter..ZipImpl$LT$A$C$$u20$B$GT$$GT$3new17he2460d27480c7372E>
  105996:	48 8b 44 24 20       	mov    0x20(%rsp),%rax
  10599b:	48 83 c4 48          	add    $0x48,%rsp
  10599f:	c3                   	retq   

00000000001059a0 <_ZN4core4iter8iterator8Iterator3zip17h4840f3b3d71020abE>:
  1059a0:	48 83 ec 48          	sub    $0x48,%rsp
  1059a4:	48 89 f8             	mov    %rdi,%rax
  1059a7:	48 89 44 24 20       	mov    %rax,0x20(%rsp)
  1059ac:	48 89 54 24 18       	mov    %rdx,0x18(%rsp)
  1059b1:	48 89 74 24 10       	mov    %rsi,0x10(%rsp)
  1059b6:	48 89 7c 24 08       	mov    %rdi,0x8(%rsp)
  1059bb:	48 8b 44 24 10       	mov    0x10(%rsp),%rax
  1059c0:	48 8b 08             	mov    (%rax),%rcx
  1059c3:	48 89 4c 24 38       	mov    %rcx,0x38(%rsp)
  1059c8:	48 8b 48 08          	mov    0x8(%rax),%rcx
  1059cc:	48 89 4c 24 40       	mov    %rcx,0x40(%rsp)
  1059d1:	48 8b 4c 24 38       	mov    0x38(%rsp),%rcx
  1059d6:	48 89 4c 24 28       	mov    %rcx,0x28(%rsp)
  1059db:	48 8b 4c 24 40       	mov    0x40(%rsp),%rcx
  1059e0:	48 89 4c 24 30       	mov    %rcx,0x30(%rsp)
  1059e5:	48 8b 7c 24 18       	mov    0x18(%rsp),%rdi
  1059ea:	e8 31 04 00 00       	callq  105e20 <_ZN54_$LT$I$u20$as$u20$core..iter..traits..IntoIterator$GT$9into_iter17h58ed27892b74bea2E>
  1059ef:	48 89 04 24          	mov    %rax,(%rsp)
  1059f3:	48 8d 74 24 28       	lea    0x28(%rsp),%rsi
  1059f8:	48 8b 7c 24 08       	mov    0x8(%rsp),%rdi
  1059fd:	48 8b 14 24          	mov    (%rsp),%rdx
  105a01:	e8 ba 08 00 00       	callq  1062c0 <_ZN91_$LT$core..iter..Zip$LT$A$C$$u20$B$GT$$u20$as$u20$core..iter..ZipImpl$LT$A$C$$u20$B$GT$$GT$3new17hfecf802869428b83E>
  105a06:	48 8b 44 24 20       	mov    0x20(%rsp),%rax
  105a0b:	48 83 c4 48          	add    $0x48,%rsp
  105a0f:	c3                   	retq   

0000000000105a10 <_ZN4core4iter8iterator8Iterator4skip17hd99e1eb6832ada36E>:
  105a10:	48 83 ec 50          	sub    $0x50,%rsp
  105a14:	48 89 f8             	mov    %rdi,%rax
  105a17:	48 89 44 24 18       	mov    %rax,0x18(%rsp)
  105a1c:	48 89 54 24 10       	mov    %rdx,0x10(%rsp)
  105a21:	48 89 74 24 08       	mov    %rsi,0x8(%rsp)
  105a26:	48 89 3c 24          	mov    %rdi,(%rsp)
  105a2a:	48 8b 44 24 08       	mov    0x8(%rsp),%rax
  105a2f:	48 8b 08             	mov    (%rax),%rcx
  105a32:	48 89 4c 24 38       	mov    %rcx,0x38(%rsp)
  105a37:	48 8b 48 08          	mov    0x8(%rax),%rcx
  105a3b:	48 89 4c 24 40       	mov    %rcx,0x40(%rsp)
  105a40:	48 8b 48 10          	mov    0x10(%rax),%rcx
  105a44:	48 89 4c 24 48       	mov    %rcx,0x48(%rsp)
  105a49:	48 8b 4c 24 38       	mov    0x38(%rsp),%rcx
  105a4e:	48 89 4c 24 20       	mov    %rcx,0x20(%rsp)
  105a53:	48 8b 4c 24 40       	mov    0x40(%rsp),%rcx
  105a58:	48 89 4c 24 28       	mov    %rcx,0x28(%rsp)
  105a5d:	48 8b 4c 24 48       	mov    0x48(%rsp),%rcx
  105a62:	48 89 4c 24 30       	mov    %rcx,0x30(%rsp)
  105a67:	48 8b 4c 24 20       	mov    0x20(%rsp),%rcx
  105a6c:	48 8b 14 24          	mov    (%rsp),%rdx
  105a70:	48 89 0a             	mov    %rcx,(%rdx)
  105a73:	48 8b 4c 24 28       	mov    0x28(%rsp),%rcx
  105a78:	48 89 4a 08          	mov    %rcx,0x8(%rdx)
  105a7c:	48 8b 4c 24 30       	mov    0x30(%rsp),%rcx
  105a81:	48 89 4a 10          	mov    %rcx,0x10(%rdx)
  105a85:	48 8b 4c 24 10       	mov    0x10(%rsp),%rcx
  105a8a:	48 89 4a 18          	mov    %rcx,0x18(%rdx)
  105a8e:	eb 00                	jmp    105a90 <_ZN4core4iter8iterator8Iterator4skip17hd99e1eb6832ada36E+0x80>
  105a90:	48 8b 44 24 18       	mov    0x18(%rsp),%rax
  105a95:	48 83 c4 50          	add    $0x50,%rsp
  105a99:	c3                   	retq   
  105a9a:	66 0f 1f 44 00 00    	nopw   0x0(%rax,%rax,1)

0000000000105aa0 <_ZN4core4iter8iterator8Iterator6by_ref17h37c68ef4e1d76fc5E>:
  105aa0:	48 83 ec 10          	sub    $0x10,%rsp
  105aa4:	48 89 3c 24          	mov    %rdi,(%rsp)
  105aa8:	eb 00                	jmp    105aaa <_ZN4core4iter8iterator8Iterator6by_ref17h37c68ef4e1d76fc5E+0xa>
  105aaa:	48 8b 04 24          	mov    (%rsp),%rax
  105aae:	48 83 c4 10          	add    $0x10,%rsp
  105ab2:	c3                   	retq   
  105ab3:	66 2e 0f 1f 84 00 00 	nopw   %cs:0x0(%rax,%rax,1)
  105aba:	00 00 00 
  105abd:	0f 1f 00             	nopl   (%rax)

0000000000105ac0 <_ZN4core4iter8iterator8Iterator4fold17h1c0907ca778aec4eE>:
  105ac0:	48 81 ec b8 00 00 00 	sub    $0xb8,%rsp
  105ac7:	48 89 7c 24 28       	mov    %rdi,0x28(%rsp)
  105acc:	48 89 74 24 20       	mov    %rsi,0x20(%rsp)
  105ad1:	48 8b 44 24 28       	mov    0x28(%rsp),%rax
  105ad6:	48 8b 08             	mov    (%rax),%rcx
  105ad9:	48 89 8c 24 a0 00 00 	mov    %rcx,0xa0(%rsp)
  105ae0:	00 
  105ae1:	48 8b 48 08          	mov    0x8(%rax),%rcx
  105ae5:	48 89 8c 24 a8 00 00 	mov    %rcx,0xa8(%rsp)
  105aec:	00 
  105aed:	48 8b 4c 24 20       	mov    0x20(%rsp),%rcx
  105af2:	48 89 8c 24 90 00 00 	mov    %rcx,0x90(%rsp)
  105af9:	00 
  105afa:	48 8d 7c 24 60       	lea    0x60(%rsp),%rdi
  105aff:	48 8d 74 24 50       	lea    0x50(%rsp),%rsi
  105b04:	48 8b 84 24 a0 00 00 	mov    0xa0(%rsp),%rax
  105b0b:	00 
  105b0c:	48 89 44 24 50       	mov    %rax,0x50(%rsp)
  105b11:	48 8b 84 24 a8 00 00 	mov    0xa8(%rsp),%rax
  105b18:	00 
  105b19:	48 89 44 24 58       	mov    %rax,0x58(%rsp)
  105b1e:	e8 3d 04 00 00       	callq  105f60 <_ZN54_$LT$I$u20$as$u20$core..iter..traits..IntoIterator$GT$9into_iter17hb42e9d4cf57d6ab6E>
  105b23:	48 8b 44 24 60       	mov    0x60(%rsp),%rax
  105b28:	48 89 44 24 78       	mov    %rax,0x78(%rsp)
  105b2d:	48 8b 44 24 68       	mov    0x68(%rsp),%rax
  105b32:	48 89 84 24 80 00 00 	mov    %rax,0x80(%rsp)
  105b39:	00 
  105b3a:	48 8d 7c 24 78       	lea    0x78(%rsp),%rdi
  105b3f:	e8 bc 2f 00 00       	callq  108b00 <_ZN81_$LT$core..str..Chars$LT$$u27$a$GT$$u20$as$u20$core..iter..iterator..Iterator$GT$4next17h04abac2c3750e897E>
  105b44:	48 89 44 24 30       	mov    %rax,0x30(%rsp)
  105b49:	48 8b 44 24 30       	mov    0x30(%rsp),%rax
  105b4e:	48 89 44 24 48       	mov    %rax,0x48(%rsp)
  105b53:	eb 02                	jmp    105b57 <_ZN4core4iter8iterator8Iterator4fold17h1c0907ca778aec4eE+0x97>
  105b55:	eb 57                	jmp    105bae <_ZN4core4iter8iterator8Iterator4fold17h1c0907ca778aec4eE+0xee>
  105b57:	8b 44 24 48          	mov    0x48(%rsp),%eax
  105b5b:	85 c0                	test   %eax,%eax
  105b5d:	89 44 24 1c          	mov    %eax,0x1c(%rsp)
  105b61:	74 49                	je     105bac <_ZN4core4iter8iterator8Iterator4fold17h1c0907ca778aec4eE+0xec>
  105b63:	eb 00                	jmp    105b65 <_ZN4core4iter8iterator8Iterator4fold17h1c0907ca778aec4eE+0xa5>
  105b65:	8b 44 24 1c          	mov    0x1c(%rsp),%eax
  105b69:	83 e8 01             	sub    $0x1,%eax
  105b6c:	89 44 24 18          	mov    %eax,0x18(%rsp)
  105b70:	0f 85 88 00 00 00    	jne    105bfe <_ZN4core4iter8iterator8Iterator4fold17h1c0907ca778aec4eE+0x13e>
  105b76:	eb 00                	jmp    105b78 <_ZN4core4iter8iterator8Iterator4fold17h1c0907ca778aec4eE+0xb8>
  105b78:	48 8d bc 24 98 00 00 	lea    0x98(%rsp),%rdi
  105b7f:	00 
  105b80:	8b 44 24 4c          	mov    0x4c(%rsp),%eax
  105b84:	48 8b 8c 24 90 00 00 	mov    0x90(%rsp),%rcx
  105b8b:	00 
  105b8c:	48 89 4c 24 38       	mov    %rcx,0x38(%rsp)
  105b91:	89 44 24 40          	mov    %eax,0x40(%rsp)
  105b95:	48 8b 74 24 38       	mov    0x38(%rsp),%rsi
  105b9a:	8b 54 24 40          	mov    0x40(%rsp),%edx
  105b9e:	e8 2d 8c 00 00       	callq  10e7d0 <_ZN4core4iter8iterator8Iterator5count28_$u7b$$u7b$closure$u7d$$u7d$17h1e17af01416d1f1aE>
  105ba3:	48 89 44 24 10       	mov    %rax,0x10(%rsp)
  105ba8:	eb 20                	jmp    105bca <_ZN4core4iter8iterator8Iterator4fold17h1c0907ca778aec4eE+0x10a>
  105baa:	eb 32                	jmp    105bde <_ZN4core4iter8iterator8Iterator4fold17h1c0907ca778aec4eE+0x11e>
  105bac:	eb a7                	jmp    105b55 <_ZN4core4iter8iterator8Iterator4fold17h1c0907ca778aec4eE+0x95>
  105bae:	48 8b 84 24 90 00 00 	mov    0x90(%rsp),%rax
  105bb5:	00 
  105bb6:	48 89 44 24 08       	mov    %rax,0x8(%rsp)
  105bbb:	eb 00                	jmp    105bbd <_ZN4core4iter8iterator8Iterator4fold17h1c0907ca778aec4eE+0xfd>
  105bbd:	48 8b 44 24 08       	mov    0x8(%rsp),%rax
  105bc2:	48 81 c4 b8 00 00 00 	add    $0xb8,%rsp
  105bc9:	c3                   	retq   
  105bca:	48 8b 44 24 10       	mov    0x10(%rsp),%rax
  105bcf:	48 89 84 24 90 00 00 	mov    %rax,0x90(%rsp)
  105bd6:	00 
  105bd7:	eb d1                	jmp    105baa <_ZN4core4iter8iterator8Iterator4fold17h1c0907ca778aec4eE+0xea>
  105bd9:	e9 5c ff ff ff       	jmpq   105b3a <_ZN4core4iter8iterator8Iterator4fold17h1c0907ca778aec4eE+0x7a>
  105bde:	8b 44 24 48          	mov    0x48(%rsp),%eax
  105be2:	85 c0                	test   %eax,%eax
  105be4:	89 44 24 04          	mov    %eax,0x4(%rsp)
  105be8:	74 ef                	je     105bd9 <_ZN4core4iter8iterator8Iterator4fold17h1c0907ca778aec4eE+0x119>
  105bea:	eb 00                	jmp    105bec <_ZN4core4iter8iterator8Iterator4fold17h1c0907ca778aec4eE+0x12c>
  105bec:	8b 44 24 04          	mov    0x4(%rsp),%eax
  105bf0:	83 e8 01             	sub    $0x1,%eax
  105bf3:	89 04 24             	mov    %eax,(%rsp)
  105bf6:	0f 84 3e ff ff ff    	je     105b3a <_ZN4core4iter8iterator8Iterator4fold17h1c0907ca778aec4eE+0x7a>
  105bfc:	eb 00                	jmp    105bfe <_ZN4core4iter8iterator8Iterator4fold17h1c0907ca778aec4eE+0x13e>
  105bfe:	66 90                	xchg   %ax,%ax

0000000000105c00 <_ZN4core4iter8iterator8Iterator3rev17h61501a7dd7423ac0E>:
  105c00:	48 83 ec 38          	sub    $0x38,%rsp
  105c04:	48 89 f8             	mov    %rdi,%rax
  105c07:	48 89 44 24 10       	mov    %rax,0x10(%rsp)
  105c0c:	48 89 74 24 08       	mov    %rsi,0x8(%rsp)
  105c11:	48 89 3c 24          	mov    %rdi,(%rsp)
  105c15:	48 8b 44 24 08       	mov    0x8(%rsp),%rax
  105c1a:	48 8b 08             	mov    (%rax),%rcx
  105c1d:	48 89 4c 24 28       	mov    %rcx,0x28(%rsp)
  105c22:	48 8b 48 08          	mov    0x8(%rax),%rcx
  105c26:	48 89 4c 24 30       	mov    %rcx,0x30(%rsp)
  105c2b:	48 8b 4c 24 28       	mov    0x28(%rsp),%rcx
  105c30:	48 89 4c 24 18       	mov    %rcx,0x18(%rsp)
  105c35:	48 8b 4c 24 30       	mov    0x30(%rsp),%rcx
  105c3a:	48 89 4c 24 20       	mov    %rcx,0x20(%rsp)
  105c3f:	48 8b 4c 24 18       	mov    0x18(%rsp),%rcx
  105c44:	48 8b 14 24          	mov    (%rsp),%rdx
  105c48:	48 89 0a             	mov    %rcx,(%rdx)
  105c4b:	48 8b 4c 24 20       	mov    0x20(%rsp),%rcx
  105c50:	48 89 4a 08          	mov    %rcx,0x8(%rdx)
  105c54:	eb 00                	jmp    105c56 <_ZN4core4iter8iterator8Iterator3rev17h61501a7dd7423ac0E+0x56>
  105c56:	48 8b 44 24 10       	mov    0x10(%rsp),%rax
  105c5b:	48 83 c4 38          	add    $0x38,%rsp
  105c5f:	c3                   	retq   

0000000000105c60 <_ZN75_$LT$$RF$$u27$a$u20$mut$u20$I$u20$as$u20$core..iter..iterator..Iterator$GT$4next17hc90f951317b168e2E>:
  105c60:	48 83 ec 18          	sub    $0x18,%rsp
  105c64:	48 89 3c 24          	mov    %rdi,(%rsp)
  105c68:	48 8b 04 24          	mov    (%rsp),%rax
  105c6c:	48 8b 38             	mov    (%rax),%rdi
  105c6f:	e8 4c 21 00 00       	callq  107dc0 <_ZN91_$LT$core..slice..Iter$LT$$u27$a$C$$u20$T$GT$$u20$as$u20$core..iter..iterator..Iterator$GT$4next17h3e0d8cf56d30f487E>
  105c74:	48 89 44 24 08       	mov    %rax,0x8(%rsp)
  105c79:	48 8b 44 24 08       	mov    0x8(%rsp),%rax
  105c7e:	48 83 c4 18          	add    $0x18,%rsp
  105c82:	c3                   	retq   
  105c83:	66 2e 0f 1f 84 00 00 	nopw   %cs:0x0(%rax,%rax,1)
  105c8a:	00 00 00 
  105c8d:	0f 1f 00             	nopl   (%rax)

0000000000105c90 <_ZN75_$LT$$RF$$u27$a$u20$mut$u20$I$u20$as$u20$core..iter..iterator..Iterator$GT$4next17hfd00f8732cd70ae4E>:
  105c90:	48 83 ec 18          	sub    $0x18,%rsp
  105c94:	48 89 f8             	mov    %rdi,%rax
  105c97:	48 89 44 24 10       	mov    %rax,0x10(%rsp)
  105c9c:	48 89 74 24 08       	mov    %rsi,0x8(%rsp)
  105ca1:	48 89 3c 24          	mov    %rdi,(%rsp)
  105ca5:	eb 00                	jmp    105ca7 <_ZN75_$LT$$RF$$u27$a$u20$mut$u20$I$u20$as$u20$core..iter..iterator..Iterator$GT$4next17hfd00f8732cd70ae4E+0x17>
  105ca7:	48 8b 44 24 08       	mov    0x8(%rsp),%rax
  105cac:	48 8b 30             	mov    (%rax),%rsi
  105caf:	48 8b 3c 24          	mov    (%rsp),%rdi
  105cb3:	e8 a8 2e 00 00       	callq  108b60 <_ZN87_$LT$core..str..CharIndices$LT$$u27$a$GT$$u20$as$u20$core..iter..iterator..Iterator$GT$4next17h394efb26e56d9ed6E>
  105cb8:	48 8b 44 24 10       	mov    0x10(%rsp),%rax
  105cbd:	48 83 c4 18          	add    $0x18,%rsp
  105cc1:	c3                   	retq   
  105cc2:	66 2e 0f 1f 84 00 00 	nopw   %cs:0x0(%rax,%rax,1)
  105cc9:	00 00 00 
  105ccc:	0f 1f 40 00          	nopl   0x0(%rax)

0000000000105cd0 <_ZN49_$LT$usize$u20$as$u20$core..iter..range..Step$GT$7add_one17hf8bf05f63b081aa0E>:
  105cd0:	48 83 ec 18          	sub    $0x18,%rsp
  105cd4:	48 89 7c 24 08       	mov    %rdi,0x8(%rsp)
  105cd9:	48 8b 44 24 08       	mov    0x8(%rsp),%rax
  105cde:	48 8b 08             	mov    (%rax),%rcx
  105ce1:	48 83 c1 01          	add    $0x1,%rcx
  105ce5:	0f 92 c2             	setb   %dl
  105ce8:	f6 c2 01             	test   $0x1,%dl
  105ceb:	48 89 0c 24          	mov    %rcx,(%rsp)
  105cef:	75 09                	jne    105cfa <_ZN49_$LT$usize$u20$as$u20$core..iter..range..Step$GT$7add_one17hf8bf05f63b081aa0E+0x2a>
  105cf1:	48 8b 04 24          	mov    (%rsp),%rax
  105cf5:	48 83 c4 18          	add    $0x18,%rsp
  105cf9:	c3                   	retq   
  105cfa:	48 8d 3d 97 aa 00 00 	lea    0xaa97(%rip),%rdi        # 110798 <panic_loc14454>
  105d01:	e8 8a f7 ff ff       	callq  105490 <_ZN4core9panicking5panic17h585bd70cda921012E>
  105d06:	66 2e 0f 1f 84 00 00 	nopw   %cs:0x0(%rax,%rax,1)
  105d0d:	00 00 00 

0000000000105d10 <_ZN4core4iter5range86_$LT$impl$u20$core..iter..iterator..Iterator$u20$for$u20$core..ops..Range$LT$A$GT$$GT$4next17h05ed5ee39168d888E>:
  105d10:	48 83 ec 28          	sub    $0x28,%rsp
  105d14:	48 89 f8             	mov    %rdi,%rax
  105d17:	48 89 44 24 18       	mov    %rax,0x18(%rsp)
  105d1c:	48 89 74 24 10       	mov    %rsi,0x10(%rsp)
  105d21:	48 89 7c 24 08       	mov    %rdi,0x8(%rsp)
  105d26:	48 8b 44 24 10       	mov    0x10(%rsp),%rax
  105d2b:	48 83 c0 08          	add    $0x8,%rax
  105d2f:	48 8b 7c 24 10       	mov    0x10(%rsp),%rdi
  105d34:	48 89 c6             	mov    %rax,%rsi
  105d37:	e8 14 f4 ff ff       	callq  105150 <_ZN4core3cmp5impls57_$LT$impl$u20$core..cmp..PartialOrd$u20$for$u20$usize$GT$2lt17hd644d2d93a548c2aE>
  105d3c:	88 44 24 07          	mov    %al,0x7(%rsp)
  105d40:	8a 44 24 07          	mov    0x7(%rsp),%al
  105d44:	a8 01                	test   $0x1,%al
  105d46:	75 02                	jne    105d4a <_ZN4core4iter5range86_$LT$impl$u20$core..iter..iterator..Iterator$u20$for$u20$core..ops..Range$LT$A$GT$$GT$4next17h05ed5ee39168d888E+0x3a>
  105d48:	eb 11                	jmp    105d5b <_ZN4core4iter5range86_$LT$impl$u20$core..iter..iterator..Iterator$u20$for$u20$core..ops..Range$LT$A$GT$$GT$4next17h05ed5ee39168d888E+0x4b>
  105d4a:	48 8b 7c 24 10       	mov    0x10(%rsp),%rdi
  105d4f:	e8 7c ff ff ff       	callq  105cd0 <_ZN49_$LT$usize$u20$as$u20$core..iter..range..Step$GT$7add_one17hf8bf05f63b081aa0E>
  105d54:	48 89 44 24 20       	mov    %rax,0x20(%rsp)
  105d59:	eb 0e                	jmp    105d69 <_ZN4core4iter5range86_$LT$impl$u20$core..iter..iterator..Iterator$u20$for$u20$core..ops..Range$LT$A$GT$$GT$4next17h05ed5ee39168d888E+0x59>
  105d5b:	48 8b 44 24 08       	mov    0x8(%rsp),%rax
  105d60:	48 c7 00 00 00 00 00 	movq   $0x0,(%rax)
  105d67:	eb 24                	jmp    105d8d <_ZN4core4iter5range86_$LT$impl$u20$core..iter..iterator..Iterator$u20$for$u20$core..ops..Range$LT$A$GT$$GT$4next17h05ed5ee39168d888E+0x7d>
  105d69:	48 8d 7c 24 20       	lea    0x20(%rsp),%rdi
  105d6e:	48 8b 74 24 10       	mov    0x10(%rsp),%rsi
  105d73:	e8 a8 ef ff ff       	callq  104d20 <_ZN4core3mem4swap17he49de6341082a5f9E>
  105d78:	48 8b 44 24 20       	mov    0x20(%rsp),%rax
  105d7d:	48 8b 4c 24 08       	mov    0x8(%rsp),%rcx
  105d82:	48 c7 01 01 00 00 00 	movq   $0x1,(%rcx)
  105d89:	48 89 41 08          	mov    %rax,0x8(%rcx)
  105d8d:	48 8b 44 24 18       	mov    0x18(%rsp),%rax
  105d92:	48 83 c4 28          	add    $0x28,%rsp
  105d96:	c3                   	retq   
  105d97:	66 0f 1f 84 00 00 00 	nopw   0x0(%rax,%rax,1)
  105d9e:	00 00 

0000000000105da0 <_ZN54_$LT$I$u20$as$u20$core..iter..traits..IntoIterator$GT$9into_iter17h149e0cf04d4a682eE>:
  105da0:	48 83 ec 48          	sub    $0x48,%rsp
  105da4:	48 89 f8             	mov    %rdi,%rax
  105da7:	48 89 44 24 10       	mov    %rax,0x10(%rsp)
  105dac:	48 89 74 24 08       	mov    %rsi,0x8(%rsp)
  105db1:	48 89 3c 24          	mov    %rdi,(%rsp)
  105db5:	48 8b 44 24 08       	mov    0x8(%rsp),%rax
  105dba:	48 8b 08             	mov    (%rax),%rcx
  105dbd:	48 89 4c 24 30       	mov    %rcx,0x30(%rsp)
  105dc2:	48 8b 48 08          	mov    0x8(%rax),%rcx
  105dc6:	48 89 4c 24 38       	mov    %rcx,0x38(%rsp)
  105dcb:	48 8b 48 10          	mov    0x10(%rax),%rcx
  105dcf:	48 89 4c 24 40       	mov    %rcx,0x40(%rsp)
  105dd4:	48 8b 4c 24 30       	mov    0x30(%rsp),%rcx
  105dd9:	48 89 4c 24 18       	mov    %rcx,0x18(%rsp)
  105dde:	48 8b 4c 24 38       	mov    0x38(%rsp),%rcx
  105de3:	48 89 4c 24 20       	mov    %rcx,0x20(%rsp)
  105de8:	48 8b 4c 24 40       	mov    0x40(%rsp),%rcx
  105ded:	48 89 4c 24 28       	mov    %rcx,0x28(%rsp)
  105df2:	48 8b 4c 24 18       	mov    0x18(%rsp),%rcx
  105df7:	48 8b 14 24          	mov    (%rsp),%rdx
  105dfb:	48 89 0a             	mov    %rcx,(%rdx)
  105dfe:	48 8b 4c 24 20       	mov    0x20(%rsp),%rcx
  105e03:	48 89 4a 08          	mov    %rcx,0x8(%rdx)
  105e07:	48 8b 4c 24 28       	mov    0x28(%rsp),%rcx
  105e0c:	48 89 4a 10          	mov    %rcx,0x10(%rdx)
  105e10:	eb 00                	jmp    105e12 <_ZN54_$LT$I$u20$as$u20$core..iter..traits..IntoIterator$GT$9into_iter17h149e0cf04d4a682eE+0x72>
  105e12:	48 8b 44 24 10       	mov    0x10(%rsp),%rax
  105e17:	48 83 c4 48          	add    $0x48,%rsp
  105e1b:	c3                   	retq   
  105e1c:	0f 1f 40 00          	nopl   0x0(%rax)

0000000000105e20 <_ZN54_$LT$I$u20$as$u20$core..iter..traits..IntoIterator$GT$9into_iter17h58ed27892b74bea2E>:
  105e20:	48 83 ec 10          	sub    $0x10,%rsp
  105e24:	48 89 3c 24          	mov    %rdi,(%rsp)
  105e28:	eb 00                	jmp    105e2a <_ZN54_$LT$I$u20$as$u20$core..iter..traits..IntoIterator$GT$9into_iter17h58ed27892b74bea2E+0xa>
  105e2a:	eb 00                	jmp    105e2c <_ZN54_$LT$I$u20$as$u20$core..iter..traits..IntoIterator$GT$9into_iter17h58ed27892b74bea2E+0xc>
  105e2c:	48 8b 04 24          	mov    (%rsp),%rax
  105e30:	48 83 c4 10          	add    $0x10,%rsp
  105e34:	c3                   	retq   
  105e35:	66 2e 0f 1f 84 00 00 	nopw   %cs:0x0(%rax,%rax,1)
  105e3c:	00 00 00 
  105e3f:	90                   	nop

0000000000105e40 <_ZN54_$LT$I$u20$as$u20$core..iter..traits..IntoIterator$GT$9into_iter17h593a8b7b125c6a4eE>:
  105e40:	48 83 ec 18          	sub    $0x18,%rsp
  105e44:	48 89 f8             	mov    %rdi,%rax
  105e47:	48 89 44 24 10       	mov    %rax,0x10(%rsp)
  105e4c:	48 89 74 24 08       	mov    %rsi,0x8(%rsp)
  105e51:	48 89 3c 24          	mov    %rdi,(%rsp)
  105e55:	eb 00                	jmp    105e57 <_ZN54_$LT$I$u20$as$u20$core..iter..traits..IntoIterator$GT$9into_iter17h593a8b7b125c6a4eE+0x17>
  105e57:	48 8b 44 24 08       	mov    0x8(%rsp),%rax
  105e5c:	48 8b 08             	mov    (%rax),%rcx
  105e5f:	48 8b 50 08          	mov    0x8(%rax),%rdx
  105e63:	48 8b 34 24          	mov    (%rsp),%rsi
  105e67:	48 89 0e             	mov    %rcx,(%rsi)
  105e6a:	48 89 56 08          	mov    %rdx,0x8(%rsi)
  105e6e:	eb 00                	jmp    105e70 <_ZN54_$LT$I$u20$as$u20$core..iter..traits..IntoIterator$GT$9into_iter17h593a8b7b125c6a4eE+0x30>
  105e70:	48 8b 44 24 10       	mov    0x10(%rsp),%rax
  105e75:	48 83 c4 18          	add    $0x18,%rsp
  105e79:	c3                   	retq   
  105e7a:	66 0f 1f 44 00 00    	nopw   0x0(%rax,%rax,1)

0000000000105e80 <_ZN54_$LT$I$u20$as$u20$core..iter..traits..IntoIterator$GT$9into_iter17h8ddcf0364584f8a4E>:
  105e80:	48 83 ec 48          	sub    $0x48,%rsp
  105e84:	48 89 f8             	mov    %rdi,%rax
  105e87:	48 89 44 24 10       	mov    %rax,0x10(%rsp)
  105e8c:	48 89 74 24 08       	mov    %rsi,0x8(%rsp)
  105e91:	48 89 3c 24          	mov    %rdi,(%rsp)
  105e95:	48 8b 44 24 08       	mov    0x8(%rsp),%rax
  105e9a:	48 8b 08             	mov    (%rax),%rcx
  105e9d:	48 89 4c 24 30       	mov    %rcx,0x30(%rsp)
  105ea2:	48 8b 48 08          	mov    0x8(%rax),%rcx
  105ea6:	48 89 4c 24 38       	mov    %rcx,0x38(%rsp)
  105eab:	48 8b 48 10          	mov    0x10(%rax),%rcx
  105eaf:	48 89 4c 24 40       	mov    %rcx,0x40(%rsp)
  105eb4:	48 8b 4c 24 30       	mov    0x30(%rsp),%rcx
  105eb9:	48 89 4c 24 18       	mov    %rcx,0x18(%rsp)
  105ebe:	48 8b 4c 24 38       	mov    0x38(%rsp),%rcx
  105ec3:	48 89 4c 24 20       	mov    %rcx,0x20(%rsp)
  105ec8:	48 8b 4c 24 40       	mov    0x40(%rsp),%rcx
  105ecd:	48 89 4c 24 28       	mov    %rcx,0x28(%rsp)
  105ed2:	48 8b 4c 24 18       	mov    0x18(%rsp),%rcx
  105ed7:	48 8b 14 24          	mov    (%rsp),%rdx
  105edb:	48 89 0a             	mov    %rcx,(%rdx)
  105ede:	48 8b 4c 24 20       	mov    0x20(%rsp),%rcx
  105ee3:	48 89 4a 08          	mov    %rcx,0x8(%rdx)
  105ee7:	48 8b 4c 24 28       	mov    0x28(%rsp),%rcx
  105eec:	48 89 4a 10          	mov    %rcx,0x10(%rdx)
  105ef0:	eb 00                	jmp    105ef2 <_ZN54_$LT$I$u20$as$u20$core..iter..traits..IntoIterator$GT$9into_iter17h8ddcf0364584f8a4E+0x72>
  105ef2:	48 8b 44 24 10       	mov    0x10(%rsp),%rax
  105ef7:	48 83 c4 48          	add    $0x48,%rsp
  105efb:	c3                   	retq   
  105efc:	0f 1f 40 00          	nopl   0x0(%rax)

0000000000105f00 <_ZN54_$LT$I$u20$as$u20$core..iter..traits..IntoIterator$GT$9into_iter17h9967f9b0f489a086E>:
  105f00:	48 83 ec 38          	sub    $0x38,%rsp
  105f04:	48 89 f8             	mov    %rdi,%rax
  105f07:	48 89 44 24 10       	mov    %rax,0x10(%rsp)
  105f0c:	48 89 74 24 08       	mov    %rsi,0x8(%rsp)
  105f11:	48 89 3c 24          	mov    %rdi,(%rsp)
  105f15:	48 8b 44 24 08       	mov    0x8(%rsp),%rax
  105f1a:	48 8b 08             	mov    (%rax),%rcx
  105f1d:	48 89 4c 24 28       	mov    %rcx,0x28(%rsp)
  105f22:	48 8b 48 08          	mov    0x8(%rax),%rcx
  105f26:	48 89 4c 24 30       	mov    %rcx,0x30(%rsp)
  105f2b:	48 8b 4c 24 28       	mov    0x28(%rsp),%rcx
  105f30:	48 89 4c 24 18       	mov    %rcx,0x18(%rsp)
  105f35:	48 8b 4c 24 30       	mov    0x30(%rsp),%rcx
  105f3a:	48 89 4c 24 20       	mov    %rcx,0x20(%rsp)
  105f3f:	48 8b 4c 24 18       	mov    0x18(%rsp),%rcx
  105f44:	48 8b 14 24          	mov    (%rsp),%rdx
  105f48:	48 89 0a             	mov    %rcx,(%rdx)
  105f4b:	48 8b 4c 24 20       	mov    0x20(%rsp),%rcx
  105f50:	48 89 4a 08          	mov    %rcx,0x8(%rdx)
  105f54:	eb 00                	jmp    105f56 <_ZN54_$LT$I$u20$as$u20$core..iter..traits..IntoIterator$GT$9into_iter17h9967f9b0f489a086E+0x56>
  105f56:	48 8b 44 24 10       	mov    0x10(%rsp),%rax
  105f5b:	48 83 c4 38          	add    $0x38,%rsp
  105f5f:	c3                   	retq   

0000000000105f60 <_ZN54_$LT$I$u20$as$u20$core..iter..traits..IntoIterator$GT$9into_iter17hb42e9d4cf57d6ab6E>:
  105f60:	48 83 ec 38          	sub    $0x38,%rsp
  105f64:	48 89 f8             	mov    %rdi,%rax
  105f67:	48 89 44 24 10       	mov    %rax,0x10(%rsp)
  105f6c:	48 89 74 24 08       	mov    %rsi,0x8(%rsp)
  105f71:	48 89 3c 24          	mov    %rdi,(%rsp)
  105f75:	48 8b 44 24 08       	mov    0x8(%rsp),%rax
  105f7a:	48 8b 08             	mov    (%rax),%rcx
  105f7d:	48 89 4c 24 28       	mov    %rcx,0x28(%rsp)
  105f82:	48 8b 48 08          	mov    0x8(%rax),%rcx
  105f86:	48 89 4c 24 30       	mov    %rcx,0x30(%rsp)
  105f8b:	48 8b 4c 24 28       	mov    0x28(%rsp),%rcx
  105f90:	48 89 4c 24 18       	mov    %rcx,0x18(%rsp)
  105f95:	48 8b 4c 24 30       	mov    0x30(%rsp),%rcx
  105f9a:	48 89 4c 24 20       	mov    %rcx,0x20(%rsp)
  105f9f:	48 8b 4c 24 18       	mov    0x18(%rsp),%rcx
  105fa4:	48 8b 14 24          	mov    (%rsp),%rdx
  105fa8:	48 89 0a             	mov    %rcx,(%rdx)
  105fab:	48 8b 4c 24 20       	mov    0x20(%rsp),%rcx
  105fb0:	48 89 4a 08          	mov    %rcx,0x8(%rdx)
  105fb4:	eb 00                	jmp    105fb6 <_ZN54_$LT$I$u20$as$u20$core..iter..traits..IntoIterator$GT$9into_iter17hb42e9d4cf57d6ab6E+0x56>
  105fb6:	48 8b 44 24 10       	mov    0x10(%rsp),%rax
  105fbb:	48 83 c4 38          	add    $0x38,%rsp
  105fbf:	c3                   	retq   

0000000000105fc0 <_ZN54_$LT$I$u20$as$u20$core..iter..traits..IntoIterator$GT$9into_iter17hf398efbe73402807E>:
  105fc0:	48 83 ec 10          	sub    $0x10,%rsp
  105fc4:	48 89 3c 24          	mov    %rdi,(%rsp)
  105fc8:	eb 00                	jmp    105fca <_ZN54_$LT$I$u20$as$u20$core..iter..traits..IntoIterator$GT$9into_iter17hf398efbe73402807E+0xa>
  105fca:	eb 00                	jmp    105fcc <_ZN54_$LT$I$u20$as$u20$core..iter..traits..IntoIterator$GT$9into_iter17hf398efbe73402807E+0xc>
  105fcc:	48 8b 04 24          	mov    (%rsp),%rax
  105fd0:	48 83 c4 10          	add    $0x10,%rsp
  105fd4:	c3                   	retq   
  105fd5:	66 2e 0f 1f 84 00 00 	nopw   %cs:0x0(%rax,%rax,1)
  105fdc:	00 00 00 
  105fdf:	90                   	nop

0000000000105fe0 <_ZN4core4iter6traits17ExactSizeIterator3len17h65c31b9f77e81f08E>:
  105fe0:	48 81 ec 38 01 00 00 	sub    $0x138,%rsp
  105fe7:	48 89 7c 24 48       	mov    %rdi,0x48(%rsp)
  105fec:	48 8d bc 24 f8 00 00 	lea    0xf8(%rsp),%rdi
  105ff3:	00 
  105ff4:	48 8b 74 24 48       	mov    0x48(%rsp),%rsi
  105ff9:	e8 42 22 00 00       	callq  108240 <_ZN91_$LT$core..slice..Iter$LT$$u27$a$C$$u20$T$GT$$u20$as$u20$core..iter..iterator..Iterator$GT$9size_hint17hafbf39b1f0a55a63E>
  105ffe:	48 8d 84 24 d0 00 00 	lea    0xd0(%rsp),%rax
  106005:	00 
  106006:	48 8d 8c 24 20 01 00 	lea    0x120(%rsp),%rcx
  10600d:	00 
  10600e:	48 8b 94 24 f8 00 00 	mov    0xf8(%rsp),%rdx
  106015:	00 
  106016:	48 8b b4 24 00 01 00 	mov    0x100(%rsp),%rsi
  10601d:	00 
  10601e:	48 89 b4 24 20 01 00 	mov    %rsi,0x120(%rsp)
  106025:	00 
  106026:	48 8b b4 24 08 01 00 	mov    0x108(%rsp),%rsi
  10602d:	00 
  10602e:	48 89 b4 24 28 01 00 	mov    %rsi,0x128(%rsp)
  106035:	00 
  106036:	48 c7 84 24 d0 00 00 	movq   $0x1,0xd0(%rsp)
  10603d:	00 01 00 00 00 
  106042:	48 89 94 24 d8 00 00 	mov    %rdx,0xd8(%rsp)
  106049:	00 
  10604a:	48 89 8c 24 e0 00 00 	mov    %rcx,0xe0(%rsp)
  106051:	00 
  106052:	48 89 84 24 e8 00 00 	mov    %rax,0xe8(%rsp)
  106059:	00 
  10605a:	48 8b 84 24 e0 00 00 	mov    0xe0(%rsp),%rax
  106061:	00 
  106062:	48 89 84 24 18 01 00 	mov    %rax,0x118(%rsp)
  106069:	00 
  10606a:	48 8b 84 24 e8 00 00 	mov    0xe8(%rsp),%rax
  106071:	00 
  106072:	48 89 84 24 10 01 00 	mov    %rax,0x110(%rsp)
  106079:	00 
  10607a:	48 8b bc 24 18 01 00 	mov    0x118(%rsp),%rdi
  106081:	00 
  106082:	48 8b b4 24 10 01 00 	mov    0x110(%rsp),%rsi
  106089:	00 
  10608a:	48 89 54 24 40       	mov    %rdx,0x40(%rsp)
  10608f:	e8 cc 04 00 00       	callq  106560 <_ZN70_$LT$core..option..Option$LT$T$GT$$u20$as$u20$core..cmp..PartialEq$GT$2eq17h0e6bc9f25ccd0eceE>
  106094:	88 44 24 3f          	mov    %al,0x3f(%rsp)
  106098:	8a 44 24 3f          	mov    0x3f(%rsp),%al
  10609c:	34 ff                	xor    $0xff,%al
  10609e:	a8 01                	test   $0x1,%al
  1060a0:	75 02                	jne    1060a4 <_ZN4core4iter6traits17ExactSizeIterator3len17h65c31b9f77e81f08E+0xc4>
  1060a2:	eb 6b                	jmp    10610f <_ZN4core4iter6traits17ExactSizeIterator3len17h65c31b9f77e81f08E+0x12f>
  1060a4:	48 8d 7c 24 60       	lea    0x60(%rsp),%rdi
  1060a9:	48 8d 15 20 86 00 00 	lea    0x8620(%rip),%rdx        # 10e6d0 <_ZN53_$LT$$RF$$u27$a$u20$T$u20$as$u20$core..fmt..Debug$GT$3fmt17h6646b6e44af2aa30E>
  1060b0:	48 8d 84 24 10 01 00 	lea    0x110(%rsp),%rax
  1060b7:	00 
  1060b8:	48 8d 8c 24 18 01 00 	lea    0x118(%rsp),%rcx
  1060bf:	00 
  1060c0:	48 8d 35 b1 a3 00 00 	lea    0xa3b1(%rip),%rsi        # 110478 <_ZN4core4iter6traits17ExactSizeIterator3len15__STATIC_FMTSTR17h3b3bb15ab99a08d9E>
  1060c7:	4c 8b 06             	mov    (%rsi),%r8
  1060ca:	48 8b 76 08          	mov    0x8(%rsi),%rsi
  1060ce:	48 89 4c 24 70       	mov    %rcx,0x70(%rsp)
  1060d3:	48 89 44 24 78       	mov    %rax,0x78(%rsp)
  1060d8:	48 8b 44 24 70       	mov    0x70(%rsp),%rax
  1060dd:	48 8b 4c 24 78       	mov    0x78(%rsp),%rcx
  1060e2:	48 89 74 24 30       	mov    %rsi,0x30(%rsp)
  1060e7:	48 89 c6             	mov    %rax,%rsi
  1060ea:	48 89 4c 24 28       	mov    %rcx,0x28(%rsp)
  1060ef:	4c 89 44 24 20       	mov    %r8,0x20(%rsp)
  1060f4:	e8 37 5c 00 00       	callq  10bd30 <_ZN4core3fmt10ArgumentV13new17h1102d95c259e7ad3E>
  1060f9:	48 8b 44 24 60       	mov    0x60(%rsp),%rax
  1060fe:	48 8b 4c 24 68       	mov    0x68(%rsp),%rcx
  106103:	48 89 44 24 18       	mov    %rax,0x18(%rsp)
  106108:	48 89 4c 24 10       	mov    %rcx,0x10(%rsp)
  10610d:	eb 0d                	jmp    10611c <_ZN4core4iter6traits17ExactSizeIterator3len17h65c31b9f77e81f08E+0x13c>
  10610f:	48 8b 44 24 40       	mov    0x40(%rsp),%rax
  106114:	48 81 c4 38 01 00 00 	add    $0x138,%rsp
  10611b:	c3                   	retq   
  10611c:	48 8d 7c 24 50       	lea    0x50(%rsp),%rdi
  106121:	48 8d 15 a8 85 00 00 	lea    0x85a8(%rip),%rdx        # 10e6d0 <_ZN53_$LT$$RF$$u27$a$u20$T$u20$as$u20$core..fmt..Debug$GT$3fmt17h6646b6e44af2aa30E>
  106128:	48 8b 74 24 28       	mov    0x28(%rsp),%rsi
  10612d:	e8 fe 5b 00 00       	callq  10bd30 <_ZN4core3fmt10ArgumentV13new17h1102d95c259e7ad3E>
  106132:	48 8b 54 24 50       	mov    0x50(%rsp),%rdx
  106137:	48 8b 74 24 58       	mov    0x58(%rsp),%rsi
  10613c:	48 89 54 24 08       	mov    %rdx,0x8(%rsp)
  106141:	48 89 34 24          	mov    %rsi,(%rsp)
  106145:	48 8d bc 24 a0 00 00 	lea    0xa0(%rsp),%rdi
  10614c:	00 
  10614d:	b8 02 00 00 00       	mov    $0x2,%eax
  106152:	41 89 c0             	mov    %eax,%r8d
  106155:	48 8d 8c 24 80 00 00 	lea    0x80(%rsp),%rcx
  10615c:	00 
  10615d:	48 8b 54 24 18       	mov    0x18(%rsp),%rdx
  106162:	48 89 94 24 80 00 00 	mov    %rdx,0x80(%rsp)
  106169:	00 
  10616a:	48 8b 74 24 10       	mov    0x10(%rsp),%rsi
  10616f:	48 89 b4 24 88 00 00 	mov    %rsi,0x88(%rsp)
  106176:	00 
  106177:	4c 8b 4c 24 08       	mov    0x8(%rsp),%r9
  10617c:	4c 89 8c 24 90 00 00 	mov    %r9,0x90(%rsp)
  106183:	00 
  106184:	4c 8b 14 24          	mov    (%rsp),%r10
  106188:	4c 89 94 24 98 00 00 	mov    %r10,0x98(%rsp)
  10618f:	00 
  106190:	48 8b 74 24 20       	mov    0x20(%rsp),%rsi
  106195:	48 8b 54 24 30       	mov    0x30(%rsp),%rdx
  10619a:	e8 21 5e 00 00       	callq  10bfc0 <_ZN4core3fmt9Arguments6new_v117h2ee48eb28c0cff0aE>
  10619f:	48 8d bc 24 a0 00 00 	lea    0xa0(%rsp),%rdi
  1061a6:	00 
  1061a7:	48 8d 35 b2 a2 00 00 	lea    0xa2b2(%rip),%rsi        # 110460 <_ZN4core4iter6traits17ExactSizeIterator3len10_FILE_LINE17h4a23fc844dc2288eE>
  1061ae:	e8 ad f4 ff ff       	callq  105660 <_ZN4core9panicking9panic_fmt17hb567db798f4a4807E>
  1061b3:	66 2e 0f 1f 84 00 00 	nopw   %cs:0x0(%rax,%rax,1)
  1061ba:	00 00 00 
  1061bd:	0f 1f 00             	nopl   (%rax)

00000000001061c0 <_ZN75_$LT$core..iter..Rev$LT$I$GT$$u20$as$u20$core..iter..iterator..Iterator$GT$4next17h01695cbc3a6d8d6dE>:
  1061c0:	48 83 ec 18          	sub    $0x18,%rsp
  1061c4:	48 89 3c 24          	mov    %rdi,(%rsp)
  1061c8:	48 8b 3c 24          	mov    (%rsp),%rdi
  1061cc:	e8 1f 21 00 00       	callq  1082f0 <_ZN103_$LT$core..slice..IterMut$LT$$u27$a$C$$u20$T$GT$$u20$as$u20$core..iter..traits..DoubleEndedIterator$GT$9next_back17hd8afaa6e92279c43E>
  1061d1:	48 89 44 24 08       	mov    %rax,0x8(%rsp)
  1061d6:	48 8b 44 24 08       	mov    0x8(%rsp),%rax
  1061db:	48 83 c4 18          	add    $0x18,%rsp
  1061df:	c3                   	retq   

00000000001061e0 <_ZN84_$LT$core..iter..Zip$LT$A$C$$u20$B$GT$$u20$as$u20$core..iter..iterator..Iterator$GT$4next17h7ee1d0e7e7755a60E>:
  1061e0:	48 83 ec 18          	sub    $0x18,%rsp
  1061e4:	48 89 f8             	mov    %rdi,%rax
  1061e7:	48 89 44 24 10       	mov    %rax,0x10(%rsp)
  1061ec:	48 89 74 24 08       	mov    %rsi,0x8(%rsp)
  1061f1:	48 89 3c 24          	mov    %rdi,(%rsp)
  1061f5:	eb 00                	jmp    1061f7 <_ZN84_$LT$core..iter..Zip$LT$A$C$$u20$B$GT$$u20$as$u20$core..iter..iterator..Iterator$GT$4next17h7ee1d0e7e7755a60E+0x17>
  1061f7:	48 8b 3c 24          	mov    (%rsp),%rdi
  1061fb:	48 8b 74 24 08       	mov    0x8(%rsp),%rsi
  106200:	e8 3b 01 00 00       	callq  106340 <_ZN91_$LT$core..iter..Zip$LT$A$C$$u20$B$GT$$u20$as$u20$core..iter..ZipImpl$LT$A$C$$u20$B$GT$$GT$4next17h78cd65fe34bd8709E>
  106205:	48 8b 44 24 10       	mov    0x10(%rsp),%rax
  10620a:	48 83 c4 18          	add    $0x18,%rsp
  10620e:	c3                   	retq   
  10620f:	90                   	nop

0000000000106210 <_ZN84_$LT$core..iter..Zip$LT$A$C$$u20$B$GT$$u20$as$u20$core..iter..iterator..Iterator$GT$4next17ha50eb2b00398c3dcE>:
  106210:	48 83 ec 18          	sub    $0x18,%rsp
  106214:	48 89 f8             	mov    %rdi,%rax
  106217:	48 89 44 24 10       	mov    %rax,0x10(%rsp)
  10621c:	48 89 74 24 08       	mov    %rsi,0x8(%rsp)
  106221:	48 89 3c 24          	mov    %rdi,(%rsp)
  106225:	eb 00                	jmp    106227 <_ZN84_$LT$core..iter..Zip$LT$A$C$$u20$B$GT$$u20$as$u20$core..iter..iterator..Iterator$GT$4next17ha50eb2b00398c3dcE+0x17>
  106227:	48 8b 3c 24          	mov    (%rsp),%rdi
  10622b:	48 8b 74 24 08       	mov    0x8(%rsp),%rsi
  106230:	e8 6b 01 00 00       	callq  1063a0 <_ZN91_$LT$core..iter..Zip$LT$A$C$$u20$B$GT$$u20$as$u20$core..iter..ZipImpl$LT$A$C$$u20$B$GT$$GT$4next17hd227a07e9d5c2684E>
  106235:	48 8b 44 24 10       	mov    0x10(%rsp),%rax
  10623a:	48 83 c4 18          	add    $0x18,%rsp
  10623e:	c3                   	retq   
  10623f:	90                   	nop

0000000000106240 <_ZN91_$LT$core..iter..Zip$LT$A$C$$u20$B$GT$$u20$as$u20$core..iter..ZipImpl$LT$A$C$$u20$B$GT$$GT$3new17he2460d27480c7372E>:
  106240:	48 83 ec 48          	sub    $0x48,%rsp
  106244:	48 89 f8             	mov    %rdi,%rax
  106247:	48 89 44 24 20       	mov    %rax,0x20(%rsp)
  10624c:	48 89 54 24 18       	mov    %rdx,0x18(%rsp)
  106251:	48 89 74 24 10       	mov    %rsi,0x10(%rsp)
  106256:	48 89 7c 24 08       	mov    %rdi,0x8(%rsp)
  10625b:	48 8b 44 24 10       	mov    0x10(%rsp),%rax
  106260:	48 8b 08             	mov    (%rax),%rcx
  106263:	48 89 4c 24 38       	mov    %rcx,0x38(%rsp)
  106268:	48 8b 48 08          	mov    0x8(%rax),%rcx
  10626c:	48 89 4c 24 40       	mov    %rcx,0x40(%rsp)
  106271:	48 8b 4c 24 38       	mov    0x38(%rsp),%rcx
  106276:	48 89 4c 24 28       	mov    %rcx,0x28(%rsp)
  10627b:	48 8b 4c 24 40       	mov    0x40(%rsp),%rcx
  106280:	48 89 4c 24 30       	mov    %rcx,0x30(%rsp)
  106285:	e8 46 ef ff ff       	callq  1051d0 <_ZN51_$LT$$LP$$RP$$u20$as$u20$core..default..Default$GT$7default17h823932cc8467ad32E>
  10628a:	48 8b 44 24 28       	mov    0x28(%rsp),%rax
  10628f:	48 8b 4c 24 08       	mov    0x8(%rsp),%rcx
  106294:	48 89 01             	mov    %rax,(%rcx)
  106297:	48 8b 44 24 30       	mov    0x30(%rsp),%rax
  10629c:	48 89 41 08          	mov    %rax,0x8(%rcx)
  1062a0:	48 8b 44 24 18       	mov    0x18(%rsp),%rax
  1062a5:	48 89 41 10          	mov    %rax,0x10(%rcx)
  1062a9:	48 8b 44 24 20       	mov    0x20(%rsp),%rax
  1062ae:	48 83 c4 48          	add    $0x48,%rsp
  1062b2:	c3                   	retq   
  1062b3:	66 2e 0f 1f 84 00 00 	nopw   %cs:0x0(%rax,%rax,1)
  1062ba:	00 00 00 
  1062bd:	0f 1f 00             	nopl   (%rax)

00000000001062c0 <_ZN91_$LT$core..iter..Zip$LT$A$C$$u20$B$GT$$u20$as$u20$core..iter..ZipImpl$LT$A$C$$u20$B$GT$$GT$3new17hfecf802869428b83E>:
  1062c0:	48 83 ec 48          	sub    $0x48,%rsp
  1062c4:	48 89 f8             	mov    %rdi,%rax
  1062c7:	48 89 44 24 20       	mov    %rax,0x20(%rsp)
  1062cc:	48 89 54 24 18       	mov    %rdx,0x18(%rsp)
  1062d1:	48 89 74 24 10       	mov    %rsi,0x10(%rsp)
  1062d6:	48 89 7c 24 08       	mov    %rdi,0x8(%rsp)
  1062db:	48 8b 44 24 10       	mov    0x10(%rsp),%rax
  1062e0:	48 8b 08             	mov    (%rax),%rcx
  1062e3:	48 89 4c 24 38       	mov    %rcx,0x38(%rsp)
  1062e8:	48 8b 48 08          	mov    0x8(%rax),%rcx
  1062ec:	48 89 4c 24 40       	mov    %rcx,0x40(%rsp)
  1062f1:	48 8b 4c 24 38       	mov    0x38(%rsp),%rcx
  1062f6:	48 89 4c 24 28       	mov    %rcx,0x28(%rsp)
  1062fb:	48 8b 4c 24 40       	mov    0x40(%rsp),%rcx
  106300:	48 89 4c 24 30       	mov    %rcx,0x30(%rsp)
  106305:	e8 c6 ee ff ff       	callq  1051d0 <_ZN51_$LT$$LP$$RP$$u20$as$u20$core..default..Default$GT$7default17h823932cc8467ad32E>
  10630a:	48 8b 44 24 28       	mov    0x28(%rsp),%rax
  10630f:	48 8b 4c 24 08       	mov    0x8(%rsp),%rcx
  106314:	48 89 01             	mov    %rax,(%rcx)
  106317:	48 8b 44 24 30       	mov    0x30(%rsp),%rax
  10631c:	48 89 41 08          	mov    %rax,0x8(%rcx)
  106320:	48 8b 44 24 18       	mov    0x18(%rsp),%rax
  106325:	48 89 41 10          	mov    %rax,0x10(%rcx)
  106329:	48 8b 44 24 20       	mov    0x20(%rsp),%rax
  10632e:	48 83 c4 48          	add    $0x48,%rsp
  106332:	c3                   	retq   
  106333:	66 2e 0f 1f 84 00 00 	nopw   %cs:0x0(%rax,%rax,1)
  10633a:	00 00 00 
  10633d:	0f 1f 00             	nopl   (%rax)

0000000000106340 <_ZN91_$LT$core..iter..Zip$LT$A$C$$u20$B$GT$$u20$as$u20$core..iter..ZipImpl$LT$A$C$$u20$B$GT$$GT$4next17h78cd65fe34bd8709E>:
  106340:	48 83 ec 38          	sub    $0x38,%rsp
  106344:	48 89 f8             	mov    %rdi,%rax
  106347:	48 89 44 24 10       	mov    %rax,0x10(%rsp)
  10634c:	48 89 74 24 08       	mov    %rsi,0x8(%rsp)
  106351:	48 89 3c 24          	mov    %rdi,(%rsp)
  106355:	48 8b 44 24 08       	mov    0x8(%rsp),%rax
  10635a:	48 89 44 24 30       	mov    %rax,0x30(%rsp)
  10635f:	48 8b 7c 24 30       	mov    0x30(%rsp),%rdi
  106364:	e8 97 1c 00 00       	callq  108000 <_ZN91_$LT$core..slice..Iter$LT$$u27$a$C$$u20$T$GT$$u20$as$u20$core..iter..iterator..Iterator$GT$4next17hc7ace1d0c40a131aE>
  106369:	48 89 44 24 28       	mov    %rax,0x28(%rsp)
  10636e:	48 8d 44 24 30       	lea    0x30(%rsp),%rax
  106373:	48 89 44 24 20       	mov    %rax,0x20(%rsp)
  106378:	48 8b 74 24 28       	mov    0x28(%rsp),%rsi
  10637d:	48 89 44 24 18       	mov    %rax,0x18(%rsp)
  106382:	48 8b 54 24 18       	mov    0x18(%rsp),%rdx
  106387:	48 8b 3c 24          	mov    (%rsp),%rdi
  10638b:	e8 b0 07 00 00       	callq  106b40 <_ZN38_$LT$core..option..Option$LT$T$GT$$GT$8and_then17h50f28c2bdd858095E>
  106390:	48 8b 44 24 10       	mov    0x10(%rsp),%rax
  106395:	48 83 c4 38          	add    $0x38,%rsp
  106399:	c3                   	retq   
  10639a:	66 0f 1f 44 00 00    	nopw   0x0(%rax,%rax,1)

00000000001063a0 <_ZN91_$LT$core..iter..Zip$LT$A$C$$u20$B$GT$$u20$as$u20$core..iter..ZipImpl$LT$A$C$$u20$B$GT$$GT$4next17hd227a07e9d5c2684E>:
  1063a0:	48 83 ec 38          	sub    $0x38,%rsp
  1063a4:	48 89 f8             	mov    %rdi,%rax
  1063a7:	48 89 44 24 10       	mov    %rax,0x10(%rsp)
  1063ac:	48 89 74 24 08       	mov    %rsi,0x8(%rsp)
  1063b1:	48 89 3c 24          	mov    %rdi,(%rsp)
  1063b5:	48 8b 44 24 08       	mov    0x8(%rsp),%rax
  1063ba:	48 89 44 24 30       	mov    %rax,0x30(%rsp)
  1063bf:	48 8b 7c 24 30       	mov    0x30(%rsp),%rdi
  1063c4:	e8 57 1d 00 00       	callq  108120 <_ZN91_$LT$core..slice..Iter$LT$$u27$a$C$$u20$T$GT$$u20$as$u20$core..iter..iterator..Iterator$GT$4next17hfd68c5be5d86a6ebE>
  1063c9:	48 89 44 24 28       	mov    %rax,0x28(%rsp)
  1063ce:	48 8d 44 24 30       	lea    0x30(%rsp),%rax
  1063d3:	48 89 44 24 20       	mov    %rax,0x20(%rsp)
  1063d8:	48 8b 74 24 28       	mov    0x28(%rsp),%rsi
  1063dd:	48 89 44 24 18       	mov    %rax,0x18(%rsp)
  1063e2:	48 8b 54 24 18       	mov    0x18(%rsp),%rdx
  1063e7:	48 8b 3c 24          	mov    (%rsp),%rdi
  1063eb:	e8 60 08 00 00       	callq  106c50 <_ZN38_$LT$core..option..Option$LT$T$GT$$GT$8and_then17h6b5e1ac71964135aE>
  1063f0:	48 8b 44 24 10       	mov    0x10(%rsp),%rax
  1063f5:	48 83 c4 38          	add    $0x38,%rsp
  1063f9:	c3                   	retq   
  1063fa:	66 0f 1f 44 00 00    	nopw   0x0(%rax,%rax,1)

0000000000106400 <_ZN76_$LT$core..iter..Skip$LT$I$GT$$u20$as$u20$core..iter..iterator..Iterator$GT$4next17h73bdceaf2f7d38c8E>:
  106400:	48 83 ec 18          	sub    $0x18,%rsp
  106404:	48 89 f8             	mov    %rdi,%rax
  106407:	48 89 44 24 10       	mov    %rax,0x10(%rsp)
  10640c:	48 89 74 24 08       	mov    %rsi,0x8(%rsp)
  106411:	48 89 3c 24          	mov    %rdi,(%rsp)
  106415:	eb 00                	jmp    106417 <_ZN76_$LT$core..iter..Skip$LT$I$GT$$u20$as$u20$core..iter..iterator..Iterator$GT$4next17h73bdceaf2f7d38c8E+0x17>
  106417:	48 8b 44 24 08       	mov    0x8(%rsp),%rax
  10641c:	48 83 78 18 00       	cmpq   $0x0,0x18(%rax)
  106421:	75 10                	jne    106433 <_ZN76_$LT$core..iter..Skip$LT$I$GT$$u20$as$u20$core..iter..iterator..Iterator$GT$4next17h73bdceaf2f7d38c8E+0x33>
  106423:	48 8b 3c 24          	mov    (%rsp),%rdi
  106427:	48 8b 74 24 08       	mov    0x8(%rsp),%rsi
  10642c:	e8 2f 27 00 00       	callq  108b60 <_ZN87_$LT$core..str..CharIndices$LT$$u27$a$GT$$u20$as$u20$core..iter..iterator..Iterator$GT$4next17h394efb26e56d9ed6E>
  106431:	eb 1d                	jmp    106450 <_ZN76_$LT$core..iter..Skip$LT$I$GT$$u20$as$u20$core..iter..iterator..Iterator$GT$4next17h73bdceaf2f7d38c8E+0x50>
  106433:	48 8b 44 24 08       	mov    0x8(%rsp),%rax
  106438:	48 8b 50 18          	mov    0x18(%rax),%rdx
  10643c:	48 c7 40 18 00 00 00 	movq   $0x0,0x18(%rax)
  106443:	00 
  106444:	48 8b 3c 24          	mov    (%rsp),%rdi
  106448:	48 89 c6             	mov    %rax,%rsi
  10644b:	e8 60 f3 ff ff       	callq  1057b0 <_ZN4core4iter8iterator8Iterator3nth17h413b41ae435e914eE>
  106450:	48 8b 44 24 10       	mov    0x10(%rsp),%rax
  106455:	48 83 c4 18          	add    $0x18,%rsp
  106459:	c3                   	retq   
  10645a:	66 0f 1f 44 00 00    	nopw   0x0(%rax,%rax,1)

0000000000106460 <_ZN66_$LT$core..option..Option$LT$T$GT$$u20$as$u20$core..fmt..Debug$GT$3fmt17h841936d8829c011cE>:
  106460:	48 81 ec 98 00 00 00 	sub    $0x98,%rsp
  106467:	48 89 7c 24 28       	mov    %rdi,0x28(%rsp)
  10646c:	48 89 74 24 20       	mov    %rsi,0x20(%rsp)
  106471:	48 8b 44 24 28       	mov    0x28(%rsp),%rax
  106476:	48 89 44 24 48       	mov    %rax,0x48(%rsp)
  10647b:	48 8b 08             	mov    (%rax),%rcx
  10647e:	48 85 c9             	test   %rcx,%rcx
  106481:	48 89 4c 24 18       	mov    %rcx,0x18(%rsp)
  106486:	74 17                	je     10649f <_ZN66_$LT$core..option..Option$LT$T$GT$$u20$as$u20$core..fmt..Debug$GT$3fmt17h841936d8829c011cE+0x3f>
  106488:	eb 00                	jmp    10648a <_ZN66_$LT$core..option..Option$LT$T$GT$$u20$as$u20$core..fmt..Debug$GT$3fmt17h841936d8829c011cE+0x2a>
  10648a:	48 8b 44 24 18       	mov    0x18(%rsp),%rax
  10648f:	48 83 e8 01          	sub    $0x1,%rax
  106493:	48 89 44 24 10       	mov    %rax,0x10(%rsp)
  106498:	74 24                	je     1064be <_ZN66_$LT$core..option..Option$LT$T$GT$$u20$as$u20$core..fmt..Debug$GT$3fmt17h841936d8829c011cE+0x5e>
  10649a:	e9 b2 00 00 00       	jmpq   106551 <_ZN66_$LT$core..option..Option$LT$T$GT$$u20$as$u20$core..fmt..Debug$GT$3fmt17h841936d8829c011cE+0xf1>
  10649f:	48 8d 7c 24 70       	lea    0x70(%rsp),%rdi
  1064a4:	48 8d 15 48 96 00 00 	lea    0x9648(%rip),%rdx        # 10faf3 <str14482>
  1064ab:	b8 04 00 00 00       	mov    $0x4,%eax
  1064b0:	89 c1                	mov    %eax,%ecx
  1064b2:	48 8b 74 24 20       	mov    0x20(%rsp),%rsi
  1064b7:	e8 84 81 00 00       	callq  10e640 <_ZN4core3fmt9Formatter11debug_tuple17h524ead03f4ecc241E>
  1064bc:	eb 3c                	jmp    1064fa <_ZN66_$LT$core..option..Option$LT$T$GT$$u20$as$u20$core..fmt..Debug$GT$3fmt17h841936d8829c011cE+0x9a>
  1064be:	48 8d 7c 24 50       	lea    0x50(%rsp),%rdi
  1064c3:	48 8d 15 25 96 00 00 	lea    0x9625(%rip),%rdx        # 10faef <str14481>
  1064ca:	b8 04 00 00 00       	mov    $0x4,%eax
  1064cf:	89 c1                	mov    %eax,%ecx
  1064d1:	48 8b 74 24 48       	mov    0x48(%rsp),%rsi
  1064d6:	48 83 c6 08          	add    $0x8,%rsi
  1064da:	4c 8b 44 24 20       	mov    0x20(%rsp),%r8
  1064df:	48 89 74 24 08       	mov    %rsi,0x8(%rsp)
  1064e4:	4c 89 c6             	mov    %r8,%rsi
  1064e7:	e8 54 81 00 00       	callq  10e640 <_ZN4core3fmt9Formatter11debug_tuple17h524ead03f4ecc241E>
  1064ec:	eb 24                	jmp    106512 <_ZN66_$LT$core..option..Option$LT$T$GT$$u20$as$u20$core..fmt..Debug$GT$3fmt17h841936d8829c011cE+0xb2>
  1064ee:	8a 44 24 38          	mov    0x38(%rsp),%al
  1064f2:	48 81 c4 98 00 00 00 	add    $0x98,%rsp
  1064f9:	c3                   	retq   
  1064fa:	48 8d 7c 24 70       	lea    0x70(%rsp),%rdi
  1064ff:	e8 4c 54 00 00       	callq  10b950 <_ZN4core3fmt8builders10DebugTuple6finish17h2b52c52c2c1530a3E>
  106504:	88 44 24 36          	mov    %al,0x36(%rsp)
  106508:	8a 44 24 36          	mov    0x36(%rsp),%al
  10650c:	88 44 24 38          	mov    %al,0x38(%rsp)
  106510:	eb dc                	jmp    1064ee <_ZN66_$LT$core..option..Option$LT$T$GT$$u20$as$u20$core..fmt..Debug$GT$3fmt17h841936d8829c011cE+0x8e>
  106512:	48 8d 7c 24 50       	lea    0x50(%rsp),%rdi
  106517:	48 8d 15 5a a1 00 00 	lea    0xa15a(%rip),%rdx        # 110678 <vtable13902>
  10651e:	48 8d 44 24 40       	lea    0x40(%rsp),%rax
  106523:	48 8b 4c 24 08       	mov    0x8(%rsp),%rcx
  106528:	48 89 4c 24 40       	mov    %rcx,0x40(%rsp)
  10652d:	48 89 c6             	mov    %rax,%rsi
  106530:	e8 3b 53 00 00       	callq  10b870 <_ZN4core3fmt8builders10DebugTuple5field17h30749d60af604012E>
  106535:	48 89 04 24          	mov    %rax,(%rsp)
  106539:	48 8d 7c 24 50       	lea    0x50(%rsp),%rdi
  10653e:	e8 0d 54 00 00       	callq  10b950 <_ZN4core3fmt8builders10DebugTuple6finish17h2b52c52c2c1530a3E>
  106543:	88 44 24 37          	mov    %al,0x37(%rsp)
  106547:	8a 44 24 37          	mov    0x37(%rsp),%al
  10654b:	88 44 24 38          	mov    %al,0x38(%rsp)
  10654f:	eb 9d                	jmp    1064ee <_ZN66_$LT$core..option..Option$LT$T$GT$$u20$as$u20$core..fmt..Debug$GT$3fmt17h841936d8829c011cE+0x8e>
  106551:	66 2e 0f 1f 84 00 00 	nopw   %cs:0x0(%rax,%rax,1)
  106558:	00 00 00 
  10655b:	0f 1f 44 00 00       	nopl   0x0(%rax,%rax,1)

0000000000106560 <_ZN70_$LT$core..option..Option$LT$T$GT$$u20$as$u20$core..cmp..PartialEq$GT$2eq17h0e6bc9f25ccd0eceE>:
  106560:	48 83 ec 78          	sub    $0x78,%rsp
  106564:	48 89 7c 24 40       	mov    %rdi,0x40(%rsp)
  106569:	48 89 74 24 38       	mov    %rsi,0x38(%rsp)
  10656e:	48 8b 44 24 40       	mov    0x40(%rsp),%rax
  106573:	48 8b 08             	mov    (%rax),%rcx
  106576:	48 89 4c 24 50       	mov    %rcx,0x50(%rsp)
  10657b:	48 8b 4c 24 50       	mov    0x50(%rsp),%rcx
  106580:	48 89 4c 24 30       	mov    %rcx,0x30(%rsp)
  106585:	48 8b 44 24 38       	mov    0x38(%rsp),%rax
  10658a:	48 8b 08             	mov    (%rax),%rcx
  10658d:	48 89 4c 24 48       	mov    %rcx,0x48(%rsp)
  106592:	48 8b 4c 24 48       	mov    0x48(%rsp),%rcx
  106597:	48 89 4c 24 28       	mov    %rcx,0x28(%rsp)
  10659c:	48 8b 44 24 30       	mov    0x30(%rsp),%rax
  1065a1:	48 8b 4c 24 28       	mov    0x28(%rsp),%rcx
  1065a6:	48 39 c8             	cmp    %rcx,%rax
  1065a9:	75 07                	jne    1065b2 <_ZN70_$LT$core..option..Option$LT$T$GT$$u20$as$u20$core..cmp..PartialEq$GT$2eq17h0e6bc9f25ccd0eceE+0x52>
  1065ab:	c6 44 24 76 01       	movb   $0x1,0x76(%rsp)
  1065b0:	eb 05                	jmp    1065b7 <_ZN70_$LT$core..option..Option$LT$T$GT$$u20$as$u20$core..cmp..PartialEq$GT$2eq17h0e6bc9f25ccd0eceE+0x57>
  1065b2:	c6 44 24 76 00       	movb   $0x0,0x76(%rsp)
  1065b7:	f6 44 24 76 01       	testb  $0x1,0x76(%rsp)
  1065bc:	74 3a                	je     1065f8 <_ZN70_$LT$core..option..Option$LT$T$GT$$u20$as$u20$core..cmp..PartialEq$GT$2eq17h0e6bc9f25ccd0eceE+0x98>
  1065be:	48 8b 44 24 40       	mov    0x40(%rsp),%rax
  1065c3:	48 89 44 24 60       	mov    %rax,0x60(%rsp)
  1065c8:	48 8b 4c 24 38       	mov    0x38(%rsp),%rcx
  1065cd:	48 89 4c 24 68       	mov    %rcx,0x68(%rsp)
  1065d2:	48 8b 54 24 60       	mov    0x60(%rsp),%rdx
  1065d7:	48 8b 12             	mov    (%rdx),%rdx
  1065da:	48 85 d2             	test   %rdx,%rdx
  1065dd:	48 89 54 24 20       	mov    %rdx,0x20(%rsp)
  1065e2:	74 1b                	je     1065ff <_ZN70_$LT$core..option..Option$LT$T$GT$$u20$as$u20$core..cmp..PartialEq$GT$2eq17h0e6bc9f25ccd0eceE+0x9f>
  1065e4:	eb 00                	jmp    1065e6 <_ZN70_$LT$core..option..Option$LT$T$GT$$u20$as$u20$core..cmp..PartialEq$GT$2eq17h0e6bc9f25ccd0eceE+0x86>
  1065e6:	48 8b 44 24 20       	mov    0x20(%rsp),%rax
  1065eb:	48 83 e8 01          	sub    $0x1,%rax
  1065ef:	48 89 44 24 18       	mov    %rax,0x18(%rsp)
  1065f4:	74 10                	je     106606 <_ZN70_$LT$core..option..Option$LT$T$GT$$u20$as$u20$core..cmp..PartialEq$GT$2eq17h0e6bc9f25ccd0eceE+0xa6>
  1065f6:	eb 7d                	jmp    106675 <_ZN70_$LT$core..option..Option$LT$T$GT$$u20$as$u20$core..cmp..PartialEq$GT$2eq17h0e6bc9f25ccd0eceE+0x115>
  1065f8:	c6 44 24 5f 00       	movb   $0x0,0x5f(%rsp)
  1065fd:	eb 68                	jmp    106667 <_ZN70_$LT$core..option..Option$LT$T$GT$$u20$as$u20$core..cmp..PartialEq$GT$2eq17h0e6bc9f25ccd0eceE+0x107>
  1065ff:	c6 44 24 5f 01       	movb   $0x1,0x5f(%rsp)
  106604:	eb 61                	jmp    106667 <_ZN70_$LT$core..option..Option$LT$T$GT$$u20$as$u20$core..cmp..PartialEq$GT$2eq17h0e6bc9f25ccd0eceE+0x107>
  106606:	48 8b 44 24 68       	mov    0x68(%rsp),%rax
  10660b:	48 8b 00             	mov    (%rax),%rax
  10660e:	48 85 c0             	test   %rax,%rax
  106611:	48 89 44 24 10       	mov    %rax,0x10(%rsp)
  106616:	74 e7                	je     1065ff <_ZN70_$LT$core..option..Option$LT$T$GT$$u20$as$u20$core..cmp..PartialEq$GT$2eq17h0e6bc9f25ccd0eceE+0x9f>
  106618:	eb 00                	jmp    10661a <_ZN70_$LT$core..option..Option$LT$T$GT$$u20$as$u20$core..cmp..PartialEq$GT$2eq17h0e6bc9f25ccd0eceE+0xba>
  10661a:	48 8b 44 24 10       	mov    0x10(%rsp),%rax
  10661f:	48 83 e8 01          	sub    $0x1,%rax
  106623:	48 89 44 24 08       	mov    %rax,0x8(%rsp)
  106628:	75 4b                	jne    106675 <_ZN70_$LT$core..option..Option$LT$T$GT$$u20$as$u20$core..cmp..PartialEq$GT$2eq17h0e6bc9f25ccd0eceE+0x115>
  10662a:	eb 00                	jmp    10662c <_ZN70_$LT$core..option..Option$LT$T$GT$$u20$as$u20$core..cmp..PartialEq$GT$2eq17h0e6bc9f25ccd0eceE+0xcc>
  10662c:	48 8b 44 24 60       	mov    0x60(%rsp),%rax
  106631:	48 83 c0 08          	add    $0x8,%rax
  106635:	48 8b 4c 24 68       	mov    0x68(%rsp),%rcx
  10663a:	48 83 c1 08          	add    $0x8,%rcx
  10663e:	48 89 c7             	mov    %rax,%rdi
  106641:	48 89 ce             	mov    %rcx,%rsi
  106644:	e8 87 ea ff ff       	callq  1050d0 <_ZN4core3cmp5impls56_$LT$impl$u20$core..cmp..PartialEq$u20$for$u20$usize$GT$2eq17h52fdec58a06cfc09E>
  106649:	88 44 24 07          	mov    %al,0x7(%rsp)
  10664d:	eb 0e                	jmp    10665d <_ZN70_$LT$core..option..Option$LT$T$GT$$u20$as$u20$core..cmp..PartialEq$GT$2eq17h0e6bc9f25ccd0eceE+0xfd>
  10664f:	c6 44 24 5f 01       	movb   $0x1,0x5f(%rsp)
  106654:	eb 11                	jmp    106667 <_ZN70_$LT$core..option..Option$LT$T$GT$$u20$as$u20$core..cmp..PartialEq$GT$2eq17h0e6bc9f25ccd0eceE+0x107>
  106656:	c6 44 24 5f 00       	movb   $0x0,0x5f(%rsp)
  10665b:	eb 0a                	jmp    106667 <_ZN70_$LT$core..option..Option$LT$T$GT$$u20$as$u20$core..cmp..PartialEq$GT$2eq17h0e6bc9f25ccd0eceE+0x107>
  10665d:	8a 44 24 07          	mov    0x7(%rsp),%al
  106661:	a8 01                	test   $0x1,%al
  106663:	75 ea                	jne    10664f <_ZN70_$LT$core..option..Option$LT$T$GT$$u20$as$u20$core..cmp..PartialEq$GT$2eq17h0e6bc9f25ccd0eceE+0xef>
  106665:	eb ef                	jmp    106656 <_ZN70_$LT$core..option..Option$LT$T$GT$$u20$as$u20$core..cmp..PartialEq$GT$2eq17h0e6bc9f25ccd0eceE+0xf6>
  106667:	8a 44 24 5f          	mov    0x5f(%rsp),%al
  10666b:	24 01                	and    $0x1,%al
  10666d:	0f b6 c0             	movzbl %al,%eax
  106670:	48 83 c4 78          	add    $0x78,%rsp
  106674:	c3                   	retq   
  106675:	66 2e 0f 1f 84 00 00 	nopw   %cs:0x0(%rax,%rax,1)
  10667c:	00 00 00 
  10667f:	90                   	nop

0000000000106680 <_ZN38_$LT$core..option..Option$LT$T$GT$$GT$7is_some17hdb93d8cc08d89fdeE>:
  106680:	48 83 ec 20          	sub    $0x20,%rsp
  106684:	48 89 7c 24 10       	mov    %rdi,0x10(%rsp)
  106689:	48 8b 44 24 10       	mov    0x10(%rsp),%rax
  10668e:	48 8b 08             	mov    (%rax),%rcx
  106691:	48 85 c9             	test   %rcx,%rcx
  106694:	48 89 4c 24 08       	mov    %rcx,0x8(%rsp)
  106699:	74 13                	je     1066ae <_ZN38_$LT$core..option..Option$LT$T$GT$$GT$7is_some17hdb93d8cc08d89fdeE+0x2e>
  10669b:	eb 00                	jmp    10669d <_ZN38_$LT$core..option..Option$LT$T$GT$$GT$7is_some17hdb93d8cc08d89fdeE+0x1d>
  10669d:	48 8b 44 24 08       	mov    0x8(%rsp),%rax
  1066a2:	48 83 e8 01          	sub    $0x1,%rax
  1066a6:	48 89 04 24          	mov    %rax,(%rsp)
  1066aa:	74 09                	je     1066b5 <_ZN38_$LT$core..option..Option$LT$T$GT$$GT$7is_some17hdb93d8cc08d89fdeE+0x35>
  1066ac:	eb 1a                	jmp    1066c8 <_ZN38_$LT$core..option..Option$LT$T$GT$$GT$7is_some17hdb93d8cc08d89fdeE+0x48>
  1066ae:	c6 44 24 1e 00       	movb   $0x0,0x1e(%rsp)
  1066b3:	eb 05                	jmp    1066ba <_ZN38_$LT$core..option..Option$LT$T$GT$$GT$7is_some17hdb93d8cc08d89fdeE+0x3a>
  1066b5:	c6 44 24 1e 01       	movb   $0x1,0x1e(%rsp)
  1066ba:	8a 44 24 1e          	mov    0x1e(%rsp),%al
  1066be:	24 01                	and    $0x1,%al
  1066c0:	0f b6 c0             	movzbl %al,%eax
  1066c3:	48 83 c4 20          	add    $0x20,%rsp
  1066c7:	c3                   	retq   
  1066c8:	0f 1f 84 00 00 00 00 	nopl   0x0(%rax,%rax,1)
  1066cf:	00 

00000000001066d0 <_ZN38_$LT$core..option..Option$LT$T$GT$$GT$7is_none17hcdbd86a4e4d3bb37E>:
  1066d0:	48 83 ec 18          	sub    $0x18,%rsp
  1066d4:	48 89 7c 24 08       	mov    %rdi,0x8(%rsp)
  1066d9:	48 8b 7c 24 08       	mov    0x8(%rsp),%rdi
  1066de:	e8 9d ff ff ff       	callq  106680 <_ZN38_$LT$core..option..Option$LT$T$GT$$GT$7is_some17hdb93d8cc08d89fdeE>
  1066e3:	88 44 24 07          	mov    %al,0x7(%rsp)
  1066e7:	8a 44 24 07          	mov    0x7(%rsp),%al
  1066eb:	34 ff                	xor    $0xff,%al
  1066ed:	24 01                	and    $0x1,%al
  1066ef:	0f b6 c0             	movzbl %al,%eax
  1066f2:	48 83 c4 18          	add    $0x18,%rsp
  1066f6:	c3                   	retq   
  1066f7:	66 0f 1f 84 00 00 00 	nopw   0x0(%rax,%rax,1)
  1066fe:	00 00 

0000000000106700 <_ZN38_$LT$core..option..Option$LT$T$GT$$GT$6unwrap17h215b19ae53807d8dE>:
  106700:	48 83 ec 38          	sub    $0x38,%rsp
  106704:	48 89 7c 24 28       	mov    %rdi,0x28(%rsp)
  106709:	48 8b 44 24 28       	mov    0x28(%rsp),%rax
  10670e:	48 89 44 24 20       	mov    %rax,0x20(%rsp)
  106713:	48 85 c0             	test   %rax,%rax
  106716:	0f 95 c1             	setne  %cl
  106719:	88 4c 24 1f          	mov    %cl,0x1f(%rsp)
  10671d:	75 1a                	jne    106739 <_ZN38_$LT$core..option..Option$LT$T$GT$$GT$6unwrap17h215b19ae53807d8dE+0x39>
  10671f:	eb 00                	jmp    106721 <_ZN38_$LT$core..option..Option$LT$T$GT$$GT$6unwrap17h215b19ae53807d8dE+0x21>
  106721:	8a 44 24 1f          	mov    0x1f(%rsp),%al
  106725:	f6 d0                	not    %al
  106727:	a8 01                	test   $0x1,%al
  106729:	74 43                	je     10676e <_ZN38_$LT$core..option..Option$LT$T$GT$$GT$6unwrap17h215b19ae53807d8dE+0x6e>
  10672b:	eb 00                	jmp    10672d <_ZN38_$LT$core..option..Option$LT$T$GT$$GT$6unwrap17h215b19ae53807d8dE+0x2d>
  10672d:	48 8d 3d 54 9d 00 00 	lea    0x9d54(%rip),%rdi        # 110488 <_ZN38_$LT$core..option..Option$LT$T$GT$$GT$6unwrap14_MSG_FILE_LINE17hbbb924041fead689E>
  106734:	e8 57 ed ff ff       	callq  105490 <_ZN4core9panicking5panic17h585bd70cda921012E>
  106739:	48 8b 44 24 20       	mov    0x20(%rsp),%rax
  10673e:	48 89 44 24 10       	mov    %rax,0x10(%rsp)
  106743:	eb 0c                	jmp    106751 <_ZN38_$LT$core..option..Option$LT$T$GT$$GT$6unwrap17h215b19ae53807d8dE+0x51>
  106745:	48 8b 44 24 10       	mov    0x10(%rsp),%rax
  10674a:	48 83 c4 38          	add    $0x38,%rsp
  10674e:	c3                   	retq   
  10674f:	eb f4                	jmp    106745 <_ZN38_$LT$core..option..Option$LT$T$GT$$GT$6unwrap17h215b19ae53807d8dE+0x45>
  106751:	48 8b 44 24 20       	mov    0x20(%rsp),%rax
  106756:	48 85 c0             	test   %rax,%rax
  106759:	0f 95 c1             	setne  %cl
  10675c:	88 4c 24 0f          	mov    %cl,0xf(%rsp)
  106760:	75 e3                	jne    106745 <_ZN38_$LT$core..option..Option$LT$T$GT$$GT$6unwrap17h215b19ae53807d8dE+0x45>
  106762:	eb 00                	jmp    106764 <_ZN38_$LT$core..option..Option$LT$T$GT$$GT$6unwrap17h215b19ae53807d8dE+0x64>
  106764:	8a 44 24 0f          	mov    0xf(%rsp),%al
  106768:	a8 01                	test   $0x1,%al
  10676a:	74 e3                	je     10674f <_ZN38_$LT$core..option..Option$LT$T$GT$$GT$6unwrap17h215b19ae53807d8dE+0x4f>
  10676c:	eb 00                	jmp    10676e <_ZN38_$LT$core..option..Option$LT$T$GT$$GT$6unwrap17h215b19ae53807d8dE+0x6e>
  10676e:	66 90                	xchg   %ax,%ax

0000000000106770 <_ZN38_$LT$core..option..Option$LT$T$GT$$GT$3map17h48bd0dc66f5412d2E>:
  106770:	48 83 ec 58          	sub    $0x58,%rsp
  106774:	48 89 7c 24 40       	mov    %rdi,0x40(%rsp)
  106779:	48 8b 7c 24 40       	mov    0x40(%rsp),%rdi
  10677e:	48 89 7c 24 48       	mov    %rdi,0x48(%rsp)
  106783:	c6 44 24 2f 00       	movb   $0x0,0x2f(%rsp)
  106788:	c6 44 24 2e 00       	movb   $0x0,0x2e(%rsp)
  10678d:	c6 44 24 2e 01       	movb   $0x1,0x2e(%rsp)
  106792:	8b 44 24 48          	mov    0x48(%rsp),%eax
  106796:	8b 4c 24 4c          	mov    0x4c(%rsp),%ecx
  10679a:	89 4c 24 3c          	mov    %ecx,0x3c(%rsp)
  10679e:	89 44 24 38          	mov    %eax,0x38(%rsp)
  1067a2:	c6 44 24 2f 01       	movb   $0x1,0x2f(%rsp)
  1067a7:	8b 44 24 38          	mov    0x38(%rsp),%eax
  1067ab:	85 c0                	test   %eax,%eax
  1067ad:	89 44 24 1c          	mov    %eax,0x1c(%rsp)
  1067b1:	74 14                	je     1067c7 <_ZN38_$LT$core..option..Option$LT$T$GT$$GT$3map17h48bd0dc66f5412d2E+0x57>
  1067b3:	eb 00                	jmp    1067b5 <_ZN38_$LT$core..option..Option$LT$T$GT$$GT$3map17h48bd0dc66f5412d2E+0x45>
  1067b5:	8b 44 24 1c          	mov    0x1c(%rsp),%eax
  1067b9:	83 e8 01             	sub    $0x1,%eax
  1067bc:	89 44 24 18          	mov    %eax,0x18(%rsp)
  1067c0:	74 0f                	je     1067d1 <_ZN38_$LT$core..option..Option$LT$T$GT$$GT$3map17h48bd0dc66f5412d2E+0x61>
  1067c2:	e9 80 00 00 00       	jmpq   106847 <_ZN38_$LT$core..option..Option$LT$T$GT$$GT$3map17h48bd0dc66f5412d2E+0xd7>
  1067c7:	c7 44 24 20 00 00 00 	movl   $0x0,0x20(%rsp)
  1067ce:	00 
  1067cf:	eb 40                	jmp    106811 <_ZN38_$LT$core..option..Option$LT$T$GT$$GT$3map17h48bd0dc66f5412d2E+0xa1>
  1067d1:	c6 44 24 2e 00       	movb   $0x0,0x2e(%rsp)
  1067d6:	8b 44 24 3c          	mov    0x3c(%rsp),%eax
  1067da:	c6 44 24 2f 00       	movb   $0x0,0x2f(%rsp)
  1067df:	89 44 24 30          	mov    %eax,0x30(%rsp)
  1067e3:	89 c7                	mov    %eax,%edi
  1067e5:	e8 c6 81 00 00       	callq  10e9b0 <_ZN81_$LT$core..str..Chars$LT$$u27$a$GT$$u20$as$u20$core..iter..iterator..Iterator$GT$4next28_$u7b$$u7b$closure$u7d$$u7d$17h13ac70b42b84f528E>
  1067ea:	89 44 24 14          	mov    %eax,0x14(%rsp)
  1067ee:	c7 44 24 20 01 00 00 	movl   $0x1,0x20(%rsp)
  1067f5:	00 
  1067f6:	8b 44 24 14          	mov    0x14(%rsp),%eax
  1067fa:	89 44 24 24          	mov    %eax,0x24(%rsp)
  1067fe:	eb 11                	jmp    106811 <_ZN38_$LT$core..option..Option$LT$T$GT$$GT$3map17h48bd0dc66f5412d2E+0xa1>
  106800:	48 8b 44 24 20       	mov    0x20(%rsp),%rax
  106805:	48 83 c4 58          	add    $0x58,%rsp
  106809:	c3                   	retq   
  10680a:	c6 44 24 2f 00       	movb   $0x0,0x2f(%rsp)
  10680f:	eb 19                	jmp    10682a <_ZN38_$LT$core..option..Option$LT$T$GT$$GT$3map17h48bd0dc66f5412d2E+0xba>
  106811:	f6 44 24 2f 01       	testb  $0x1,0x2f(%rsp)
  106816:	75 f2                	jne    10680a <_ZN38_$LT$core..option..Option$LT$T$GT$$GT$3map17h48bd0dc66f5412d2E+0x9a>
  106818:	eb 10                	jmp    10682a <_ZN38_$LT$core..option..Option$LT$T$GT$$GT$3map17h48bd0dc66f5412d2E+0xba>
  10681a:	eb e4                	jmp    106800 <_ZN38_$LT$core..option..Option$LT$T$GT$$GT$3map17h48bd0dc66f5412d2E+0x90>
  10681c:	f6 44 24 2e 01       	testb  $0x1,0x2e(%rsp)
  106821:	74 dd                	je     106800 <_ZN38_$LT$core..option..Option$LT$T$GT$$GT$3map17h48bd0dc66f5412d2E+0x90>
  106823:	c6 44 24 2e 00       	movb   $0x0,0x2e(%rsp)
  106828:	eb d6                	jmp    106800 <_ZN38_$LT$core..option..Option$LT$T$GT$$GT$3map17h48bd0dc66f5412d2E+0x90>
  10682a:	8b 44 24 38          	mov    0x38(%rsp),%eax
  10682e:	85 c0                	test   %eax,%eax
  106830:	89 44 24 10          	mov    %eax,0x10(%rsp)
  106834:	74 e4                	je     10681a <_ZN38_$LT$core..option..Option$LT$T$GT$$GT$3map17h48bd0dc66f5412d2E+0xaa>
  106836:	eb 00                	jmp    106838 <_ZN38_$LT$core..option..Option$LT$T$GT$$GT$3map17h48bd0dc66f5412d2E+0xc8>
  106838:	8b 44 24 10          	mov    0x10(%rsp),%eax
  10683c:	83 e8 01             	sub    $0x1,%eax
  10683f:	89 44 24 0c          	mov    %eax,0xc(%rsp)
  106843:	74 d7                	je     10681c <_ZN38_$LT$core..option..Option$LT$T$GT$$GT$3map17h48bd0dc66f5412d2E+0xac>
  106845:	eb 00                	jmp    106847 <_ZN38_$LT$core..option..Option$LT$T$GT$$GT$3map17h48bd0dc66f5412d2E+0xd7>
  106847:	66 0f 1f 84 00 00 00 	nopw   0x0(%rax,%rax,1)
  10684e:	00 00 

0000000000106850 <_ZN38_$LT$core..option..Option$LT$T$GT$$GT$3map17ha593e1e734a143d3E>:
  106850:	48 83 ec 78          	sub    $0x78,%rsp
  106854:	48 89 f8             	mov    %rdi,%rax
  106857:	48 89 44 24 40       	mov    %rax,0x40(%rsp)
  10685c:	48 89 74 24 38       	mov    %rsi,0x38(%rsp)
  106861:	48 89 7c 24 30       	mov    %rdi,0x30(%rsp)
  106866:	c6 44 24 4f 00       	movb   $0x0,0x4f(%rsp)
  10686b:	c6 44 24 4e 00       	movb   $0x0,0x4e(%rsp)
  106870:	c6 44 24 4e 01       	movb   $0x1,0x4e(%rsp)
  106875:	48 8b 44 24 38       	mov    0x38(%rsp),%rax
  10687a:	48 8b 48 10          	mov    0x10(%rax),%rcx
  10687e:	48 89 4c 24 70       	mov    %rcx,0x70(%rsp)
  106883:	48 8b 08             	mov    (%rax),%rcx
  106886:	48 8b 50 08          	mov    0x8(%rax),%rdx
  10688a:	48 89 54 24 68       	mov    %rdx,0x68(%rsp)
  10688f:	48 89 4c 24 60       	mov    %rcx,0x60(%rsp)
  106894:	c6 44 24 4f 01       	movb   $0x1,0x4f(%rsp)
  106899:	48 8b 4c 24 60       	mov    0x60(%rsp),%rcx
  10689e:	48 85 c9             	test   %rcx,%rcx
  1068a1:	48 89 4c 24 28       	mov    %rcx,0x28(%rsp)
  1068a6:	74 17                	je     1068bf <_ZN38_$LT$core..option..Option$LT$T$GT$$GT$3map17ha593e1e734a143d3E+0x6f>
  1068a8:	eb 00                	jmp    1068aa <_ZN38_$LT$core..option..Option$LT$T$GT$$GT$3map17ha593e1e734a143d3E+0x5a>
  1068aa:	48 8b 44 24 28       	mov    0x28(%rsp),%rax
  1068af:	48 83 e8 01          	sub    $0x1,%rax
  1068b3:	48 89 44 24 20       	mov    %rax,0x20(%rsp)
  1068b8:	74 13                	je     1068cd <_ZN38_$LT$core..option..Option$LT$T$GT$$GT$3map17ha593e1e734a143d3E+0x7d>
  1068ba:	e9 9f 00 00 00       	jmpq   10695e <_ZN38_$LT$core..option..Option$LT$T$GT$$GT$3map17ha593e1e734a143d3E+0x10e>
  1068bf:	48 8b 44 24 30       	mov    0x30(%rsp),%rax
  1068c4:	48 c7 00 00 00 00 00 	movq   $0x0,(%rax)
  1068cb:	eb 55                	jmp    106922 <_ZN38_$LT$core..option..Option$LT$T$GT$$GT$3map17ha593e1e734a143d3E+0xd2>
  1068cd:	48 8d 7c 24 50       	lea    0x50(%rsp),%rdi
  1068d2:	c6 44 24 4e 00       	movb   $0x0,0x4e(%rsp)
  1068d7:	48 8b 44 24 68       	mov    0x68(%rsp),%rax
  1068dc:	48 8b 4c 24 70       	mov    0x70(%rsp),%rcx
  1068e1:	c6 44 24 4f 00       	movb   $0x0,0x4f(%rsp)
  1068e6:	48 89 44 24 50       	mov    %rax,0x50(%rsp)
  1068eb:	48 89 4c 24 58       	mov    %rcx,0x58(%rsp)
  1068f0:	e8 db 80 00 00       	callq  10e9d0 <_ZN41_$LT$str$u20$as$u20$core..str..StrExt$GT$4find28_$u7b$$u7b$closure$u7d$$u7d$17h08e2bad1a9f1fd96E>
  1068f5:	48 89 44 24 18       	mov    %rax,0x18(%rsp)
  1068fa:	48 8b 44 24 30       	mov    0x30(%rsp),%rax
  1068ff:	48 c7 00 01 00 00 00 	movq   $0x1,(%rax)
  106906:	48 8b 4c 24 18       	mov    0x18(%rsp),%rcx
  10690b:	48 89 48 08          	mov    %rcx,0x8(%rax)
  10690f:	eb 11                	jmp    106922 <_ZN38_$LT$core..option..Option$LT$T$GT$$GT$3map17ha593e1e734a143d3E+0xd2>
  106911:	48 8b 44 24 40       	mov    0x40(%rsp),%rax
  106916:	48 83 c4 78          	add    $0x78,%rsp
  10691a:	c3                   	retq   
  10691b:	c6 44 24 4f 00       	movb   $0x0,0x4f(%rsp)
  106920:	eb 19                	jmp    10693b <_ZN38_$LT$core..option..Option$LT$T$GT$$GT$3map17ha593e1e734a143d3E+0xeb>
  106922:	f6 44 24 4f 01       	testb  $0x1,0x4f(%rsp)
  106927:	75 f2                	jne    10691b <_ZN38_$LT$core..option..Option$LT$T$GT$$GT$3map17ha593e1e734a143d3E+0xcb>
  106929:	eb 10                	jmp    10693b <_ZN38_$LT$core..option..Option$LT$T$GT$$GT$3map17ha593e1e734a143d3E+0xeb>
  10692b:	eb e4                	jmp    106911 <_ZN38_$LT$core..option..Option$LT$T$GT$$GT$3map17ha593e1e734a143d3E+0xc1>
  10692d:	f6 44 24 4e 01       	testb  $0x1,0x4e(%rsp)
  106932:	74 dd                	je     106911 <_ZN38_$LT$core..option..Option$LT$T$GT$$GT$3map17ha593e1e734a143d3E+0xc1>
  106934:	c6 44 24 4e 00       	movb   $0x0,0x4e(%rsp)
  106939:	eb d6                	jmp    106911 <_ZN38_$LT$core..option..Option$LT$T$GT$$GT$3map17ha593e1e734a143d3E+0xc1>
  10693b:	48 8b 44 24 60       	mov    0x60(%rsp),%rax
  106940:	48 85 c0             	test   %rax,%rax
  106943:	48 89 44 24 10       	mov    %rax,0x10(%rsp)
  106948:	74 e1                	je     10692b <_ZN38_$LT$core..option..Option$LT$T$GT$$GT$3map17ha593e1e734a143d3E+0xdb>
  10694a:	eb 00                	jmp    10694c <_ZN38_$LT$core..option..Option$LT$T$GT$$GT$3map17ha593e1e734a143d3E+0xfc>
  10694c:	48 8b 44 24 10       	mov    0x10(%rsp),%rax
  106951:	48 83 e8 01          	sub    $0x1,%rax
  106955:	48 89 44 24 08       	mov    %rax,0x8(%rsp)
  10695a:	74 d1                	je     10692d <_ZN38_$LT$core..option..Option$LT$T$GT$$GT$3map17ha593e1e734a143d3E+0xdd>
  10695c:	eb 00                	jmp    10695e <_ZN38_$LT$core..option..Option$LT$T$GT$$GT$3map17ha593e1e734a143d3E+0x10e>
  10695e:	66 90                	xchg   %ax,%ax

0000000000106960 <_ZN38_$LT$core..option..Option$LT$T$GT$$GT$8and_then17h029cbf8a76b53644E>:
  106960:	48 83 ec 68          	sub    $0x68,%rsp
  106964:	48 89 f8             	mov    %rdi,%rax
  106967:	48 89 74 24 60       	mov    %rsi,0x60(%rsp)
  10696c:	48 89 54 24 50       	mov    %rdx,0x50(%rsp)
  106971:	48 8b 54 24 50       	mov    0x50(%rsp),%rdx
  106976:	48 89 54 24 58       	mov    %rdx,0x58(%rsp)
  10697b:	48 89 44 24 18       	mov    %rax,0x18(%rsp)
  106980:	48 89 7c 24 10       	mov    %rdi,0x10(%rsp)
  106985:	c6 44 24 2f 00       	movb   $0x0,0x2f(%rsp)
  10698a:	c6 44 24 2e 00       	movb   $0x0,0x2e(%rsp)
  10698f:	c6 44 24 2e 01       	movb   $0x1,0x2e(%rsp)
  106994:	48 8b 44 24 60       	mov    0x60(%rsp),%rax
  106999:	48 89 44 24 48       	mov    %rax,0x48(%rsp)
  10699e:	c6 44 24 2f 01       	movb   $0x1,0x2f(%rsp)
  1069a3:	48 8b 44 24 58       	mov    0x58(%rsp),%rax
  1069a8:	48 89 44 24 40       	mov    %rax,0x40(%rsp)
  1069ad:	48 8b 44 24 48       	mov    0x48(%rsp),%rax
  1069b2:	48 85 c0             	test   %rax,%rax
  1069b5:	0f 95 c1             	setne  %cl
  1069b8:	88 4c 24 0f          	mov    %cl,0xf(%rsp)
  1069bc:	75 20                	jne    1069de <_ZN38_$LT$core..option..Option$LT$T$GT$$GT$8and_then17h029cbf8a76b53644E+0x7e>
  1069be:	eb 00                	jmp    1069c0 <_ZN38_$LT$core..option..Option$LT$T$GT$$GT$8and_then17h029cbf8a76b53644E+0x60>
  1069c0:	8a 44 24 0f          	mov    0xf(%rsp),%al
  1069c4:	f6 d0                	not    %al
  1069c6:	a8 01                	test   $0x1,%al
  1069c8:	0f 84 93 00 00 00    	je     106a61 <_ZN38_$LT$core..option..Option$LT$T$GT$$GT$8and_then17h029cbf8a76b53644E+0x101>
  1069ce:	eb 00                	jmp    1069d0 <_ZN38_$LT$core..option..Option$LT$T$GT$$GT$8and_then17h029cbf8a76b53644E+0x70>
  1069d0:	48 8b 44 24 10       	mov    0x10(%rsp),%rax
  1069d5:	48 c7 00 00 00 00 00 	movq   $0x0,(%rax)
  1069dc:	eb 4d                	jmp    106a2b <_ZN38_$LT$core..option..Option$LT$T$GT$$GT$8and_then17h029cbf8a76b53644E+0xcb>
  1069de:	c6 44 24 2e 00       	movb   $0x0,0x2e(%rsp)
  1069e3:	48 8b 44 24 48       	mov    0x48(%rsp),%rax
  1069e8:	c6 44 24 2f 00       	movb   $0x0,0x2f(%rsp)
  1069ed:	48 8b 4c 24 40       	mov    0x40(%rsp),%rcx
  1069f2:	48 89 4c 24 38       	mov    %rcx,0x38(%rsp)
  1069f7:	48 89 44 24 30       	mov    %rax,0x30(%rsp)
  1069fc:	48 8b 44 24 38       	mov    0x38(%rsp),%rax
  106a01:	48 89 44 24 20       	mov    %rax,0x20(%rsp)
  106a06:	48 8b 54 24 30       	mov    0x30(%rsp),%rdx
  106a0b:	48 8b 7c 24 10       	mov    0x10(%rsp),%rdi
  106a10:	48 89 c6             	mov    %rax,%rsi
  106a13:	e8 38 7f 00 00       	callq  10e950 <_ZN91_$LT$core..iter..Zip$LT$A$C$$u20$B$GT$$u20$as$u20$core..iter..ZipImpl$LT$A$C$$u20$B$GT$$GT$4next28_$u7b$$u7b$closure$u7d$$u7d$28_$u7b$$u7b$closure$u7d$$u7d$17h4f8e04c69bc1596dE>
  106a18:	eb 11                	jmp    106a2b <_ZN38_$LT$core..option..Option$LT$T$GT$$GT$8and_then17h029cbf8a76b53644E+0xcb>
  106a1a:	48 8b 44 24 18       	mov    0x18(%rsp),%rax
  106a1f:	48 83 c4 68          	add    $0x68,%rsp
  106a23:	c3                   	retq   
  106a24:	c6 44 24 2f 00       	movb   $0x0,0x2f(%rsp)
  106a29:	eb 19                	jmp    106a44 <_ZN38_$LT$core..option..Option$LT$T$GT$$GT$8and_then17h029cbf8a76b53644E+0xe4>
  106a2b:	f6 44 24 2f 01       	testb  $0x1,0x2f(%rsp)
  106a30:	75 f2                	jne    106a24 <_ZN38_$LT$core..option..Option$LT$T$GT$$GT$8and_then17h029cbf8a76b53644E+0xc4>
  106a32:	eb 10                	jmp    106a44 <_ZN38_$LT$core..option..Option$LT$T$GT$$GT$8and_then17h029cbf8a76b53644E+0xe4>
  106a34:	eb e4                	jmp    106a1a <_ZN38_$LT$core..option..Option$LT$T$GT$$GT$8and_then17h029cbf8a76b53644E+0xba>
  106a36:	f6 44 24 2e 01       	testb  $0x1,0x2e(%rsp)
  106a3b:	74 dd                	je     106a1a <_ZN38_$LT$core..option..Option$LT$T$GT$$GT$8and_then17h029cbf8a76b53644E+0xba>
  106a3d:	c6 44 24 2e 00       	movb   $0x0,0x2e(%rsp)
  106a42:	eb d6                	jmp    106a1a <_ZN38_$LT$core..option..Option$LT$T$GT$$GT$8and_then17h029cbf8a76b53644E+0xba>
  106a44:	48 8b 44 24 48       	mov    0x48(%rsp),%rax
  106a49:	48 85 c0             	test   %rax,%rax
  106a4c:	0f 95 c1             	setne  %cl
  106a4f:	88 4c 24 0e          	mov    %cl,0xe(%rsp)
  106a53:	75 e1                	jne    106a36 <_ZN38_$LT$core..option..Option$LT$T$GT$$GT$8and_then17h029cbf8a76b53644E+0xd6>
  106a55:	eb 00                	jmp    106a57 <_ZN38_$LT$core..option..Option$LT$T$GT$$GT$8and_then17h029cbf8a76b53644E+0xf7>
  106a57:	8a 44 24 0e          	mov    0xe(%rsp),%al
  106a5b:	a8 01                	test   $0x1,%al
  106a5d:	74 d5                	je     106a34 <_ZN38_$LT$core..option..Option$LT$T$GT$$GT$8and_then17h029cbf8a76b53644E+0xd4>
  106a5f:	eb 00                	jmp    106a61 <_ZN38_$LT$core..option..Option$LT$T$GT$$GT$8and_then17h029cbf8a76b53644E+0x101>
  106a61:	66 2e 0f 1f 84 00 00 	nopw   %cs:0x0(%rax,%rax,1)
  106a68:	00 00 00 
  106a6b:	0f 1f 44 00 00       	nopl   0x0(%rax,%rax,1)

0000000000106a70 <_ZN38_$LT$core..option..Option$LT$T$GT$$GT$8and_then17h4f63bae6da1c470bE>:
  106a70:	48 83 ec 38          	sub    $0x38,%rsp
  106a74:	48 89 f8             	mov    %rdi,%rax
  106a77:	48 89 74 24 30       	mov    %rsi,0x30(%rsp)
  106a7c:	48 89 44 24 10       	mov    %rax,0x10(%rsp)
  106a81:	48 89 7c 24 08       	mov    %rdi,0x8(%rsp)
  106a86:	c6 44 24 1f 00       	movb   $0x0,0x1f(%rsp)
  106a8b:	c6 44 24 1e 00       	movb   $0x0,0x1e(%rsp)
  106a90:	c6 44 24 1e 01       	movb   $0x1,0x1e(%rsp)
  106a95:	48 8b 44 24 30       	mov    0x30(%rsp),%rax
  106a9a:	48 89 44 24 28       	mov    %rax,0x28(%rsp)
  106a9f:	c6 44 24 1f 01       	movb   $0x1,0x1f(%rsp)
  106aa4:	48 8b 44 24 28       	mov    0x28(%rsp),%rax
  106aa9:	48 85 c0             	test   %rax,%rax
  106aac:	0f 95 c1             	setne  %cl
  106aaf:	88 4c 24 07          	mov    %cl,0x7(%rsp)
  106ab3:	75 1c                	jne    106ad1 <_ZN38_$LT$core..option..Option$LT$T$GT$$GT$8and_then17h4f63bae6da1c470bE+0x61>
  106ab5:	eb 00                	jmp    106ab7 <_ZN38_$LT$core..option..Option$LT$T$GT$$GT$8and_then17h4f63bae6da1c470bE+0x47>
  106ab7:	8a 44 24 07          	mov    0x7(%rsp),%al
  106abb:	f6 d0                	not    %al
  106abd:	a8 01                	test   $0x1,%al
  106abf:	74 7a                	je     106b3b <_ZN38_$LT$core..option..Option$LT$T$GT$$GT$8and_then17h4f63bae6da1c470bE+0xcb>
  106ac1:	eb 00                	jmp    106ac3 <_ZN38_$LT$core..option..Option$LT$T$GT$$GT$8and_then17h4f63bae6da1c470bE+0x53>
  106ac3:	48 8b 44 24 08       	mov    0x8(%rsp),%rax
  106ac8:	48 c7 00 00 00 00 00 	movq   $0x0,(%rax)
  106acf:	eb 34                	jmp    106b05 <_ZN38_$LT$core..option..Option$LT$T$GT$$GT$8and_then17h4f63bae6da1c470bE+0x95>
  106ad1:	c6 44 24 1e 00       	movb   $0x0,0x1e(%rsp)
  106ad6:	48 8b 44 24 28       	mov    0x28(%rsp),%rax
  106adb:	c6 44 24 1f 00       	movb   $0x0,0x1f(%rsp)
  106ae0:	48 89 44 24 20       	mov    %rax,0x20(%rsp)
  106ae5:	48 8b 7c 24 08       	mov    0x8(%rsp),%rdi
  106aea:	48 89 c6             	mov    %rax,%rsi
  106aed:	e8 fe 7e 00 00       	callq  10e9f0 <_ZN4core3fmt9Formatter8getcount28_$u7b$$u7b$closure$u7d$$u7d$17h2c690faf203f9673E>
  106af2:	eb 11                	jmp    106b05 <_ZN38_$LT$core..option..Option$LT$T$GT$$GT$8and_then17h4f63bae6da1c470bE+0x95>
  106af4:	48 8b 44 24 10       	mov    0x10(%rsp),%rax
  106af9:	48 83 c4 38          	add    $0x38,%rsp
  106afd:	c3                   	retq   
  106afe:	c6 44 24 1f 00       	movb   $0x0,0x1f(%rsp)
  106b03:	eb 19                	jmp    106b1e <_ZN38_$LT$core..option..Option$LT$T$GT$$GT$8and_then17h4f63bae6da1c470bE+0xae>
  106b05:	f6 44 24 1f 01       	testb  $0x1,0x1f(%rsp)
  106b0a:	75 f2                	jne    106afe <_ZN38_$LT$core..option..Option$LT$T$GT$$GT$8and_then17h4f63bae6da1c470bE+0x8e>
  106b0c:	eb 10                	jmp    106b1e <_ZN38_$LT$core..option..Option$LT$T$GT$$GT$8and_then17h4f63bae6da1c470bE+0xae>
  106b0e:	eb e4                	jmp    106af4 <_ZN38_$LT$core..option..Option$LT$T$GT$$GT$8and_then17h4f63bae6da1c470bE+0x84>
  106b10:	f6 44 24 1e 01       	testb  $0x1,0x1e(%rsp)
  106b15:	74 dd                	je     106af4 <_ZN38_$LT$core..option..Option$LT$T$GT$$GT$8and_then17h4f63bae6da1c470bE+0x84>
  106b17:	c6 44 24 1e 00       	movb   $0x0,0x1e(%rsp)
  106b1c:	eb d6                	jmp    106af4 <_ZN38_$LT$core..option..Option$LT$T$GT$$GT$8and_then17h4f63bae6da1c470bE+0x84>
  106b1e:	48 8b 44 24 28       	mov    0x28(%rsp),%rax
  106b23:	48 85 c0             	test   %rax,%rax
  106b26:	0f 95 c1             	setne  %cl
  106b29:	88 4c 24 06          	mov    %cl,0x6(%rsp)
  106b2d:	75 e1                	jne    106b10 <_ZN38_$LT$core..option..Option$LT$T$GT$$GT$8and_then17h4f63bae6da1c470bE+0xa0>
  106b2f:	eb 00                	jmp    106b31 <_ZN38_$LT$core..option..Option$LT$T$GT$$GT$8and_then17h4f63bae6da1c470bE+0xc1>
  106b31:	8a 44 24 06          	mov    0x6(%rsp),%al
  106b35:	a8 01                	test   $0x1,%al
  106b37:	74 d5                	je     106b0e <_ZN38_$LT$core..option..Option$LT$T$GT$$GT$8and_then17h4f63bae6da1c470bE+0x9e>
  106b39:	eb 00                	jmp    106b3b <_ZN38_$LT$core..option..Option$LT$T$GT$$GT$8and_then17h4f63bae6da1c470bE+0xcb>
  106b3b:	0f 1f 44 00 00       	nopl   0x0(%rax,%rax,1)

0000000000106b40 <_ZN38_$LT$core..option..Option$LT$T$GT$$GT$8and_then17h50f28c2bdd858095E>:
  106b40:	48 83 ec 68          	sub    $0x68,%rsp
  106b44:	48 89 f8             	mov    %rdi,%rax
  106b47:	48 89 74 24 60       	mov    %rsi,0x60(%rsp)
  106b4c:	48 89 54 24 50       	mov    %rdx,0x50(%rsp)
  106b51:	48 8b 54 24 50       	mov    0x50(%rsp),%rdx
  106b56:	48 89 54 24 58       	mov    %rdx,0x58(%rsp)
  106b5b:	48 89 44 24 18       	mov    %rax,0x18(%rsp)
  106b60:	48 89 7c 24 10       	mov    %rdi,0x10(%rsp)
  106b65:	c6 44 24 2f 00       	movb   $0x0,0x2f(%rsp)
  106b6a:	c6 44 24 2e 00       	movb   $0x0,0x2e(%rsp)
  106b6f:	c6 44 24 2e 01       	movb   $0x1,0x2e(%rsp)
  106b74:	48 8b 44 24 60       	mov    0x60(%rsp),%rax
  106b79:	48 89 44 24 48       	mov    %rax,0x48(%rsp)
  106b7e:	c6 44 24 2f 01       	movb   $0x1,0x2f(%rsp)
  106b83:	48 8b 44 24 58       	mov    0x58(%rsp),%rax
  106b88:	48 89 44 24 40       	mov    %rax,0x40(%rsp)
  106b8d:	48 8b 44 24 48       	mov    0x48(%rsp),%rax
  106b92:	48 85 c0             	test   %rax,%rax
  106b95:	0f 95 c1             	setne  %cl
  106b98:	88 4c 24 0f          	mov    %cl,0xf(%rsp)
  106b9c:	75 20                	jne    106bbe <_ZN38_$LT$core..option..Option$LT$T$GT$$GT$8and_then17h50f28c2bdd858095E+0x7e>
  106b9e:	eb 00                	jmp    106ba0 <_ZN38_$LT$core..option..Option$LT$T$GT$$GT$8and_then17h50f28c2bdd858095E+0x60>
  106ba0:	8a 44 24 0f          	mov    0xf(%rsp),%al
  106ba4:	f6 d0                	not    %al
  106ba6:	a8 01                	test   $0x1,%al
  106ba8:	0f 84 93 00 00 00    	je     106c41 <_ZN38_$LT$core..option..Option$LT$T$GT$$GT$8and_then17h50f28c2bdd858095E+0x101>
  106bae:	eb 00                	jmp    106bb0 <_ZN38_$LT$core..option..Option$LT$T$GT$$GT$8and_then17h50f28c2bdd858095E+0x70>
  106bb0:	48 8b 44 24 10       	mov    0x10(%rsp),%rax
  106bb5:	48 c7 00 00 00 00 00 	movq   $0x0,(%rax)
  106bbc:	eb 4d                	jmp    106c0b <_ZN38_$LT$core..option..Option$LT$T$GT$$GT$8and_then17h50f28c2bdd858095E+0xcb>
  106bbe:	c6 44 24 2e 00       	movb   $0x0,0x2e(%rsp)
  106bc3:	48 8b 44 24 48       	mov    0x48(%rsp),%rax
  106bc8:	c6 44 24 2f 00       	movb   $0x0,0x2f(%rsp)
  106bcd:	48 8b 4c 24 40       	mov    0x40(%rsp),%rcx
  106bd2:	48 89 4c 24 38       	mov    %rcx,0x38(%rsp)
  106bd7:	48 89 44 24 30       	mov    %rax,0x30(%rsp)
  106bdc:	48 8b 44 24 38       	mov    0x38(%rsp),%rax
  106be1:	48 89 44 24 20       	mov    %rax,0x20(%rsp)
  106be6:	48 8b 54 24 30       	mov    0x30(%rsp),%rdx
  106beb:	48 8b 7c 24 10       	mov    0x10(%rsp),%rdi
  106bf0:	48 89 c6             	mov    %rax,%rsi
  106bf3:	e8 18 7c 00 00       	callq  10e810 <_ZN91_$LT$core..iter..Zip$LT$A$C$$u20$B$GT$$u20$as$u20$core..iter..ZipImpl$LT$A$C$$u20$B$GT$$GT$4next28_$u7b$$u7b$closure$u7d$$u7d$17h23745bc6daa90f4fE>
  106bf8:	eb 11                	jmp    106c0b <_ZN38_$LT$core..option..Option$LT$T$GT$$GT$8and_then17h50f28c2bdd858095E+0xcb>
  106bfa:	48 8b 44 24 18       	mov    0x18(%rsp),%rax
  106bff:	48 83 c4 68          	add    $0x68,%rsp
  106c03:	c3                   	retq   
  106c04:	c6 44 24 2f 00       	movb   $0x0,0x2f(%rsp)
  106c09:	eb 19                	jmp    106c24 <_ZN38_$LT$core..option..Option$LT$T$GT$$GT$8and_then17h50f28c2bdd858095E+0xe4>
  106c0b:	f6 44 24 2f 01       	testb  $0x1,0x2f(%rsp)
  106c10:	75 f2                	jne    106c04 <_ZN38_$LT$core..option..Option$LT$T$GT$$GT$8and_then17h50f28c2bdd858095E+0xc4>
  106c12:	eb 10                	jmp    106c24 <_ZN38_$LT$core..option..Option$LT$T$GT$$GT$8and_then17h50f28c2bdd858095E+0xe4>
  106c14:	eb e4                	jmp    106bfa <_ZN38_$LT$core..option..Option$LT$T$GT$$GT$8and_then17h50f28c2bdd858095E+0xba>
  106c16:	f6 44 24 2e 01       	testb  $0x1,0x2e(%rsp)
  106c1b:	74 dd                	je     106bfa <_ZN38_$LT$core..option..Option$LT$T$GT$$GT$8and_then17h50f28c2bdd858095E+0xba>
  106c1d:	c6 44 24 2e 00       	movb   $0x0,0x2e(%rsp)
  106c22:	eb d6                	jmp    106bfa <_ZN38_$LT$core..option..Option$LT$T$GT$$GT$8and_then17h50f28c2bdd858095E+0xba>
  106c24:	48 8b 44 24 48       	mov    0x48(%rsp),%rax
  106c29:	48 85 c0             	test   %rax,%rax
  106c2c:	0f 95 c1             	setne  %cl
  106c2f:	88 4c 24 0e          	mov    %cl,0xe(%rsp)
  106c33:	75 e1                	jne    106c16 <_ZN38_$LT$core..option..Option$LT$T$GT$$GT$8and_then17h50f28c2bdd858095E+0xd6>
  106c35:	eb 00                	jmp    106c37 <_ZN38_$LT$core..option..Option$LT$T$GT$$GT$8and_then17h50f28c2bdd858095E+0xf7>
  106c37:	8a 44 24 0e          	mov    0xe(%rsp),%al
  106c3b:	a8 01                	test   $0x1,%al
  106c3d:	74 d5                	je     106c14 <_ZN38_$LT$core..option..Option$LT$T$GT$$GT$8and_then17h50f28c2bdd858095E+0xd4>
  106c3f:	eb 00                	jmp    106c41 <_ZN38_$LT$core..option..Option$LT$T$GT$$GT$8and_then17h50f28c2bdd858095E+0x101>
  106c41:	66 2e 0f 1f 84 00 00 	nopw   %cs:0x0(%rax,%rax,1)
  106c48:	00 00 00 
  106c4b:	0f 1f 44 00 00       	nopl   0x0(%rax,%rax,1)

0000000000106c50 <_ZN38_$LT$core..option..Option$LT$T$GT$$GT$8and_then17h6b5e1ac71964135aE>:
  106c50:	48 83 ec 68          	sub    $0x68,%rsp
  106c54:	48 89 f8             	mov    %rdi,%rax
  106c57:	48 89 74 24 60       	mov    %rsi,0x60(%rsp)
  106c5c:	48 89 54 24 50       	mov    %rdx,0x50(%rsp)
  106c61:	48 8b 54 24 50       	mov    0x50(%rsp),%rdx
  106c66:	48 89 54 24 58       	mov    %rdx,0x58(%rsp)
  106c6b:	48 89 44 24 18       	mov    %rax,0x18(%rsp)
  106c70:	48 89 7c 24 10       	mov    %rdi,0x10(%rsp)
  106c75:	c6 44 24 2f 00       	movb   $0x0,0x2f(%rsp)
  106c7a:	c6 44 24 2e 00       	movb   $0x0,0x2e(%rsp)
  106c7f:	c6 44 24 2e 01       	movb   $0x1,0x2e(%rsp)
  106c84:	48 8b 44 24 60       	mov    0x60(%rsp),%rax
  106c89:	48 89 44 24 48       	mov    %rax,0x48(%rsp)
  106c8e:	c6 44 24 2f 01       	movb   $0x1,0x2f(%rsp)
  106c93:	48 8b 44 24 58       	mov    0x58(%rsp),%rax
  106c98:	48 89 44 24 40       	mov    %rax,0x40(%rsp)
  106c9d:	48 8b 44 24 48       	mov    0x48(%rsp),%rax
  106ca2:	48 85 c0             	test   %rax,%rax
  106ca5:	0f 95 c1             	setne  %cl
  106ca8:	88 4c 24 0f          	mov    %cl,0xf(%rsp)
  106cac:	75 20                	jne    106cce <_ZN38_$LT$core..option..Option$LT$T$GT$$GT$8and_then17h6b5e1ac71964135aE+0x7e>
  106cae:	eb 00                	jmp    106cb0 <_ZN38_$LT$core..option..Option$LT$T$GT$$GT$8and_then17h6b5e1ac71964135aE+0x60>
  106cb0:	8a 44 24 0f          	mov    0xf(%rsp),%al
  106cb4:	f6 d0                	not    %al
  106cb6:	a8 01                	test   $0x1,%al
  106cb8:	0f 84 93 00 00 00    	je     106d51 <_ZN38_$LT$core..option..Option$LT$T$GT$$GT$8and_then17h6b5e1ac71964135aE+0x101>
  106cbe:	eb 00                	jmp    106cc0 <_ZN38_$LT$core..option..Option$LT$T$GT$$GT$8and_then17h6b5e1ac71964135aE+0x70>
  106cc0:	48 8b 44 24 10       	mov    0x10(%rsp),%rax
  106cc5:	48 c7 00 00 00 00 00 	movq   $0x0,(%rax)
  106ccc:	eb 4d                	jmp    106d1b <_ZN38_$LT$core..option..Option$LT$T$GT$$GT$8and_then17h6b5e1ac71964135aE+0xcb>
  106cce:	c6 44 24 2e 00       	movb   $0x0,0x2e(%rsp)
  106cd3:	48 8b 44 24 48       	mov    0x48(%rsp),%rax
  106cd8:	c6 44 24 2f 00       	movb   $0x0,0x2f(%rsp)
  106cdd:	48 8b 4c 24 40       	mov    0x40(%rsp),%rcx
  106ce2:	48 89 4c 24 38       	mov    %rcx,0x38(%rsp)
  106ce7:	48 89 44 24 30       	mov    %rax,0x30(%rsp)
  106cec:	48 8b 44 24 38       	mov    0x38(%rsp),%rax
  106cf1:	48 89 44 24 20       	mov    %rax,0x20(%rsp)
  106cf6:	48 8b 54 24 30       	mov    0x30(%rsp),%rdx
  106cfb:	48 8b 7c 24 10       	mov    0x10(%rsp),%rdi
  106d00:	48 89 c6             	mov    %rax,%rsi
  106d03:	e8 d8 7b 00 00       	callq  10e8e0 <_ZN91_$LT$core..iter..Zip$LT$A$C$$u20$B$GT$$u20$as$u20$core..iter..ZipImpl$LT$A$C$$u20$B$GT$$GT$4next28_$u7b$$u7b$closure$u7d$$u7d$17hc2c419ad42de2db8E>
  106d08:	eb 11                	jmp    106d1b <_ZN38_$LT$core..option..Option$LT$T$GT$$GT$8and_then17h6b5e1ac71964135aE+0xcb>
  106d0a:	48 8b 44 24 18       	mov    0x18(%rsp),%rax
  106d0f:	48 83 c4 68          	add    $0x68,%rsp
  106d13:	c3                   	retq   
  106d14:	c6 44 24 2f 00       	movb   $0x0,0x2f(%rsp)
  106d19:	eb 19                	jmp    106d34 <_ZN38_$LT$core..option..Option$LT$T$GT$$GT$8and_then17h6b5e1ac71964135aE+0xe4>
  106d1b:	f6 44 24 2f 01       	testb  $0x1,0x2f(%rsp)
  106d20:	75 f2                	jne    106d14 <_ZN38_$LT$core..option..Option$LT$T$GT$$GT$8and_then17h6b5e1ac71964135aE+0xc4>
  106d22:	eb 10                	jmp    106d34 <_ZN38_$LT$core..option..Option$LT$T$GT$$GT$8and_then17h6b5e1ac71964135aE+0xe4>
  106d24:	eb e4                	jmp    106d0a <_ZN38_$LT$core..option..Option$LT$T$GT$$GT$8and_then17h6b5e1ac71964135aE+0xba>
  106d26:	f6 44 24 2e 01       	testb  $0x1,0x2e(%rsp)
  106d2b:	74 dd                	je     106d0a <_ZN38_$LT$core..option..Option$LT$T$GT$$GT$8and_then17h6b5e1ac71964135aE+0xba>
  106d2d:	c6 44 24 2e 00       	movb   $0x0,0x2e(%rsp)
  106d32:	eb d6                	jmp    106d0a <_ZN38_$LT$core..option..Option$LT$T$GT$$GT$8and_then17h6b5e1ac71964135aE+0xba>
  106d34:	48 8b 44 24 48       	mov    0x48(%rsp),%rax
  106d39:	48 85 c0             	test   %rax,%rax
  106d3c:	0f 95 c1             	setne  %cl
  106d3f:	88 4c 24 0e          	mov    %cl,0xe(%rsp)
  106d43:	75 e1                	jne    106d26 <_ZN38_$LT$core..option..Option$LT$T$GT$$GT$8and_then17h6b5e1ac71964135aE+0xd6>
  106d45:	eb 00                	jmp    106d47 <_ZN38_$LT$core..option..Option$LT$T$GT$$GT$8and_then17h6b5e1ac71964135aE+0xf7>
  106d47:	8a 44 24 0e          	mov    0xe(%rsp),%al
  106d4b:	a8 01                	test   $0x1,%al
  106d4d:	74 d5                	je     106d24 <_ZN38_$LT$core..option..Option$LT$T$GT$$GT$8and_then17h6b5e1ac71964135aE+0xd4>
  106d4f:	eb 00                	jmp    106d51 <_ZN38_$LT$core..option..Option$LT$T$GT$$GT$8and_then17h6b5e1ac71964135aE+0x101>
  106d51:	66 2e 0f 1f 84 00 00 	nopw   %cs:0x0(%rax,%rax,1)
  106d58:	00 00 00 
  106d5b:	0f 1f 44 00 00       	nopl   0x0(%rax,%rax,1)

0000000000106d60 <_ZN38_$LT$core..option..Option$LT$T$GT$$GT$8and_then17h8795c8b1f301c2d5E>:
  106d60:	48 83 ec 68          	sub    $0x68,%rsp
  106d64:	48 89 f8             	mov    %rdi,%rax
  106d67:	48 89 74 24 60       	mov    %rsi,0x60(%rsp)
  106d6c:	48 89 54 24 50       	mov    %rdx,0x50(%rsp)
  106d71:	48 8b 54 24 50       	mov    0x50(%rsp),%rdx
  106d76:	48 89 54 24 58       	mov    %rdx,0x58(%rsp)
  106d7b:	48 89 44 24 18       	mov    %rax,0x18(%rsp)
  106d80:	48 89 7c 24 10       	mov    %rdi,0x10(%rsp)
  106d85:	c6 44 24 2f 00       	movb   $0x0,0x2f(%rsp)
  106d8a:	c6 44 24 2e 00       	movb   $0x0,0x2e(%rsp)
  106d8f:	c6 44 24 2e 01       	movb   $0x1,0x2e(%rsp)
  106d94:	48 8b 44 24 60       	mov    0x60(%rsp),%rax
  106d99:	48 89 44 24 48       	mov    %rax,0x48(%rsp)
  106d9e:	c6 44 24 2f 01       	movb   $0x1,0x2f(%rsp)
  106da3:	48 8b 44 24 58       	mov    0x58(%rsp),%rax
  106da8:	48 89 44 24 40       	mov    %rax,0x40(%rsp)
  106dad:	48 8b 44 24 48       	mov    0x48(%rsp),%rax
  106db2:	48 85 c0             	test   %rax,%rax
  106db5:	0f 95 c1             	setne  %cl
  106db8:	88 4c 24 0f          	mov    %cl,0xf(%rsp)
  106dbc:	75 20                	jne    106dde <_ZN38_$LT$core..option..Option$LT$T$GT$$GT$8and_then17h8795c8b1f301c2d5E+0x7e>
  106dbe:	eb 00                	jmp    106dc0 <_ZN38_$LT$core..option..Option$LT$T$GT$$GT$8and_then17h8795c8b1f301c2d5E+0x60>
  106dc0:	8a 44 24 0f          	mov    0xf(%rsp),%al
  106dc4:	f6 d0                	not    %al
  106dc6:	a8 01                	test   $0x1,%al
  106dc8:	0f 84 93 00 00 00    	je     106e61 <_ZN38_$LT$core..option..Option$LT$T$GT$$GT$8and_then17h8795c8b1f301c2d5E+0x101>
  106dce:	eb 00                	jmp    106dd0 <_ZN38_$LT$core..option..Option$LT$T$GT$$GT$8and_then17h8795c8b1f301c2d5E+0x70>
  106dd0:	48 8b 44 24 10       	mov    0x10(%rsp),%rax
  106dd5:	48 c7 00 00 00 00 00 	movq   $0x0,(%rax)
  106ddc:	eb 4d                	jmp    106e2b <_ZN38_$LT$core..option..Option$LT$T$GT$$GT$8and_then17h8795c8b1f301c2d5E+0xcb>
  106dde:	c6 44 24 2e 00       	movb   $0x0,0x2e(%rsp)
  106de3:	48 8b 44 24 48       	mov    0x48(%rsp),%rax
  106de8:	c6 44 24 2f 00       	movb   $0x0,0x2f(%rsp)
  106ded:	48 8b 4c 24 40       	mov    0x40(%rsp),%rcx
  106df2:	48 89 4c 24 38       	mov    %rcx,0x38(%rsp)
  106df7:	48 89 44 24 30       	mov    %rax,0x30(%rsp)
  106dfc:	48 8b 44 24 38       	mov    0x38(%rsp),%rax
  106e01:	48 89 44 24 20       	mov    %rax,0x20(%rsp)
  106e06:	48 8b 54 24 30       	mov    0x30(%rsp),%rdx
  106e0b:	48 8b 7c 24 10       	mov    0x10(%rsp),%rdi
  106e10:	48 89 c6             	mov    %rax,%rsi
  106e13:	e8 68 7a 00 00       	callq  10e880 <_ZN91_$LT$core..iter..Zip$LT$A$C$$u20$B$GT$$u20$as$u20$core..iter..ZipImpl$LT$A$C$$u20$B$GT$$GT$4next28_$u7b$$u7b$closure$u7d$$u7d$28_$u7b$$u7b$closure$u7d$$u7d$17h53d18bde40aa8937E>
  106e18:	eb 11                	jmp    106e2b <_ZN38_$LT$core..option..Option$LT$T$GT$$GT$8and_then17h8795c8b1f301c2d5E+0xcb>
  106e1a:	48 8b 44 24 18       	mov    0x18(%rsp),%rax
  106e1f:	48 83 c4 68          	add    $0x68,%rsp
  106e23:	c3                   	retq   
  106e24:	c6 44 24 2f 00       	movb   $0x0,0x2f(%rsp)
  106e29:	eb 19                	jmp    106e44 <_ZN38_$LT$core..option..Option$LT$T$GT$$GT$8and_then17h8795c8b1f301c2d5E+0xe4>
  106e2b:	f6 44 24 2f 01       	testb  $0x1,0x2f(%rsp)
  106e30:	75 f2                	jne    106e24 <_ZN38_$LT$core..option..Option$LT$T$GT$$GT$8and_then17h8795c8b1f301c2d5E+0xc4>
  106e32:	eb 10                	jmp    106e44 <_ZN38_$LT$core..option..Option$LT$T$GT$$GT$8and_then17h8795c8b1f301c2d5E+0xe4>
  106e34:	eb e4                	jmp    106e1a <_ZN38_$LT$core..option..Option$LT$T$GT$$GT$8and_then17h8795c8b1f301c2d5E+0xba>
  106e36:	f6 44 24 2e 01       	testb  $0x1,0x2e(%rsp)
  106e3b:	74 dd                	je     106e1a <_ZN38_$LT$core..option..Option$LT$T$GT$$GT$8and_then17h8795c8b1f301c2d5E+0xba>
  106e3d:	c6 44 24 2e 00       	movb   $0x0,0x2e(%rsp)
  106e42:	eb d6                	jmp    106e1a <_ZN38_$LT$core..option..Option$LT$T$GT$$GT$8and_then17h8795c8b1f301c2d5E+0xba>
  106e44:	48 8b 44 24 48       	mov    0x48(%rsp),%rax
  106e49:	48 85 c0             	test   %rax,%rax
  106e4c:	0f 95 c1             	setne  %cl
  106e4f:	88 4c 24 0e          	mov    %cl,0xe(%rsp)
  106e53:	75 e1                	jne    106e36 <_ZN38_$LT$core..option..Option$LT$T$GT$$GT$8and_then17h8795c8b1f301c2d5E+0xd6>
  106e55:	eb 00                	jmp    106e57 <_ZN38_$LT$core..option..Option$LT$T$GT$$GT$8and_then17h8795c8b1f301c2d5E+0xf7>
  106e57:	8a 44 24 0e          	mov    0xe(%rsp),%al
  106e5b:	a8 01                	test   $0x1,%al
  106e5d:	74 d5                	je     106e34 <_ZN38_$LT$core..option..Option$LT$T$GT$$GT$8and_then17h8795c8b1f301c2d5E+0xd4>
  106e5f:	eb 00                	jmp    106e61 <_ZN38_$LT$core..option..Option$LT$T$GT$$GT$8and_then17h8795c8b1f301c2d5E+0x101>
  106e61:	66 2e 0f 1f 84 00 00 	nopw   %cs:0x0(%rax,%rax,1)
  106e68:	00 00 00 
  106e6b:	0f 1f 44 00 00       	nopl   0x0(%rax,%rax,1)

0000000000106e70 <_ZN4core6option13expect_failed17h503df6cb4163e3efE>:
  106e70:	48 81 ec a8 00 00 00 	sub    $0xa8,%rsp
  106e77:	48 89 7c 24 38       	mov    %rdi,0x38(%rsp)
  106e7c:	48 89 74 24 30       	mov    %rsi,0x30(%rsp)
  106e81:	48 8d 84 24 98 00 00 	lea    0x98(%rsp),%rax
  106e88:	00 
  106e89:	48 8b 4c 24 38       	mov    0x38(%rsp),%rcx
  106e8e:	48 89 8c 24 98 00 00 	mov    %rcx,0x98(%rsp)
  106e95:	00 
  106e96:	48 8b 54 24 30       	mov    0x30(%rsp),%rdx
  106e9b:	48 89 94 24 a0 00 00 	mov    %rdx,0xa0(%rsp)
  106ea2:	00 
  106ea3:	48 8b 35 1e 96 00 00 	mov    0x961e(%rip),%rsi        # 1104c8 <_ZN38_$LT$core..option..Option$LT$T$GT$$GT$6unwrap14_MSG_FILE_LINE17hbbb924041fead689E+0x40>
  106eaa:	48 8b 15 1f 96 00 00 	mov    0x961f(%rip),%rdx        # 1104d0 <_ZN38_$LT$core..option..Option$LT$T$GT$$GT$6unwrap14_MSG_FILE_LINE17hbbb924041fead689E+0x48>
  106eb1:	48 89 44 24 50       	mov    %rax,0x50(%rsp)
  106eb6:	48 8b 44 24 50       	mov    0x50(%rsp),%rax
  106ebb:	48 89 74 24 28       	mov    %rsi,0x28(%rsp)
  106ec0:	48 89 54 24 20       	mov    %rdx,0x20(%rsp)
  106ec5:	48 89 44 24 18       	mov    %rax,0x18(%rsp)
  106eca:	48 8d 7c 24 40       	lea    0x40(%rsp),%rdi
  106ecf:	48 8d 15 7a 78 00 00 	lea    0x787a(%rip),%rdx        # 10e750 <_ZN55_$LT$$RF$$u27$a$u20$T$u20$as$u20$core..fmt..Display$GT$3fmt17hd58574be7c4db377E>
  106ed6:	48 8b 74 24 18       	mov    0x18(%rsp),%rsi
  106edb:	e8 c0 4e 00 00       	callq  10bda0 <_ZN4core3fmt10ArgumentV13new17h710935a10de9157aE>
  106ee0:	48 8b 54 24 40       	mov    0x40(%rsp),%rdx
  106ee5:	48 8b 74 24 48       	mov    0x48(%rsp),%rsi
  106eea:	48 89 54 24 10       	mov    %rdx,0x10(%rsp)
  106eef:	48 89 74 24 08       	mov    %rsi,0x8(%rsp)
  106ef4:	48 8d 7c 24 68       	lea    0x68(%rsp),%rdi
  106ef9:	b8 01 00 00 00       	mov    $0x1,%eax
  106efe:	41 89 c0             	mov    %eax,%r8d
  106f01:	48 8d 4c 24 58       	lea    0x58(%rsp),%rcx
  106f06:	48 8b 54 24 10       	mov    0x10(%rsp),%rdx
  106f0b:	48 89 54 24 58       	mov    %rdx,0x58(%rsp)
  106f10:	48 8b 74 24 08       	mov    0x8(%rsp),%rsi
  106f15:	48 89 74 24 60       	mov    %rsi,0x60(%rsp)
  106f1a:	48 8b 74 24 28       	mov    0x28(%rsp),%rsi
  106f1f:	48 8b 54 24 20       	mov    0x20(%rsp),%rdx
  106f24:	e8 97 50 00 00       	callq  10bfc0 <_ZN4core3fmt9Arguments6new_v117h2ee48eb28c0cff0aE>
  106f29:	48 8d 7c 24 68       	lea    0x68(%rsp),%rdi
  106f2e:	48 8d 35 7b 95 00 00 	lea    0x957b(%rip),%rsi        # 1104b0 <_ZN38_$LT$core..option..Option$LT$T$GT$$GT$6unwrap14_MSG_FILE_LINE17hbbb924041fead689E+0x28>
  106f35:	e8 26 e7 ff ff       	callq  105660 <_ZN4core9panicking9panic_fmt17hb567db798f4a4807E>
  106f3a:	66 0f 1f 44 00 00    	nopw   0x0(%rax,%rax,1)

0000000000106f40 <_ZN47_$LT$core..result..Result$LT$T$C$$u20$E$GT$$GT$8and_then17h4b09678357bc344aE>:
  106f40:	48 83 ec 68          	sub    $0x68,%rsp
  106f44:	40 88 f8             	mov    %dil,%al
  106f47:	88 44 24 57          	mov    %al,0x57(%rsp)
  106f4b:	8a 44 24 57          	mov    0x57(%rsp),%al
  106f4f:	88 44 24 58          	mov    %al,0x58(%rsp)
  106f53:	48 89 74 24 20       	mov    %rsi,0x20(%rsp)
  106f58:	c6 44 24 47 00       	movb   $0x0,0x47(%rsp)
  106f5d:	c6 44 24 45 00       	movb   $0x0,0x45(%rsp)
  106f62:	c6 44 24 46 00       	movb   $0x0,0x46(%rsp)
  106f67:	c6 44 24 46 01       	movb   $0x1,0x46(%rsp)
  106f6c:	c6 44 24 45 01       	movb   $0x1,0x45(%rsp)
  106f71:	8a 44 24 58          	mov    0x58(%rsp),%al
  106f75:	88 44 24 50          	mov    %al,0x50(%rsp)
  106f79:	c6 44 24 47 01       	movb   $0x1,0x47(%rsp)
  106f7e:	48 8b 4c 24 20       	mov    0x20(%rsp),%rcx
  106f83:	48 8b 11             	mov    (%rcx),%rdx
  106f86:	48 8b 71 08          	mov    0x8(%rcx),%rsi
  106f8a:	8a 44 24 50          	mov    0x50(%rsp),%al
  106f8e:	84 c0                	test   %al,%al
  106f90:	48 89 54 24 18       	mov    %rdx,0x18(%rsp)
  106f95:	48 89 74 24 10       	mov    %rsi,0x10(%rsp)
  106f9a:	88 44 24 0f          	mov    %al,0xf(%rsp)
  106f9e:	74 13                	je     106fb3 <_ZN47_$LT$core..result..Result$LT$T$C$$u20$E$GT$$GT$8and_then17h4b09678357bc344aE+0x73>
  106fa0:	eb 00                	jmp    106fa2 <_ZN47_$LT$core..result..Result$LT$T$C$$u20$E$GT$$GT$8and_then17h4b09678357bc344aE+0x62>
  106fa2:	8a 44 24 0f          	mov    0xf(%rsp),%al
  106fa6:	2c 01                	sub    $0x1,%al
  106fa8:	88 44 24 0e          	mov    %al,0xe(%rsp)
  106fac:	74 3b                	je     106fe9 <_ZN47_$LT$core..result..Result$LT$T$C$$u20$E$GT$$GT$8and_then17h4b09678357bc344aE+0xa9>
  106fae:	e9 93 00 00 00       	jmpq   107046 <_ZN47_$LT$core..result..Result$LT$T$C$$u20$E$GT$$GT$8and_then17h4b09678357bc344aE+0x106>
  106fb3:	48 8d 7c 24 30       	lea    0x30(%rsp),%rdi
  106fb8:	c6 44 24 45 00       	movb   $0x0,0x45(%rsp)
  106fbd:	c6 44 24 47 00       	movb   $0x0,0x47(%rsp)
  106fc2:	48 8b 44 24 18       	mov    0x18(%rsp),%rax
  106fc7:	48 89 44 24 30       	mov    %rax,0x30(%rsp)
  106fcc:	48 8b 4c 24 10       	mov    0x10(%rsp),%rcx
  106fd1:	48 89 4c 24 38       	mov    %rcx,0x38(%rsp)
  106fd6:	e8 45 7a 00 00       	callq  10ea20 <_ZN4core3fmt8builders10DebugTuple5field28_$u7b$$u7b$closure$u7d$$u7d$17h70fc777e921e5034E>
  106fdb:	88 44 24 2f          	mov    %al,0x2f(%rsp)
  106fdf:	8a 44 24 2f          	mov    0x2f(%rsp),%al
  106fe3:	88 44 24 40          	mov    %al,0x40(%rsp)
  106fe7:	eb 1c                	jmp    107005 <_ZN47_$LT$core..result..Result$LT$T$C$$u20$E$GT$$GT$8and_then17h4b09678357bc344aE+0xc5>
  106fe9:	c6 44 24 46 00       	movb   $0x0,0x46(%rsp)
  106fee:	c6 44 24 40 01       	movb   $0x1,0x40(%rsp)
  106ff3:	eb 10                	jmp    107005 <_ZN47_$LT$core..result..Result$LT$T$C$$u20$E$GT$$GT$8and_then17h4b09678357bc344aE+0xc5>
  106ff5:	8a 44 24 40          	mov    0x40(%rsp),%al
  106ff9:	48 83 c4 68          	add    $0x68,%rsp
  106ffd:	c3                   	retq   
  106ffe:	c6 44 24 47 00       	movb   $0x0,0x47(%rsp)
  107003:	eb 25                	jmp    10702a <_ZN47_$LT$core..result..Result$LT$T$C$$u20$E$GT$$GT$8and_then17h4b09678357bc344aE+0xea>
  107005:	f6 44 24 47 01       	testb  $0x1,0x47(%rsp)
  10700a:	75 f2                	jne    106ffe <_ZN47_$LT$core..result..Result$LT$T$C$$u20$E$GT$$GT$8and_then17h4b09678357bc344aE+0xbe>
  10700c:	eb 1c                	jmp    10702a <_ZN47_$LT$core..result..Result$LT$T$C$$u20$E$GT$$GT$8and_then17h4b09678357bc344aE+0xea>
  10700e:	f6 44 24 45 01       	testb  $0x1,0x45(%rsp)
  107013:	74 e0                	je     106ff5 <_ZN47_$LT$core..result..Result$LT$T$C$$u20$E$GT$$GT$8and_then17h4b09678357bc344aE+0xb5>
  107015:	c6 44 24 45 00       	movb   $0x0,0x45(%rsp)
  10701a:	eb d9                	jmp    106ff5 <_ZN47_$LT$core..result..Result$LT$T$C$$u20$E$GT$$GT$8and_then17h4b09678357bc344aE+0xb5>
  10701c:	f6 44 24 46 01       	testb  $0x1,0x46(%rsp)
  107021:	74 d2                	je     106ff5 <_ZN47_$LT$core..result..Result$LT$T$C$$u20$E$GT$$GT$8and_then17h4b09678357bc344aE+0xb5>
  107023:	c6 44 24 46 00       	movb   $0x0,0x46(%rsp)
  107028:	eb cb                	jmp    106ff5 <_ZN47_$LT$core..result..Result$LT$T$C$$u20$E$GT$$GT$8and_then17h4b09678357bc344aE+0xb5>
  10702a:	8a 44 24 50          	mov    0x50(%rsp),%al
  10702e:	84 c0                	test   %al,%al
  107030:	88 44 24 0d          	mov    %al,0xd(%rsp)
  107034:	74 d8                	je     10700e <_ZN47_$LT$core..result..Result$LT$T$C$$u20$E$GT$$GT$8and_then17h4b09678357bc344aE+0xce>
  107036:	eb 00                	jmp    107038 <_ZN47_$LT$core..result..Result$LT$T$C$$u20$E$GT$$GT$8and_then17h4b09678357bc344aE+0xf8>
  107038:	8a 44 24 0d          	mov    0xd(%rsp),%al
  10703c:	2c 01                	sub    $0x1,%al
  10703e:	88 44 24 0c          	mov    %al,0xc(%rsp)
  107042:	74 d8                	je     10701c <_ZN47_$LT$core..result..Result$LT$T$C$$u20$E$GT$$GT$8and_then17h4b09678357bc344aE+0xdc>
  107044:	eb 00                	jmp    107046 <_ZN47_$LT$core..result..Result$LT$T$C$$u20$E$GT$$GT$8and_then17h4b09678357bc344aE+0x106>
  107046:	66 2e 0f 1f 84 00 00 	nopw   %cs:0x0(%rax,%rax,1)
  10704d:	00 00 00 

0000000000107050 <_ZN47_$LT$core..result..Result$LT$T$C$$u20$E$GT$$GT$8and_then17h834c58a6853855acE>:
  107050:	48 83 ec 68          	sub    $0x68,%rsp
  107054:	40 88 f8             	mov    %dil,%al
  107057:	88 44 24 57          	mov    %al,0x57(%rsp)
  10705b:	8a 44 24 57          	mov    0x57(%rsp),%al
  10705f:	88 44 24 58          	mov    %al,0x58(%rsp)
  107063:	48 89 74 24 40       	mov    %rsi,0x40(%rsp)
  107068:	48 8b 74 24 40       	mov    0x40(%rsp),%rsi
  10706d:	48 89 74 24 48       	mov    %rsi,0x48(%rsp)
  107072:	c6 44 24 1f 00       	movb   $0x0,0x1f(%rsp)
  107077:	c6 44 24 1d 00       	movb   $0x0,0x1d(%rsp)
  10707c:	c6 44 24 1e 00       	movb   $0x0,0x1e(%rsp)
  107081:	c6 44 24 1e 01       	movb   $0x1,0x1e(%rsp)
  107086:	c6 44 24 1d 01       	movb   $0x1,0x1d(%rsp)
  10708b:	8a 44 24 58          	mov    0x58(%rsp),%al
  10708f:	88 44 24 38          	mov    %al,0x38(%rsp)
  107093:	c6 44 24 1f 01       	movb   $0x1,0x1f(%rsp)
  107098:	48 8b 4c 24 48       	mov    0x48(%rsp),%rcx
  10709d:	48 89 4c 24 30       	mov    %rcx,0x30(%rsp)
  1070a2:	8a 44 24 38          	mov    0x38(%rsp),%al
  1070a6:	84 c0                	test   %al,%al
  1070a8:	88 44 24 0e          	mov    %al,0xe(%rsp)
  1070ac:	74 13                	je     1070c1 <_ZN47_$LT$core..result..Result$LT$T$C$$u20$E$GT$$GT$8and_then17h834c58a6853855acE+0x71>
  1070ae:	eb 00                	jmp    1070b0 <_ZN47_$LT$core..result..Result$LT$T$C$$u20$E$GT$$GT$8and_then17h834c58a6853855acE+0x60>
  1070b0:	8a 44 24 0e          	mov    0xe(%rsp),%al
  1070b4:	2c 01                	sub    $0x1,%al
  1070b6:	88 44 24 0d          	mov    %al,0xd(%rsp)
  1070ba:	74 36                	je     1070f2 <_ZN47_$LT$core..result..Result$LT$T$C$$u20$E$GT$$GT$8and_then17h834c58a6853855acE+0xa2>
  1070bc:	e9 8e 00 00 00       	jmpq   10714f <_ZN47_$LT$core..result..Result$LT$T$C$$u20$E$GT$$GT$8and_then17h834c58a6853855acE+0xff>
  1070c1:	c6 44 24 1d 00       	movb   $0x0,0x1d(%rsp)
  1070c6:	c6 44 24 1f 00       	movb   $0x0,0x1f(%rsp)
  1070cb:	48 8b 44 24 30       	mov    0x30(%rsp),%rax
  1070d0:	48 89 44 24 28       	mov    %rax,0x28(%rsp)
  1070d5:	48 89 44 24 10       	mov    %rax,0x10(%rsp)
  1070da:	48 8b 7c 24 10       	mov    0x10(%rsp),%rdi
  1070df:	e8 ac 7d 00 00       	callq  10ee90 <_ZN4core3fmt8builders10DebugTuple6finish28_$u7b$$u7b$closure$u7d$$u7d$17h70d154af4296576fE>
  1070e4:	88 44 24 0f          	mov    %al,0xf(%rsp)
  1070e8:	8a 44 24 0f          	mov    0xf(%rsp),%al
  1070ec:	88 44 24 18          	mov    %al,0x18(%rsp)
  1070f0:	eb 1c                	jmp    10710e <_ZN47_$LT$core..result..Result$LT$T$C$$u20$E$GT$$GT$8and_then17h834c58a6853855acE+0xbe>
  1070f2:	c6 44 24 1e 00       	movb   $0x0,0x1e(%rsp)
  1070f7:	c6 44 24 18 01       	movb   $0x1,0x18(%rsp)
  1070fc:	eb 10                	jmp    10710e <_ZN47_$LT$core..result..Result$LT$T$C$$u20$E$GT$$GT$8and_then17h834c58a6853855acE+0xbe>
  1070fe:	8a 44 24 18          	mov    0x18(%rsp),%al
  107102:	48 83 c4 68          	add    $0x68,%rsp
  107106:	c3                   	retq   
  107107:	c6 44 24 1f 00       	movb   $0x0,0x1f(%rsp)
  10710c:	eb 25                	jmp    107133 <_ZN47_$LT$core..result..Result$LT$T$C$$u20$E$GT$$GT$8and_then17h834c58a6853855acE+0xe3>
  10710e:	f6 44 24 1f 01       	testb  $0x1,0x1f(%rsp)
  107113:	75 f2                	jne    107107 <_ZN47_$LT$core..result..Result$LT$T$C$$u20$E$GT$$GT$8and_then17h834c58a6853855acE+0xb7>
  107115:	eb 1c                	jmp    107133 <_ZN47_$LT$core..result..Result$LT$T$C$$u20$E$GT$$GT$8and_then17h834c58a6853855acE+0xe3>
  107117:	f6 44 24 1d 01       	testb  $0x1,0x1d(%rsp)
  10711c:	74 e0                	je     1070fe <_ZN47_$LT$core..result..Result$LT$T$C$$u20$E$GT$$GT$8and_then17h834c58a6853855acE+0xae>
  10711e:	c6 44 24 1d 00       	movb   $0x0,0x1d(%rsp)
  107123:	eb d9                	jmp    1070fe <_ZN47_$LT$core..result..Result$LT$T$C$$u20$E$GT$$GT$8and_then17h834c58a6853855acE+0xae>
  107125:	f6 44 24 1e 01       	testb  $0x1,0x1e(%rsp)
  10712a:	74 d2                	je     1070fe <_ZN47_$LT$core..result..Result$LT$T$C$$u20$E$GT$$GT$8and_then17h834c58a6853855acE+0xae>
  10712c:	c6 44 24 1e 00       	movb   $0x0,0x1e(%rsp)
  107131:	eb cb                	jmp    1070fe <_ZN47_$LT$core..result..Result$LT$T$C$$u20$E$GT$$GT$8and_then17h834c58a6853855acE+0xae>
  107133:	8a 44 24 38          	mov    0x38(%rsp),%al
  107137:	84 c0                	test   %al,%al
  107139:	88 44 24 0c          	mov    %al,0xc(%rsp)
  10713d:	74 d8                	je     107117 <_ZN47_$LT$core..result..Result$LT$T$C$$u20$E$GT$$GT$8and_then17h834c58a6853855acE+0xc7>
  10713f:	eb 00                	jmp    107141 <_ZN47_$LT$core..result..Result$LT$T$C$$u20$E$GT$$GT$8and_then17h834c58a6853855acE+0xf1>
  107141:	8a 44 24 0c          	mov    0xc(%rsp),%al
  107145:	2c 01                	sub    $0x1,%al
  107147:	88 44 24 0b          	mov    %al,0xb(%rsp)
  10714b:	74 d8                	je     107125 <_ZN47_$LT$core..result..Result$LT$T$C$$u20$E$GT$$GT$8and_then17h834c58a6853855acE+0xd5>
  10714d:	eb 00                	jmp    10714f <_ZN47_$LT$core..result..Result$LT$T$C$$u20$E$GT$$GT$8and_then17h834c58a6853855acE+0xff>
  10714f:	90                   	nop

0000000000107150 <_ZN53_$LT$$u5b$T$u5d$$u20$as$u20$core..slice..SliceExt$GT$4iter17h1744d97bd59928b9E>:
  107150:	48 81 ec 98 00 00 00 	sub    $0x98,%rsp
  107157:	48 89 f8             	mov    %rdi,%rax
  10715a:	48 89 44 24 70       	mov    %rax,0x70(%rsp)
  10715f:	48 89 54 24 68       	mov    %rdx,0x68(%rsp)
  107164:	48 89 74 24 60       	mov    %rsi,0x60(%rsp)
  107169:	48 89 7c 24 58       	mov    %rdi,0x58(%rsp)
  10716e:	e8 3d db ff ff       	callq  104cb0 <_ZN4core3mem7size_of17hb50227bb32dde6e0E>
  107173:	48 89 44 24 50       	mov    %rax,0x50(%rsp)
  107178:	48 8b 44 24 50       	mov    0x50(%rsp),%rax
  10717d:	48 83 f8 00          	cmp    $0x0,%rax
  107181:	75 11                	jne    107194 <_ZN53_$LT$$u5b$T$u5d$$u20$as$u20$core..slice..SliceExt$GT$4iter17h1744d97bd59928b9E+0x44>
  107183:	b8 01 00 00 00       	mov    $0x1,%eax
  107188:	89 c1                	mov    %eax,%ecx
  10718a:	48 89 8c 24 90 00 00 	mov    %rcx,0x90(%rsp)
  107191:	00 
  107192:	eb 2f                	jmp    1071c3 <_ZN53_$LT$$u5b$T$u5d$$u20$as$u20$core..slice..SliceExt$GT$4iter17h1744d97bd59928b9E+0x73>
  107194:	48 8b 7c 24 60       	mov    0x60(%rsp),%rdi
  107199:	48 8b 74 24 68       	mov    0x68(%rsp),%rsi
  10719e:	e8 2d 05 00 00       	callq  1076d0 <_ZN53_$LT$$u5b$T$u5d$$u20$as$u20$core..slice..SliceExt$GT$6as_ptr17h0313516b30088b4dE>
  1071a3:	48 89 44 24 48       	mov    %rax,0x48(%rsp)
  1071a8:	48 8b 7c 24 48       	mov    0x48(%rsp),%rdi
  1071ad:	e8 1e dc ff ff       	callq  104dd0 <_ZN4core3ptr33_$LT$impl$u20$$BP$const$u20$T$GT$7is_null17h21634c72833c3b8dE>
  1071b2:	88 44 24 47          	mov    %al,0x47(%rsp)
  1071b6:	48 8b 44 24 48       	mov    0x48(%rsp),%rax
  1071bb:	48 89 84 24 90 00 00 	mov    %rax,0x90(%rsp)
  1071c2:	00 
  1071c3:	48 8b 84 24 90 00 00 	mov    0x90(%rsp),%rax
  1071ca:	00 
  1071cb:	48 8b 8c 24 90 00 00 	mov    0x90(%rsp),%rcx
  1071d2:	00 
  1071d3:	48 89 44 24 38       	mov    %rax,0x38(%rsp)
  1071d8:	48 89 4c 24 30       	mov    %rcx,0x30(%rsp)
  1071dd:	e8 ce da ff ff       	callq  104cb0 <_ZN4core3mem7size_of17hb50227bb32dde6e0E>
  1071e2:	48 89 44 24 28       	mov    %rax,0x28(%rsp)
  1071e7:	48 8b 44 24 28       	mov    0x28(%rsp),%rax
  1071ec:	48 83 f8 00          	cmp    $0x0,%rax
  1071f0:	75 20                	jne    107212 <_ZN53_$LT$$u5b$T$u5d$$u20$as$u20$core..slice..SliceExt$GT$4iter17h1744d97bd59928b9E+0xc2>
  1071f2:	48 8b 44 24 30       	mov    0x30(%rsp),%rax
  1071f7:	48 8b 7c 24 60       	mov    0x60(%rsp),%rdi
  1071fc:	48 8b 74 24 68       	mov    0x68(%rsp),%rsi
  107201:	48 89 44 24 20       	mov    %rax,0x20(%rsp)
  107206:	e8 45 05 00 00       	callq  107750 <_ZN53_$LT$$u5b$T$u5d$$u20$as$u20$core..slice..SliceExt$GT$3len17h2187d955fb313927E>
  10720b:	48 89 44 24 18       	mov    %rax,0x18(%rsp)
  107210:	eb 16                	jmp    107228 <_ZN53_$LT$$u5b$T$u5d$$u20$as$u20$core..slice..SliceExt$GT$4iter17h1744d97bd59928b9E+0xd8>
  107212:	48 8b 7c 24 60       	mov    0x60(%rsp),%rdi
  107217:	48 8b 74 24 68       	mov    0x68(%rsp),%rsi
  10721c:	e8 2f 05 00 00       	callq  107750 <_ZN53_$LT$$u5b$T$u5d$$u20$as$u20$core..slice..SliceExt$GT$3len17h2187d955fb313927E>
  107221:	48 89 44 24 10       	mov    %rax,0x10(%rsp)
  107226:	eb 2b                	jmp    107253 <_ZN53_$LT$$u5b$T$u5d$$u20$as$u20$core..slice..SliceExt$GT$4iter17h1744d97bd59928b9E+0x103>
  107228:	48 8b 44 24 20       	mov    0x20(%rsp),%rax
  10722d:	48 8b 4c 24 18       	mov    0x18(%rsp),%rcx
  107232:	48 01 c8             	add    %rcx,%rax
  107235:	48 89 44 24 78       	mov    %rax,0x78(%rsp)
  10723a:	48 8b 44 24 78       	mov    0x78(%rsp),%rax
  10723f:	48 89 44 24 08       	mov    %rax,0x8(%rsp)
  107244:	48 8b 44 24 08       	mov    0x8(%rsp),%rax
  107249:	48 89 84 24 88 00 00 	mov    %rax,0x88(%rsp)
  107250:	00 
  107251:	eb 17                	jmp    10726a <_ZN53_$LT$$u5b$T$u5d$$u20$as$u20$core..slice..SliceExt$GT$4iter17h1744d97bd59928b9E+0x11a>
  107253:	48 8b 7c 24 30       	mov    0x30(%rsp),%rdi
  107258:	48 8b 74 24 10       	mov    0x10(%rsp),%rsi
  10725d:	e8 6e dc ff ff       	callq  104ed0 <_ZN4core3ptr33_$LT$impl$u20$$BP$const$u20$T$GT$6offset17ha082c373f8ad8d3bE>
  107262:	48 89 84 24 88 00 00 	mov    %rax,0x88(%rsp)
  107269:	00 
  10726a:	48 8b 44 24 58       	mov    0x58(%rsp),%rax
  10726f:	48 8b 4c 24 38       	mov    0x38(%rsp),%rcx
  107274:	48 89 08             	mov    %rcx,(%rax)
  107277:	48 8b 94 24 88 00 00 	mov    0x88(%rsp),%rdx
  10727e:	00 
  10727f:	48 89 50 08          	mov    %rdx,0x8(%rax)
  107283:	48 8b 44 24 70       	mov    0x70(%rsp),%rax
  107288:	48 81 c4 98 00 00 00 	add    $0x98,%rsp
  10728f:	c3                   	retq   

0000000000107290 <_ZN53_$LT$$u5b$T$u5d$$u20$as$u20$core..slice..SliceExt$GT$4iter17h7b0dda1c92ba97edE>:
  107290:	48 81 ec 88 00 00 00 	sub    $0x88,%rsp
  107297:	48 89 f8             	mov    %rdi,%rax
  10729a:	48 89 44 24 60       	mov    %rax,0x60(%rsp)
  10729f:	48 89 54 24 58       	mov    %rdx,0x58(%rsp)
  1072a4:	48 89 74 24 50       	mov    %rsi,0x50(%rsp)
  1072a9:	48 89 7c 24 48       	mov    %rdi,0x48(%rsp)
  1072ae:	e8 1d da ff ff       	callq  104cd0 <_ZN4core3mem7size_of17hb7c38d54091f1b39E>
  1072b3:	48 89 44 24 40       	mov    %rax,0x40(%rsp)
  1072b8:	48 8b 44 24 40       	mov    0x40(%rsp),%rax
  1072bd:	48 83 f8 00          	cmp    $0x0,%rax
  1072c1:	75 11                	jne    1072d4 <_ZN53_$LT$$u5b$T$u5d$$u20$as$u20$core..slice..SliceExt$GT$4iter17h7b0dda1c92ba97edE+0x44>
  1072c3:	b8 01 00 00 00       	mov    $0x1,%eax
  1072c8:	89 c1                	mov    %eax,%ecx
  1072ca:	48 89 8c 24 80 00 00 	mov    %rcx,0x80(%rsp)
  1072d1:	00 
  1072d2:	eb 2f                	jmp    107303 <_ZN53_$LT$$u5b$T$u5d$$u20$as$u20$core..slice..SliceExt$GT$4iter17h7b0dda1c92ba97edE+0x73>
  1072d4:	48 8b 7c 24 50       	mov    0x50(%rsp),%rdi
  1072d9:	48 8b 74 24 58       	mov    0x58(%rsp),%rsi
  1072de:	e8 2d 04 00 00       	callq  107710 <_ZN53_$LT$$u5b$T$u5d$$u20$as$u20$core..slice..SliceExt$GT$6as_ptr17h7ebcf49c904fbf2fE>
  1072e3:	48 89 44 24 38       	mov    %rax,0x38(%rsp)
  1072e8:	48 8b 7c 24 38       	mov    0x38(%rsp),%rdi
  1072ed:	e8 0e db ff ff       	callq  104e00 <_ZN4core3ptr33_$LT$impl$u20$$BP$const$u20$T$GT$7is_null17h99216fd405cc08a2E>
  1072f2:	88 44 24 37          	mov    %al,0x37(%rsp)
  1072f6:	48 8b 44 24 38       	mov    0x38(%rsp),%rax
  1072fb:	48 89 84 24 80 00 00 	mov    %rax,0x80(%rsp)
  107302:	00 
  107303:	48 8b 84 24 80 00 00 	mov    0x80(%rsp),%rax
  10730a:	00 
  10730b:	48 8b 8c 24 80 00 00 	mov    0x80(%rsp),%rcx
  107312:	00 
  107313:	48 89 44 24 28       	mov    %rax,0x28(%rsp)
  107318:	48 89 4c 24 20       	mov    %rcx,0x20(%rsp)
  10731d:	e8 ae d9 ff ff       	callq  104cd0 <_ZN4core3mem7size_of17hb7c38d54091f1b39E>
  107322:	48 89 44 24 18       	mov    %rax,0x18(%rsp)
  107327:	48 8b 44 24 18       	mov    0x18(%rsp),%rax
  10732c:	48 83 f8 00          	cmp    $0x0,%rax
  107330:	75 16                	jne    107348 <_ZN53_$LT$$u5b$T$u5d$$u20$as$u20$core..slice..SliceExt$GT$4iter17h7b0dda1c92ba97edE+0xb8>
  107332:	48 8b 7c 24 50       	mov    0x50(%rsp),%rdi
  107337:	48 8b 74 24 58       	mov    0x58(%rsp),%rsi
  10733c:	e8 cf 04 00 00       	callq  107810 <_ZN53_$LT$$u5b$T$u5d$$u20$as$u20$core..slice..SliceExt$GT$3len17he17f44d354df8341E>
  107341:	48 89 44 24 10       	mov    %rax,0x10(%rsp)
  107346:	eb 16                	jmp    10735e <_ZN53_$LT$$u5b$T$u5d$$u20$as$u20$core..slice..SliceExt$GT$4iter17h7b0dda1c92ba97edE+0xce>
  107348:	48 8b 7c 24 50       	mov    0x50(%rsp),%rdi
  10734d:	48 8b 74 24 58       	mov    0x58(%rsp),%rsi
  107352:	e8 b9 04 00 00       	callq  107810 <_ZN53_$LT$$u5b$T$u5d$$u20$as$u20$core..slice..SliceExt$GT$3len17he17f44d354df8341E>
  107357:	48 89 44 24 08       	mov    %rax,0x8(%rsp)
  10735c:	eb 26                	jmp    107384 <_ZN53_$LT$$u5b$T$u5d$$u20$as$u20$core..slice..SliceExt$GT$4iter17h7b0dda1c92ba97edE+0xf4>
  10735e:	48 8b 44 24 20       	mov    0x20(%rsp),%rax
  107363:	48 8b 4c 24 10       	mov    0x10(%rsp),%rcx
  107368:	48 01 c8             	add    %rcx,%rax
  10736b:	48 89 44 24 68       	mov    %rax,0x68(%rsp)
  107370:	48 8b 44 24 68       	mov    0x68(%rsp),%rax
  107375:	48 89 04 24          	mov    %rax,(%rsp)
  107379:	48 8b 04 24          	mov    (%rsp),%rax
  10737d:	48 89 44 24 78       	mov    %rax,0x78(%rsp)
  107382:	eb 14                	jmp    107398 <_ZN53_$LT$$u5b$T$u5d$$u20$as$u20$core..slice..SliceExt$GT$4iter17h7b0dda1c92ba97edE+0x108>
  107384:	48 8b 7c 24 20       	mov    0x20(%rsp),%rdi
  107389:	48 8b 74 24 08       	mov    0x8(%rsp),%rsi
  10738e:	e8 fd da ff ff       	callq  104e90 <_ZN4core3ptr33_$LT$impl$u20$$BP$const$u20$T$GT$6offset17h0d62b7cbced53ff4E>
  107393:	48 89 44 24 78       	mov    %rax,0x78(%rsp)
  107398:	48 8b 44 24 48       	mov    0x48(%rsp),%rax
  10739d:	48 8b 4c 24 28       	mov    0x28(%rsp),%rcx
  1073a2:	48 89 08             	mov    %rcx,(%rax)
  1073a5:	48 8b 54 24 78       	mov    0x78(%rsp),%rdx
  1073aa:	48 89 50 08          	mov    %rdx,0x8(%rax)
  1073ae:	48 8b 44 24 60       	mov    0x60(%rsp),%rax
  1073b3:	48 81 c4 88 00 00 00 	add    $0x88,%rsp
  1073ba:	c3                   	retq   
  1073bb:	0f 1f 44 00 00       	nopl   0x0(%rax,%rax,1)

00000000001073c0 <_ZN53_$LT$$u5b$T$u5d$$u20$as$u20$core..slice..SliceExt$GT$4iter17h8c73e78d716c4ce3E>:
  1073c0:	48 81 ec 98 00 00 00 	sub    $0x98,%rsp
  1073c7:	48 89 f8             	mov    %rdi,%rax
  1073ca:	48 89 44 24 70       	mov    %rax,0x70(%rsp)
  1073cf:	48 89 54 24 68       	mov    %rdx,0x68(%rsp)
  1073d4:	48 89 74 24 60       	mov    %rsi,0x60(%rsp)
  1073d9:	48 89 7c 24 58       	mov    %rdi,0x58(%rsp)
  1073de:	e8 ad d8 ff ff       	callq  104c90 <_ZN4core3mem7size_of17h23710f381bc230bdE>
  1073e3:	48 89 44 24 50       	mov    %rax,0x50(%rsp)
  1073e8:	48 8b 44 24 50       	mov    0x50(%rsp),%rax
  1073ed:	48 83 f8 00          	cmp    $0x0,%rax
  1073f1:	75 11                	jne    107404 <_ZN53_$LT$$u5b$T$u5d$$u20$as$u20$core..slice..SliceExt$GT$4iter17h8c73e78d716c4ce3E+0x44>
  1073f3:	b8 01 00 00 00       	mov    $0x1,%eax
  1073f8:	89 c1                	mov    %eax,%ecx
  1073fa:	48 89 8c 24 90 00 00 	mov    %rcx,0x90(%rsp)
  107401:	00 
  107402:	eb 2f                	jmp    107433 <_ZN53_$LT$$u5b$T$u5d$$u20$as$u20$core..slice..SliceExt$GT$4iter17h8c73e78d716c4ce3E+0x73>
  107404:	48 8b 7c 24 60       	mov    0x60(%rsp),%rdi
  107409:	48 8b 74 24 68       	mov    0x68(%rsp),%rsi
  10740e:	e8 dd 02 00 00       	callq  1076f0 <_ZN53_$LT$$u5b$T$u5d$$u20$as$u20$core..slice..SliceExt$GT$6as_ptr17h1f6cf9736bce1cfbE>
  107413:	48 89 44 24 48       	mov    %rax,0x48(%rsp)
  107418:	48 8b 7c 24 48       	mov    0x48(%rsp),%rdi
  10741d:	e8 3e da ff ff       	callq  104e60 <_ZN4core3ptr33_$LT$impl$u20$$BP$const$u20$T$GT$7is_null17hfa0cebb9f0a20ce0E>
  107422:	88 44 24 47          	mov    %al,0x47(%rsp)
  107426:	48 8b 44 24 48       	mov    0x48(%rsp),%rax
  10742b:	48 89 84 24 90 00 00 	mov    %rax,0x90(%rsp)
  107432:	00 
  107433:	48 8b 84 24 90 00 00 	mov    0x90(%rsp),%rax
  10743a:	00 
  10743b:	48 8b 8c 24 90 00 00 	mov    0x90(%rsp),%rcx
  107442:	00 
  107443:	48 89 44 24 38       	mov    %rax,0x38(%rsp)
  107448:	48 89 4c 24 30       	mov    %rcx,0x30(%rsp)
  10744d:	e8 3e d8 ff ff       	callq  104c90 <_ZN4core3mem7size_of17h23710f381bc230bdE>
  107452:	48 89 44 24 28       	mov    %rax,0x28(%rsp)
  107457:	48 8b 44 24 28       	mov    0x28(%rsp),%rax
  10745c:	48 83 f8 00          	cmp    $0x0,%rax
  107460:	75 20                	jne    107482 <_ZN53_$LT$$u5b$T$u5d$$u20$as$u20$core..slice..SliceExt$GT$4iter17h8c73e78d716c4ce3E+0xc2>
  107462:	48 8b 44 24 30       	mov    0x30(%rsp),%rax
  107467:	48 8b 7c 24 60       	mov    0x60(%rsp),%rdi
  10746c:	48 8b 74 24 68       	mov    0x68(%rsp),%rsi
  107471:	48 89 44 24 20       	mov    %rax,0x20(%rsp)
  107476:	e8 15 03 00 00       	callq  107790 <_ZN53_$LT$$u5b$T$u5d$$u20$as$u20$core..slice..SliceExt$GT$3len17h9775f548e8ea6a6bE>
  10747b:	48 89 44 24 18       	mov    %rax,0x18(%rsp)
  107480:	eb 16                	jmp    107498 <_ZN53_$LT$$u5b$T$u5d$$u20$as$u20$core..slice..SliceExt$GT$4iter17h8c73e78d716c4ce3E+0xd8>
  107482:	48 8b 7c 24 60       	mov    0x60(%rsp),%rdi
  107487:	48 8b 74 24 68       	mov    0x68(%rsp),%rsi
  10748c:	e8 ff 02 00 00       	callq  107790 <_ZN53_$LT$$u5b$T$u5d$$u20$as$u20$core..slice..SliceExt$GT$3len17h9775f548e8ea6a6bE>
  107491:	48 89 44 24 10       	mov    %rax,0x10(%rsp)
  107496:	eb 2b                	jmp    1074c3 <_ZN53_$LT$$u5b$T$u5d$$u20$as$u20$core..slice..SliceExt$GT$4iter17h8c73e78d716c4ce3E+0x103>
  107498:	48 8b 44 24 20       	mov    0x20(%rsp),%rax
  10749d:	48 8b 4c 24 18       	mov    0x18(%rsp),%rcx
  1074a2:	48 01 c8             	add    %rcx,%rax
  1074a5:	48 89 44 24 78       	mov    %rax,0x78(%rsp)
  1074aa:	48 8b 44 24 78       	mov    0x78(%rsp),%rax
  1074af:	48 89 44 24 08       	mov    %rax,0x8(%rsp)
  1074b4:	48 8b 44 24 08       	mov    0x8(%rsp),%rax
  1074b9:	48 89 84 24 88 00 00 	mov    %rax,0x88(%rsp)
  1074c0:	00 
  1074c1:	eb 17                	jmp    1074da <_ZN53_$LT$$u5b$T$u5d$$u20$as$u20$core..slice..SliceExt$GT$4iter17h8c73e78d716c4ce3E+0x11a>
  1074c3:	48 8b 7c 24 30       	mov    0x30(%rsp),%rdi
  1074c8:	48 8b 74 24 10       	mov    0x10(%rsp),%rsi
  1074cd:	e8 3e da ff ff       	callq  104f10 <_ZN4core3ptr33_$LT$impl$u20$$BP$const$u20$T$GT$6offset17hb2ae816dc4960c6cE>
  1074d2:	48 89 84 24 88 00 00 	mov    %rax,0x88(%rsp)
  1074d9:	00 
  1074da:	48 8b 44 24 58       	mov    0x58(%rsp),%rax
  1074df:	48 8b 4c 24 38       	mov    0x38(%rsp),%rcx
  1074e4:	48 89 08             	mov    %rcx,(%rax)
  1074e7:	48 8b 94 24 88 00 00 	mov    0x88(%rsp),%rdx
  1074ee:	00 
  1074ef:	48 89 50 08          	mov    %rdx,0x8(%rax)
  1074f3:	48 8b 44 24 70       	mov    0x70(%rsp),%rax
  1074f8:	48 81 c4 98 00 00 00 	add    $0x98,%rsp
  1074ff:	c3                   	retq   

0000000000107500 <_ZN53_$LT$$u5b$T$u5d$$u20$as$u20$core..slice..SliceExt$GT$4iter17hf2e1c1245f33a86bE>:
  107500:	48 81 ec 98 00 00 00 	sub    $0x98,%rsp
  107507:	48 89 f8             	mov    %rdi,%rax
  10750a:	48 89 44 24 70       	mov    %rax,0x70(%rsp)
  10750f:	48 89 54 24 68       	mov    %rdx,0x68(%rsp)
  107514:	48 89 74 24 60       	mov    %rsi,0x60(%rsp)
  107519:	48 89 7c 24 58       	mov    %rdi,0x58(%rsp)
  10751e:	e8 4d d7 ff ff       	callq  104c70 <_ZN4core3mem7size_of17h1938af5aae08a1a4E>
  107523:	48 89 44 24 50       	mov    %rax,0x50(%rsp)
  107528:	48 8b 44 24 50       	mov    0x50(%rsp),%rax
  10752d:	48 83 f8 00          	cmp    $0x0,%rax
  107531:	75 11                	jne    107544 <_ZN53_$LT$$u5b$T$u5d$$u20$as$u20$core..slice..SliceExt$GT$4iter17hf2e1c1245f33a86bE+0x44>
  107533:	b8 01 00 00 00       	mov    $0x1,%eax
  107538:	89 c1                	mov    %eax,%ecx
  10753a:	48 89 8c 24 90 00 00 	mov    %rcx,0x90(%rsp)
  107541:	00 
  107542:	eb 2f                	jmp    107573 <_ZN53_$LT$$u5b$T$u5d$$u20$as$u20$core..slice..SliceExt$GT$4iter17hf2e1c1245f33a86bE+0x73>
  107544:	48 8b 7c 24 60       	mov    0x60(%rsp),%rdi
  107549:	48 8b 74 24 68       	mov    0x68(%rsp),%rsi
  10754e:	e8 dd 01 00 00       	callq  107730 <_ZN53_$LT$$u5b$T$u5d$$u20$as$u20$core..slice..SliceExt$GT$6as_ptr17hab35a469495b795fE>
  107553:	48 89 44 24 48       	mov    %rax,0x48(%rsp)
  107558:	48 8b 7c 24 48       	mov    0x48(%rsp),%rdi
  10755d:	e8 ce d8 ff ff       	callq  104e30 <_ZN4core3ptr33_$LT$impl$u20$$BP$const$u20$T$GT$7is_null17hd68c1a3d68c0869bE>
  107562:	88 44 24 47          	mov    %al,0x47(%rsp)
  107566:	48 8b 44 24 48       	mov    0x48(%rsp),%rax
  10756b:	48 89 84 24 90 00 00 	mov    %rax,0x90(%rsp)
  107572:	00 
  107573:	48 8b 84 24 90 00 00 	mov    0x90(%rsp),%rax
  10757a:	00 
  10757b:	48 8b 8c 24 90 00 00 	mov    0x90(%rsp),%rcx
  107582:	00 
  107583:	48 89 44 24 38       	mov    %rax,0x38(%rsp)
  107588:	48 89 4c 24 30       	mov    %rcx,0x30(%rsp)
  10758d:	e8 de d6 ff ff       	callq  104c70 <_ZN4core3mem7size_of17h1938af5aae08a1a4E>
  107592:	48 89 44 24 28       	mov    %rax,0x28(%rsp)
  107597:	48 8b 44 24 28       	mov    0x28(%rsp),%rax
  10759c:	48 83 f8 00          	cmp    $0x0,%rax
  1075a0:	75 20                	jne    1075c2 <_ZN53_$LT$$u5b$T$u5d$$u20$as$u20$core..slice..SliceExt$GT$4iter17hf2e1c1245f33a86bE+0xc2>
  1075a2:	48 8b 44 24 30       	mov    0x30(%rsp),%rax
  1075a7:	48 8b 7c 24 60       	mov    0x60(%rsp),%rdi
  1075ac:	48 8b 74 24 68       	mov    0x68(%rsp),%rsi
  1075b1:	48 89 44 24 20       	mov    %rax,0x20(%rsp)
  1075b6:	e8 15 02 00 00       	callq  1077d0 <_ZN53_$LT$$u5b$T$u5d$$u20$as$u20$core..slice..SliceExt$GT$3len17hd51c75af828b3a29E>
  1075bb:	48 89 44 24 18       	mov    %rax,0x18(%rsp)
  1075c0:	eb 16                	jmp    1075d8 <_ZN53_$LT$$u5b$T$u5d$$u20$as$u20$core..slice..SliceExt$GT$4iter17hf2e1c1245f33a86bE+0xd8>
  1075c2:	48 8b 7c 24 60       	mov    0x60(%rsp),%rdi
  1075c7:	48 8b 74 24 68       	mov    0x68(%rsp),%rsi
  1075cc:	e8 ff 01 00 00       	callq  1077d0 <_ZN53_$LT$$u5b$T$u5d$$u20$as$u20$core..slice..SliceExt$GT$3len17hd51c75af828b3a29E>
  1075d1:	48 89 44 24 10       	mov    %rax,0x10(%rsp)
  1075d6:	eb 2b                	jmp    107603 <_ZN53_$LT$$u5b$T$u5d$$u20$as$u20$core..slice..SliceExt$GT$4iter17hf2e1c1245f33a86bE+0x103>
  1075d8:	48 8b 44 24 20       	mov    0x20(%rsp),%rax
  1075dd:	48 8b 4c 24 18       	mov    0x18(%rsp),%rcx
  1075e2:	48 01 c8             	add    %rcx,%rax
  1075e5:	48 89 44 24 78       	mov    %rax,0x78(%rsp)
  1075ea:	48 8b 44 24 78       	mov    0x78(%rsp),%rax
  1075ef:	48 89 44 24 08       	mov    %rax,0x8(%rsp)
  1075f4:	48 8b 44 24 08       	mov    0x8(%rsp),%rax
  1075f9:	48 89 84 24 88 00 00 	mov    %rax,0x88(%rsp)
  107600:	00 
  107601:	eb 17                	jmp    10761a <_ZN53_$LT$$u5b$T$u5d$$u20$as$u20$core..slice..SliceExt$GT$4iter17hf2e1c1245f33a86bE+0x11a>
  107603:	48 8b 7c 24 30       	mov    0x30(%rsp),%rdi
  107608:	48 8b 74 24 10       	mov    0x10(%rsp),%rsi
  10760d:	e8 3e d9 ff ff       	callq  104f50 <_ZN4core3ptr33_$LT$impl$u20$$BP$const$u20$T$GT$6offset17heb747abc29f3bd4aE>
  107612:	48 89 84 24 88 00 00 	mov    %rax,0x88(%rsp)
  107619:	00 
  10761a:	48 8b 44 24 58       	mov    0x58(%rsp),%rax
  10761f:	48 8b 4c 24 38       	mov    0x38(%rsp),%rcx
  107624:	48 89 08             	mov    %rcx,(%rax)
  107627:	48 8b 94 24 88 00 00 	mov    0x88(%rsp),%rdx
  10762e:	00 
  10762f:	48 89 50 08          	mov    %rdx,0x8(%rax)
  107633:	48 8b 44 24 70       	mov    0x70(%rsp),%rax
  107638:	48 81 c4 98 00 00 00 	add    $0x98,%rsp
  10763f:	c3                   	retq   

0000000000107640 <_ZN53_$LT$$u5b$T$u5d$$u20$as$u20$core..slice..SliceExt$GT$3get17h197366824b53f6cdE>:
  107640:	48 83 ec 38          	sub    $0x38,%rsp
  107644:	48 89 74 24 20       	mov    %rsi,0x20(%rsp)
  107649:	48 89 7c 24 18       	mov    %rdi,0x18(%rsp)
  10764e:	48 89 54 24 10       	mov    %rdx,0x10(%rsp)
  107653:	48 8b 7c 24 18       	mov    0x18(%rsp),%rdi
  107658:	48 8b 74 24 20       	mov    0x20(%rsp),%rsi
  10765d:	e8 ae 01 00 00       	callq  107810 <_ZN53_$LT$$u5b$T$u5d$$u20$as$u20$core..slice..SliceExt$GT$3len17he17f44d354df8341E>
  107662:	48 89 44 24 08       	mov    %rax,0x8(%rsp)
  107667:	48 8b 44 24 10       	mov    0x10(%rsp),%rax
  10766c:	48 8b 4c 24 08       	mov    0x8(%rsp),%rcx
  107671:	48 39 c8             	cmp    %rcx,%rax
  107674:	73 17                	jae    10768d <_ZN53_$LT$$u5b$T$u5d$$u20$as$u20$core..slice..SliceExt$GT$3get17h197366824b53f6cdE+0x4d>
  107676:	48 8b 44 24 10       	mov    0x10(%rsp),%rax
  10767b:	48 8b 4c 24 20       	mov    0x20(%rsp),%rcx
  107680:	48 39 c8             	cmp    %rcx,%rax
  107683:	0f 92 c2             	setb   %dl
  107686:	f6 c2 01             	test   $0x1,%dl
  107689:	75 0d                	jne    107698 <_ZN53_$LT$$u5b$T$u5d$$u20$as$u20$core..slice..SliceExt$GT$3get17h197366824b53f6cdE+0x58>
  10768b:	eb 27                	jmp    1076b4 <_ZN53_$LT$$u5b$T$u5d$$u20$as$u20$core..slice..SliceExt$GT$3get17h197366824b53f6cdE+0x74>
  10768d:	48 c7 44 24 28 00 00 	movq   $0x0,0x28(%rsp)
  107694:	00 00 
  107696:	eb 12                	jmp    1076aa <_ZN53_$LT$$u5b$T$u5d$$u20$as$u20$core..slice..SliceExt$GT$3get17h197366824b53f6cdE+0x6a>
  107698:	48 8b 44 24 18       	mov    0x18(%rsp),%rax
  10769d:	48 8b 4c 24 10       	mov    0x10(%rsp),%rcx
  1076a2:	48 01 c8             	add    %rcx,%rax
  1076a5:	48 89 44 24 28       	mov    %rax,0x28(%rsp)
  1076aa:	48 8b 44 24 28       	mov    0x28(%rsp),%rax
  1076af:	48 83 c4 38          	add    $0x38,%rsp
  1076b3:	c3                   	retq   
  1076b4:	48 8d 3d 25 91 00 00 	lea    0x9125(%rip),%rdi        # 1107e0 <panic_bounds_check_loc14490>
  1076bb:	48 8b 74 24 10       	mov    0x10(%rsp),%rsi
  1076c0:	48 8b 54 24 20       	mov    0x20(%rsp),%rdx
  1076c5:	e8 56 de ff ff       	callq  105520 <_ZN4core9panicking18panic_bounds_check17ha826e5548fbc34ddE>
  1076ca:	66 0f 1f 44 00 00    	nopw   0x0(%rax,%rax,1)

00000000001076d0 <_ZN53_$LT$$u5b$T$u5d$$u20$as$u20$core..slice..SliceExt$GT$6as_ptr17h0313516b30088b4dE>:
  1076d0:	48 83 ec 18          	sub    $0x18,%rsp
  1076d4:	48 89 7c 24 08       	mov    %rdi,0x8(%rsp)
  1076d9:	48 89 34 24          	mov    %rsi,(%rsp)
  1076dd:	eb 00                	jmp    1076df <_ZN53_$LT$$u5b$T$u5d$$u20$as$u20$core..slice..SliceExt$GT$6as_ptr17h0313516b30088b4dE+0xf>
  1076df:	48 8b 44 24 08       	mov    0x8(%rsp),%rax
  1076e4:	48 83 c4 18          	add    $0x18,%rsp
  1076e8:	c3                   	retq   
  1076e9:	0f 1f 80 00 00 00 00 	nopl   0x0(%rax)

00000000001076f0 <_ZN53_$LT$$u5b$T$u5d$$u20$as$u20$core..slice..SliceExt$GT$6as_ptr17h1f6cf9736bce1cfbE>:
  1076f0:	48 83 ec 18          	sub    $0x18,%rsp
  1076f4:	48 89 7c 24 08       	mov    %rdi,0x8(%rsp)
  1076f9:	48 89 34 24          	mov    %rsi,(%rsp)
  1076fd:	eb 00                	jmp    1076ff <_ZN53_$LT$$u5b$T$u5d$$u20$as$u20$core..slice..SliceExt$GT$6as_ptr17h1f6cf9736bce1cfbE+0xf>
  1076ff:	48 8b 44 24 08       	mov    0x8(%rsp),%rax
  107704:	48 83 c4 18          	add    $0x18,%rsp
  107708:	c3                   	retq   
  107709:	0f 1f 80 00 00 00 00 	nopl   0x0(%rax)

0000000000107710 <_ZN53_$LT$$u5b$T$u5d$$u20$as$u20$core..slice..SliceExt$GT$6as_ptr17h7ebcf49c904fbf2fE>:
  107710:	48 83 ec 18          	sub    $0x18,%rsp
  107714:	48 89 7c 24 08       	mov    %rdi,0x8(%rsp)
  107719:	48 89 34 24          	mov    %rsi,(%rsp)
  10771d:	eb 00                	jmp    10771f <_ZN53_$LT$$u5b$T$u5d$$u20$as$u20$core..slice..SliceExt$GT$6as_ptr17h7ebcf49c904fbf2fE+0xf>
  10771f:	48 8b 44 24 08       	mov    0x8(%rsp),%rax
  107724:	48 83 c4 18          	add    $0x18,%rsp
  107728:	c3                   	retq   
  107729:	0f 1f 80 00 00 00 00 	nopl   0x0(%rax)

0000000000107730 <_ZN53_$LT$$u5b$T$u5d$$u20$as$u20$core..slice..SliceExt$GT$6as_ptr17hab35a469495b795fE>:
  107730:	48 83 ec 18          	sub    $0x18,%rsp
  107734:	48 89 7c 24 08       	mov    %rdi,0x8(%rsp)
  107739:	48 89 34 24          	mov    %rsi,(%rsp)
  10773d:	eb 00                	jmp    10773f <_ZN53_$LT$$u5b$T$u5d$$u20$as$u20$core..slice..SliceExt$GT$6as_ptr17hab35a469495b795fE+0xf>
  10773f:	48 8b 44 24 08       	mov    0x8(%rsp),%rax
  107744:	48 83 c4 18          	add    $0x18,%rsp
  107748:	c3                   	retq   
  107749:	0f 1f 80 00 00 00 00 	nopl   0x0(%rax)

0000000000107750 <_ZN53_$LT$$u5b$T$u5d$$u20$as$u20$core..slice..SliceExt$GT$3len17h2187d955fb313927E>:
  107750:	48 83 ec 30          	sub    $0x30,%rsp
  107754:	48 89 7c 24 10       	mov    %rdi,0x10(%rsp)
  107759:	48 89 74 24 08       	mov    %rsi,0x8(%rsp)
  10775e:	48 8b 44 24 10       	mov    0x10(%rsp),%rax
  107763:	48 89 44 24 18       	mov    %rax,0x18(%rsp)
  107768:	48 8b 4c 24 08       	mov    0x8(%rsp),%rcx
  10776d:	48 89 4c 24 20       	mov    %rcx,0x20(%rsp)
  107772:	48 8b 44 24 20       	mov    0x20(%rsp),%rax
  107777:	48 89 04 24          	mov    %rax,(%rsp)
  10777b:	48 8b 04 24          	mov    (%rsp),%rax
  10777f:	48 83 c4 30          	add    $0x30,%rsp
  107783:	c3                   	retq   
  107784:	66 2e 0f 1f 84 00 00 	nopw   %cs:0x0(%rax,%rax,1)
  10778b:	00 00 00 
  10778e:	66 90                	xchg   %ax,%ax

0000000000107790 <_ZN53_$LT$$u5b$T$u5d$$u20$as$u20$core..slice..SliceExt$GT$3len17h9775f548e8ea6a6bE>:
  107790:	48 83 ec 30          	sub    $0x30,%rsp
  107794:	48 89 7c 24 10       	mov    %rdi,0x10(%rsp)
  107799:	48 89 74 24 08       	mov    %rsi,0x8(%rsp)
  10779e:	48 8b 44 24 10       	mov    0x10(%rsp),%rax
  1077a3:	48 89 44 24 18       	mov    %rax,0x18(%rsp)
  1077a8:	48 8b 4c 24 08       	mov    0x8(%rsp),%rcx
  1077ad:	48 89 4c 24 20       	mov    %rcx,0x20(%rsp)
  1077b2:	48 8b 44 24 20       	mov    0x20(%rsp),%rax
  1077b7:	48 89 04 24          	mov    %rax,(%rsp)
  1077bb:	48 8b 04 24          	mov    (%rsp),%rax
  1077bf:	48 83 c4 30          	add    $0x30,%rsp
  1077c3:	c3                   	retq   
  1077c4:	66 2e 0f 1f 84 00 00 	nopw   %cs:0x0(%rax,%rax,1)
  1077cb:	00 00 00 
  1077ce:	66 90                	xchg   %ax,%ax

00000000001077d0 <_ZN53_$LT$$u5b$T$u5d$$u20$as$u20$core..slice..SliceExt$GT$3len17hd51c75af828b3a29E>:
  1077d0:	48 83 ec 30          	sub    $0x30,%rsp
  1077d4:	48 89 7c 24 10       	mov    %rdi,0x10(%rsp)
  1077d9:	48 89 74 24 08       	mov    %rsi,0x8(%rsp)
  1077de:	48 8b 44 24 10       	mov    0x10(%rsp),%rax
  1077e3:	48 89 44 24 18       	mov    %rax,0x18(%rsp)
  1077e8:	48 8b 4c 24 08       	mov    0x8(%rsp),%rcx
  1077ed:	48 89 4c 24 20       	mov    %rcx,0x20(%rsp)
  1077f2:	48 8b 44 24 20       	mov    0x20(%rsp),%rax
  1077f7:	48 89 04 24          	mov    %rax,(%rsp)
  1077fb:	48 8b 04 24          	mov    (%rsp),%rax
  1077ff:	48 83 c4 30          	add    $0x30,%rsp
  107803:	c3                   	retq   
  107804:	66 2e 0f 1f 84 00 00 	nopw   %cs:0x0(%rax,%rax,1)
  10780b:	00 00 00 
  10780e:	66 90                	xchg   %ax,%ax

0000000000107810 <_ZN53_$LT$$u5b$T$u5d$$u20$as$u20$core..slice..SliceExt$GT$3len17he17f44d354df8341E>:
  107810:	48 83 ec 30          	sub    $0x30,%rsp
  107814:	48 89 7c 24 10       	mov    %rdi,0x10(%rsp)
  107819:	48 89 74 24 08       	mov    %rsi,0x8(%rsp)
  10781e:	48 8b 44 24 10       	mov    0x10(%rsp),%rax
  107823:	48 89 44 24 18       	mov    %rax,0x18(%rsp)
  107828:	48 8b 4c 24 08       	mov    0x8(%rsp),%rcx
  10782d:	48 89 4c 24 20       	mov    %rcx,0x20(%rsp)
  107832:	48 8b 44 24 20       	mov    0x20(%rsp),%rax
  107837:	48 89 04 24          	mov    %rax,(%rsp)
  10783b:	48 8b 04 24          	mov    (%rsp),%rax
  10783f:	48 83 c4 30          	add    $0x30,%rsp
  107843:	c3                   	retq   
  107844:	66 2e 0f 1f 84 00 00 	nopw   %cs:0x0(%rax,%rax,1)
  10784b:	00 00 00 
  10784e:	66 90                	xchg   %ax,%ax

0000000000107850 <_ZN53_$LT$$u5b$T$u5d$$u20$as$u20$core..slice..SliceExt$GT$8iter_mut17h994705f00787d05dE>:
  107850:	48 81 ec 88 00 00 00 	sub    $0x88,%rsp
  107857:	48 89 f8             	mov    %rdi,%rax
  10785a:	48 89 44 24 60       	mov    %rax,0x60(%rsp)
  10785f:	48 89 54 24 58       	mov    %rdx,0x58(%rsp)
  107864:	48 89 74 24 50       	mov    %rsi,0x50(%rsp)
  107869:	48 89 7c 24 48       	mov    %rdi,0x48(%rsp)
  10786e:	e8 5d d4 ff ff       	callq  104cd0 <_ZN4core3mem7size_of17hb7c38d54091f1b39E>
  107873:	48 89 44 24 40       	mov    %rax,0x40(%rsp)
  107878:	48 8b 44 24 40       	mov    0x40(%rsp),%rax
  10787d:	48 83 f8 00          	cmp    $0x0,%rax
  107881:	75 11                	jne    107894 <_ZN53_$LT$$u5b$T$u5d$$u20$as$u20$core..slice..SliceExt$GT$8iter_mut17h994705f00787d05dE+0x44>
  107883:	b8 01 00 00 00       	mov    $0x1,%eax
  107888:	89 c1                	mov    %eax,%ecx
  10788a:	48 89 8c 24 80 00 00 	mov    %rcx,0x80(%rsp)
  107891:	00 
  107892:	eb 2f                	jmp    1078c3 <_ZN53_$LT$$u5b$T$u5d$$u20$as$u20$core..slice..SliceExt$GT$8iter_mut17h994705f00787d05dE+0x73>
  107894:	48 8b 7c 24 50       	mov    0x50(%rsp),%rdi
  107899:	48 8b 74 24 58       	mov    0x58(%rsp),%rsi
  10789e:	e8 dd 00 00 00       	callq  107980 <_ZN53_$LT$$u5b$T$u5d$$u20$as$u20$core..slice..SliceExt$GT$10as_mut_ptr17h0e56edd2ac4af6b0E>
  1078a3:	48 89 44 24 38       	mov    %rax,0x38(%rsp)
  1078a8:	48 8b 7c 24 38       	mov    0x38(%rsp),%rdi
  1078ad:	e8 de d6 ff ff       	callq  104f90 <_ZN4core3ptr31_$LT$impl$u20$$BP$mut$u20$T$GT$7is_null17hd48a02205a55039bE>
  1078b2:	88 44 24 37          	mov    %al,0x37(%rsp)
  1078b6:	48 8b 44 24 38       	mov    0x38(%rsp),%rax
  1078bb:	48 89 84 24 80 00 00 	mov    %rax,0x80(%rsp)
  1078c2:	00 
  1078c3:	48 8b 84 24 80 00 00 	mov    0x80(%rsp),%rax
  1078ca:	00 
  1078cb:	48 8b 8c 24 80 00 00 	mov    0x80(%rsp),%rcx
  1078d2:	00 
  1078d3:	48 89 44 24 28       	mov    %rax,0x28(%rsp)
  1078d8:	48 89 4c 24 20       	mov    %rcx,0x20(%rsp)
  1078dd:	e8 ee d3 ff ff       	callq  104cd0 <_ZN4core3mem7size_of17hb7c38d54091f1b39E>
  1078e2:	48 89 44 24 18       	mov    %rax,0x18(%rsp)
  1078e7:	48 8b 44 24 18       	mov    0x18(%rsp),%rax
  1078ec:	48 83 f8 00          	cmp    $0x0,%rax
  1078f0:	75 16                	jne    107908 <_ZN53_$LT$$u5b$T$u5d$$u20$as$u20$core..slice..SliceExt$GT$8iter_mut17h994705f00787d05dE+0xb8>
  1078f2:	48 8b 7c 24 50       	mov    0x50(%rsp),%rdi
  1078f7:	48 8b 74 24 58       	mov    0x58(%rsp),%rsi
  1078fc:	e8 0f ff ff ff       	callq  107810 <_ZN53_$LT$$u5b$T$u5d$$u20$as$u20$core..slice..SliceExt$GT$3len17he17f44d354df8341E>
  107901:	48 89 44 24 10       	mov    %rax,0x10(%rsp)
  107906:	eb 16                	jmp    10791e <_ZN53_$LT$$u5b$T$u5d$$u20$as$u20$core..slice..SliceExt$GT$8iter_mut17h994705f00787d05dE+0xce>
  107908:	48 8b 7c 24 50       	mov    0x50(%rsp),%rdi
  10790d:	48 8b 74 24 58       	mov    0x58(%rsp),%rsi
  107912:	e8 f9 fe ff ff       	callq  107810 <_ZN53_$LT$$u5b$T$u5d$$u20$as$u20$core..slice..SliceExt$GT$3len17he17f44d354df8341E>
  107917:	48 89 44 24 08       	mov    %rax,0x8(%rsp)
  10791c:	eb 26                	jmp    107944 <_ZN53_$LT$$u5b$T$u5d$$u20$as$u20$core..slice..SliceExt$GT$8iter_mut17h994705f00787d05dE+0xf4>
  10791e:	48 8b 44 24 20       	mov    0x20(%rsp),%rax
  107923:	48 8b 4c 24 10       	mov    0x10(%rsp),%rcx
  107928:	48 01 c8             	add    %rcx,%rax
  10792b:	48 89 44 24 68       	mov    %rax,0x68(%rsp)
  107930:	48 8b 44 24 68       	mov    0x68(%rsp),%rax
  107935:	48 89 04 24          	mov    %rax,(%rsp)
  107939:	48 8b 04 24          	mov    (%rsp),%rax
  10793d:	48 89 44 24 78       	mov    %rax,0x78(%rsp)
  107942:	eb 14                	jmp    107958 <_ZN53_$LT$$u5b$T$u5d$$u20$as$u20$core..slice..SliceExt$GT$8iter_mut17h994705f00787d05dE+0x108>
  107944:	48 8b 7c 24 20       	mov    0x20(%rsp),%rdi
  107949:	48 8b 74 24 08       	mov    0x8(%rsp),%rsi
  10794e:	e8 6d d6 ff ff       	callq  104fc0 <_ZN4core3ptr31_$LT$impl$u20$$BP$mut$u20$T$GT$6offset17hd699195ba756a29fE>
  107953:	48 89 44 24 78       	mov    %rax,0x78(%rsp)
  107958:	48 8b 44 24 48       	mov    0x48(%rsp),%rax
  10795d:	48 8b 4c 24 28       	mov    0x28(%rsp),%rcx
  107962:	48 89 08             	mov    %rcx,(%rax)
  107965:	48 8b 54 24 78       	mov    0x78(%rsp),%rdx
  10796a:	48 89 50 08          	mov    %rdx,0x8(%rax)
  10796e:	48 8b 44 24 60       	mov    0x60(%rsp),%rax
  107973:	48 81 c4 88 00 00 00 	add    $0x88,%rsp
  10797a:	c3                   	retq   
  10797b:	0f 1f 44 00 00       	nopl   0x0(%rax,%rax,1)

0000000000107980 <_ZN53_$LT$$u5b$T$u5d$$u20$as$u20$core..slice..SliceExt$GT$10as_mut_ptr17h0e56edd2ac4af6b0E>:
  107980:	48 83 ec 18          	sub    $0x18,%rsp
  107984:	48 89 7c 24 08       	mov    %rdi,0x8(%rsp)
  107989:	48 89 34 24          	mov    %rsi,(%rsp)
  10798d:	eb 00                	jmp    10798f <_ZN53_$LT$$u5b$T$u5d$$u20$as$u20$core..slice..SliceExt$GT$10as_mut_ptr17h0e56edd2ac4af6b0E+0xf>
  10798f:	48 8b 44 24 08       	mov    0x8(%rsp),%rax
  107994:	48 83 c4 18          	add    $0x18,%rsp
  107998:	c3                   	retq   
  107999:	0f 1f 80 00 00 00 00 	nopl   0x0(%rax)

00000000001079a0 <_ZN4core5slice20slice_index_len_fail17hdff2d181506cc963E>:
  1079a0:	48 81 ec e8 00 00 00 	sub    $0xe8,%rsp
  1079a7:	48 89 7c 24 50       	mov    %rdi,0x50(%rsp)
  1079ac:	48 89 74 24 48       	mov    %rsi,0x48(%rsp)
  1079b1:	48 8d 84 24 d8 00 00 	lea    0xd8(%rsp),%rax
  1079b8:	00 
  1079b9:	48 8d 8c 24 e0 00 00 	lea    0xe0(%rsp),%rcx
  1079c0:	00 
  1079c1:	48 8b 54 24 50       	mov    0x50(%rsp),%rdx
  1079c6:	48 89 94 24 e0 00 00 	mov    %rdx,0xe0(%rsp)
  1079cd:	00 
  1079ce:	48 8b 74 24 48       	mov    0x48(%rsp),%rsi
  1079d3:	48 89 b4 24 d8 00 00 	mov    %rsi,0xd8(%rsp)
  1079da:	00 
  1079db:	48 8b 35 86 8b 00 00 	mov    0x8b86(%rip),%rsi        # 110568 <_ZN4core5slice74_$LT$impl$u20$core..ops..IndexMut$LT$usize$GT$$u20$for$u20$$u5b$T$u5d$$GT$9index_mut14_MSG_FILE_LINE17hdc6d73d2b1d0e93cE+0x40>
  1079e2:	48 8b 15 87 8b 00 00 	mov    0x8b87(%rip),%rdx        # 110570 <_ZN4core5slice74_$LT$impl$u20$core..ops..IndexMut$LT$usize$GT$$u20$for$u20$$u5b$T$u5d$$GT$9index_mut14_MSG_FILE_LINE17hdc6d73d2b1d0e93cE+0x48>
  1079e9:	48 89 4c 24 78       	mov    %rcx,0x78(%rsp)
  1079ee:	48 89 84 24 80 00 00 	mov    %rax,0x80(%rsp)
  1079f5:	00 
  1079f6:	48 8b 44 24 78       	mov    0x78(%rsp),%rax
  1079fb:	48 8b 8c 24 80 00 00 	mov    0x80(%rsp),%rcx
  107a02:	00 
  107a03:	48 89 54 24 40       	mov    %rdx,0x40(%rsp)
  107a08:	48 89 74 24 38       	mov    %rsi,0x38(%rsp)
  107a0d:	48 89 44 24 30       	mov    %rax,0x30(%rsp)
  107a12:	48 89 4c 24 28       	mov    %rcx,0x28(%rsp)
  107a17:	48 8d 7c 24 68       	lea    0x68(%rsp),%rdi
  107a1c:	48 8d 15 3d 34 00 00 	lea    0x343d(%rip),%rdx        # 10ae60 <_ZN4core3fmt3num54_$LT$impl$u20$core..fmt..Display$u20$for$u20$usize$GT$3fmt17h163484b597e27a9bE>
  107a23:	48 8b 74 24 30       	mov    0x30(%rsp),%rsi
  107a28:	e8 c3 44 00 00       	callq  10bef0 <_ZN4core3fmt10ArgumentV13new17h917fc33d290e20e0E>
  107a2d:	48 8b 54 24 68       	mov    0x68(%rsp),%rdx
  107a32:	48 8b 74 24 70       	mov    0x70(%rsp),%rsi
  107a37:	48 89 54 24 20       	mov    %rdx,0x20(%rsp)
  107a3c:	48 89 74 24 18       	mov    %rsi,0x18(%rsp)
  107a41:	48 8d 7c 24 58       	lea    0x58(%rsp),%rdi
  107a46:	48 8d 15 13 34 00 00 	lea    0x3413(%rip),%rdx        # 10ae60 <_ZN4core3fmt3num54_$LT$impl$u20$core..fmt..Display$u20$for$u20$usize$GT$3fmt17h163484b597e27a9bE>
  107a4d:	48 8b 74 24 28       	mov    0x28(%rsp),%rsi
  107a52:	e8 99 44 00 00       	callq  10bef0 <_ZN4core3fmt10ArgumentV13new17h917fc33d290e20e0E>
  107a57:	48 8b 54 24 58       	mov    0x58(%rsp),%rdx
  107a5c:	48 8b 74 24 60       	mov    0x60(%rsp),%rsi
  107a61:	48 89 54 24 10       	mov    %rdx,0x10(%rsp)
  107a66:	48 89 74 24 08       	mov    %rsi,0x8(%rsp)
  107a6b:	48 8d bc 24 a8 00 00 	lea    0xa8(%rsp),%rdi
  107a72:	00 
  107a73:	b8 02 00 00 00       	mov    $0x2,%eax
  107a78:	41 89 c0             	mov    %eax,%r8d
  107a7b:	48 8d 8c 24 88 00 00 	lea    0x88(%rsp),%rcx
  107a82:	00 
  107a83:	48 8b 54 24 20       	mov    0x20(%rsp),%rdx
  107a88:	48 89 94 24 88 00 00 	mov    %rdx,0x88(%rsp)
  107a8f:	00 
  107a90:	48 8b 74 24 18       	mov    0x18(%rsp),%rsi
  107a95:	48 89 b4 24 90 00 00 	mov    %rsi,0x90(%rsp)
  107a9c:	00 
  107a9d:	4c 8b 4c 24 10       	mov    0x10(%rsp),%r9
  107aa2:	4c 89 8c 24 98 00 00 	mov    %r9,0x98(%rsp)
  107aa9:	00 
  107aaa:	4c 8b 54 24 08       	mov    0x8(%rsp),%r10
  107aaf:	4c 89 94 24 a0 00 00 	mov    %r10,0xa0(%rsp)
  107ab6:	00 
  107ab7:	48 8b 74 24 38       	mov    0x38(%rsp),%rsi
  107abc:	48 8b 54 24 40       	mov    0x40(%rsp),%rdx
  107ac1:	e8 fa 44 00 00       	callq  10bfc0 <_ZN4core3fmt9Arguments6new_v117h2ee48eb28c0cff0aE>
  107ac6:	48 8d bc 24 a8 00 00 	lea    0xa8(%rsp),%rdi
  107acd:	00 
  107ace:	48 8d 35 7b 8a 00 00 	lea    0x8a7b(%rip),%rsi        # 110550 <_ZN4core5slice74_$LT$impl$u20$core..ops..IndexMut$LT$usize$GT$$u20$for$u20$$u5b$T$u5d$$GT$9index_mut14_MSG_FILE_LINE17hdc6d73d2b1d0e93cE+0x28>
  107ad5:	e8 86 db ff ff       	callq  105660 <_ZN4core9panicking9panic_fmt17hb567db798f4a4807E>
  107ada:	66 0f 1f 44 00 00    	nopw   0x0(%rax,%rax,1)

0000000000107ae0 <_ZN4core5slice22slice_index_order_fail17hfd97ac60d33c912aE>:
  107ae0:	48 81 ec e8 00 00 00 	sub    $0xe8,%rsp
  107ae7:	48 89 7c 24 50       	mov    %rdi,0x50(%rsp)
  107aec:	48 89 74 24 48       	mov    %rsi,0x48(%rsp)
  107af1:	48 8d 84 24 d8 00 00 	lea    0xd8(%rsp),%rax
  107af8:	00 
  107af9:	48 8d 8c 24 e0 00 00 	lea    0xe0(%rsp),%rcx
  107b00:	00 
  107b01:	48 8b 54 24 50       	mov    0x50(%rsp),%rdx
  107b06:	48 89 94 24 e0 00 00 	mov    %rdx,0xe0(%rsp)
  107b0d:	00 
  107b0e:	48 8b 74 24 48       	mov    0x48(%rsp),%rsi
  107b13:	48 89 b4 24 d8 00 00 	mov    %rsi,0xd8(%rsp)
  107b1a:	00 
  107b1b:	48 8b 35 6e 8a 00 00 	mov    0x8a6e(%rip),%rsi        # 110590 <_ZN4core5slice74_$LT$impl$u20$core..ops..IndexMut$LT$usize$GT$$u20$for$u20$$u5b$T$u5d$$GT$9index_mut14_MSG_FILE_LINE17hdc6d73d2b1d0e93cE+0x68>
  107b22:	48 8b 15 6f 8a 00 00 	mov    0x8a6f(%rip),%rdx        # 110598 <_ZN4core5slice74_$LT$impl$u20$core..ops..IndexMut$LT$usize$GT$$u20$for$u20$$u5b$T$u5d$$GT$9index_mut14_MSG_FILE_LINE17hdc6d73d2b1d0e93cE+0x70>
  107b29:	48 89 4c 24 78       	mov    %rcx,0x78(%rsp)
  107b2e:	48 89 84 24 80 00 00 	mov    %rax,0x80(%rsp)
  107b35:	00 
  107b36:	48 8b 44 24 78       	mov    0x78(%rsp),%rax
  107b3b:	48 8b 8c 24 80 00 00 	mov    0x80(%rsp),%rcx
  107b42:	00 
  107b43:	48 89 54 24 40       	mov    %rdx,0x40(%rsp)
  107b48:	48 89 74 24 38       	mov    %rsi,0x38(%rsp)
  107b4d:	48 89 44 24 30       	mov    %rax,0x30(%rsp)
  107b52:	48 89 4c 24 28       	mov    %rcx,0x28(%rsp)
  107b57:	48 8d 7c 24 68       	lea    0x68(%rsp),%rdi
  107b5c:	48 8d 15 fd 32 00 00 	lea    0x32fd(%rip),%rdx        # 10ae60 <_ZN4core3fmt3num54_$LT$impl$u20$core..fmt..Display$u20$for$u20$usize$GT$3fmt17h163484b597e27a9bE>
  107b63:	48 8b 74 24 30       	mov    0x30(%rsp),%rsi
  107b68:	e8 83 43 00 00       	callq  10bef0 <_ZN4core3fmt10ArgumentV13new17h917fc33d290e20e0E>
  107b6d:	48 8b 54 24 68       	mov    0x68(%rsp),%rdx
  107b72:	48 8b 74 24 70       	mov    0x70(%rsp),%rsi
  107b77:	48 89 54 24 20       	mov    %rdx,0x20(%rsp)
  107b7c:	48 89 74 24 18       	mov    %rsi,0x18(%rsp)
  107b81:	48 8d 7c 24 58       	lea    0x58(%rsp),%rdi
  107b86:	48 8d 15 d3 32 00 00 	lea    0x32d3(%rip),%rdx        # 10ae60 <_ZN4core3fmt3num54_$LT$impl$u20$core..fmt..Display$u20$for$u20$usize$GT$3fmt17h163484b597e27a9bE>
  107b8d:	48 8b 74 24 28       	mov    0x28(%rsp),%rsi
  107b92:	e8 59 43 00 00       	callq  10bef0 <_ZN4core3fmt10ArgumentV13new17h917fc33d290e20e0E>
  107b97:	48 8b 54 24 58       	mov    0x58(%rsp),%rdx
  107b9c:	48 8b 74 24 60       	mov    0x60(%rsp),%rsi
  107ba1:	48 89 54 24 10       	mov    %rdx,0x10(%rsp)
  107ba6:	48 89 74 24 08       	mov    %rsi,0x8(%rsp)
  107bab:	48 8d bc 24 a8 00 00 	lea    0xa8(%rsp),%rdi
  107bb2:	00 
  107bb3:	b8 02 00 00 00       	mov    $0x2,%eax
  107bb8:	41 89 c0             	mov    %eax,%r8d
  107bbb:	48 8d 8c 24 88 00 00 	lea    0x88(%rsp),%rcx
  107bc2:	00 
  107bc3:	48 8b 54 24 20       	mov    0x20(%rsp),%rdx
  107bc8:	48 89 94 24 88 00 00 	mov    %rdx,0x88(%rsp)
  107bcf:	00 
  107bd0:	48 8b 74 24 18       	mov    0x18(%rsp),%rsi
  107bd5:	48 89 b4 24 90 00 00 	mov    %rsi,0x90(%rsp)
  107bdc:	00 
  107bdd:	4c 8b 4c 24 10       	mov    0x10(%rsp),%r9
  107be2:	4c 89 8c 24 98 00 00 	mov    %r9,0x98(%rsp)
  107be9:	00 
  107bea:	4c 8b 54 24 08       	mov    0x8(%rsp),%r10
  107bef:	4c 89 94 24 a0 00 00 	mov    %r10,0xa0(%rsp)
  107bf6:	00 
  107bf7:	48 8b 74 24 38       	mov    0x38(%rsp),%rsi
  107bfc:	48 8b 54 24 40       	mov    0x40(%rsp),%rdx
  107c01:	e8 ba 43 00 00       	callq  10bfc0 <_ZN4core3fmt9Arguments6new_v117h2ee48eb28c0cff0aE>
  107c06:	48 8d bc 24 a8 00 00 	lea    0xa8(%rsp),%rdi
  107c0d:	00 
  107c0e:	48 8d 35 63 89 00 00 	lea    0x8963(%rip),%rsi        # 110578 <_ZN4core5slice74_$LT$impl$u20$core..ops..IndexMut$LT$usize$GT$$u20$for$u20$$u5b$T$u5d$$GT$9index_mut14_MSG_FILE_LINE17hdc6d73d2b1d0e93cE+0x50>
  107c15:	e8 46 da ff ff       	callq  105660 <_ZN4core9panicking9panic_fmt17hb567db798f4a4807E>
  107c1a:	66 0f 1f 44 00 00    	nopw   0x0(%rax,%rax,1)

0000000000107c20 <_ZN4core5slice95_$LT$impl$u20$core..ops..Index$LT$core..ops..Range$LT$usize$GT$$GT$$u20$for$u20$$u5b$T$u5d$$GT$5index17hcdb61b61bceed73bE>:
  107c20:	48 83 ec 78          	sub    $0x78,%rsp
  107c24:	48 89 74 24 58       	mov    %rsi,0x58(%rsp)
  107c29:	48 89 7c 24 50       	mov    %rdi,0x50(%rsp)
  107c2e:	48 89 54 24 48       	mov    %rdx,0x48(%rsp)
  107c33:	48 8b 44 24 48       	mov    0x48(%rsp),%rax
  107c38:	48 8b 08             	mov    (%rax),%rcx
  107c3b:	48 8b 50 08          	mov    0x8(%rax),%rdx
  107c3f:	48 39 d1             	cmp    %rdx,%rcx
  107c42:	48 89 4c 24 40       	mov    %rcx,0x40(%rsp)
  107c47:	48 89 54 24 38       	mov    %rdx,0x38(%rsp)
  107c4c:	76 0f                	jbe    107c5d <_ZN4core5slice95_$LT$impl$u20$core..ops..Index$LT$core..ops..Range$LT$usize$GT$$GT$$u20$for$u20$$u5b$T$u5d$$GT$5index17hcdb61b61bceed73bE+0x3d>
  107c4e:	48 8b 7c 24 40       	mov    0x40(%rsp),%rdi
  107c53:	48 8b 74 24 38       	mov    0x38(%rsp),%rsi
  107c58:	e8 83 fe ff ff       	callq  107ae0 <_ZN4core5slice22slice_index_order_fail17hfd97ac60d33c912aE>
  107c5d:	48 8b 7c 24 50       	mov    0x50(%rsp),%rdi
  107c62:	48 8b 74 24 58       	mov    0x58(%rsp),%rsi
  107c67:	e8 a4 fb ff ff       	callq  107810 <_ZN53_$LT$$u5b$T$u5d$$u20$as$u20$core..slice..SliceExt$GT$3len17he17f44d354df8341E>
  107c6c:	48 89 44 24 30       	mov    %rax,0x30(%rsp)
  107c71:	48 8b 44 24 38       	mov    0x38(%rsp),%rax
  107c76:	48 8b 4c 24 30       	mov    0x30(%rsp),%rcx
  107c7b:	48 39 c8             	cmp    %rcx,%rax
  107c7e:	76 16                	jbe    107c96 <_ZN4core5slice95_$LT$impl$u20$core..ops..Index$LT$core..ops..Range$LT$usize$GT$$GT$$u20$for$u20$$u5b$T$u5d$$GT$5index17hcdb61b61bceed73bE+0x76>
  107c80:	48 8b 7c 24 50       	mov    0x50(%rsp),%rdi
  107c85:	48 8b 74 24 58       	mov    0x58(%rsp),%rsi
  107c8a:	e8 81 fb ff ff       	callq  107810 <_ZN53_$LT$$u5b$T$u5d$$u20$as$u20$core..slice..SliceExt$GT$3len17he17f44d354df8341E>
  107c8f:	48 89 44 24 28       	mov    %rax,0x28(%rsp)
  107c94:	eb 16                	jmp    107cac <_ZN4core5slice95_$LT$impl$u20$core..ops..Index$LT$core..ops..Range$LT$usize$GT$$GT$$u20$for$u20$$u5b$T$u5d$$GT$5index17hcdb61b61bceed73bE+0x8c>
  107c96:	48 8b 7c 24 50       	mov    0x50(%rsp),%rdi
  107c9b:	48 8b 74 24 58       	mov    0x58(%rsp),%rsi
  107ca0:	e8 6b fa ff ff       	callq  107710 <_ZN53_$LT$$u5b$T$u5d$$u20$as$u20$core..slice..SliceExt$GT$6as_ptr17h7ebcf49c904fbf2fE>
  107ca5:	48 89 44 24 20       	mov    %rax,0x20(%rsp)
  107caa:	eb 0f                	jmp    107cbb <_ZN4core5slice95_$LT$impl$u20$core..ops..Index$LT$core..ops..Range$LT$usize$GT$$GT$$u20$for$u20$$u5b$T$u5d$$GT$5index17hcdb61b61bceed73bE+0x9b>
  107cac:	48 8b 7c 24 38       	mov    0x38(%rsp),%rdi
  107cb1:	48 8b 74 24 28       	mov    0x28(%rsp),%rsi
  107cb6:	e8 e5 fc ff ff       	callq  1079a0 <_ZN4core5slice20slice_index_len_fail17hdff2d181506cc963E>
  107cbb:	48 8b 7c 24 20       	mov    0x20(%rsp),%rdi
  107cc0:	48 8b 74 24 40       	mov    0x40(%rsp),%rsi
  107cc5:	e8 c6 d1 ff ff       	callq  104e90 <_ZN4core3ptr33_$LT$impl$u20$$BP$const$u20$T$GT$6offset17h0d62b7cbced53ff4E>
  107cca:	48 89 44 24 18       	mov    %rax,0x18(%rsp)
  107ccf:	48 8b 44 24 38       	mov    0x38(%rsp),%rax
  107cd4:	48 8b 4c 24 40       	mov    0x40(%rsp),%rcx
  107cd9:	48 29 c8             	sub    %rcx,%rax
  107cdc:	0f 92 c2             	setb   %dl
  107cdf:	f6 c2 01             	test   $0x1,%dl
  107ce2:	48 89 44 24 10       	mov    %rax,0x10(%rsp)
  107ce7:	75 26                	jne    107d0f <_ZN4core5slice95_$LT$impl$u20$core..ops..Index$LT$core..ops..Range$LT$usize$GT$$GT$$u20$for$u20$$u5b$T$u5d$$GT$5index17hcdb61b61bceed73bE+0xef>
  107ce9:	48 8b 7c 24 18       	mov    0x18(%rsp),%rdi
  107cee:	48 8b 74 24 10       	mov    0x10(%rsp),%rsi
  107cf3:	e8 38 07 00 00       	callq  108430 <_ZN4core5slice14from_raw_parts17h5f9d4399cfe98556E>
  107cf8:	48 89 44 24 08       	mov    %rax,0x8(%rsp)
  107cfd:	48 89 14 24          	mov    %rdx,(%rsp)
  107d01:	48 8b 44 24 08       	mov    0x8(%rsp),%rax
  107d06:	48 8b 14 24          	mov    (%rsp),%rdx
  107d0a:	48 83 c4 78          	add    $0x78,%rsp
  107d0e:	c3                   	retq   
  107d0f:	48 8d 3d 22 8b 00 00 	lea    0x8b22(%rip),%rdi        # 110838 <panic_loc14503>
  107d16:	e8 75 d7 ff ff       	callq  105490 <_ZN4core9panicking5panic17h585bd70cda921012E>
  107d1b:	0f 1f 44 00 00       	nopl   0x0(%rax,%rax,1)

0000000000107d20 <_ZN4core5slice99_$LT$impl$u20$core..ops..Index$LT$core..ops..RangeFrom$LT$usize$GT$$GT$$u20$for$u20$$u5b$T$u5d$$GT$5index17hed84da7d754047aaE>:
  107d20:	48 83 ec 78          	sub    $0x78,%rsp
  107d24:	48 89 54 24 58       	mov    %rdx,0x58(%rsp)
  107d29:	48 8b 54 24 58       	mov    0x58(%rsp),%rdx
  107d2e:	48 89 54 24 60       	mov    %rdx,0x60(%rsp)
  107d33:	48 89 74 24 28       	mov    %rsi,0x28(%rsp)
  107d38:	48 89 7c 24 20       	mov    %rdi,0x20(%rsp)
  107d3d:	48 8b 44 24 60       	mov    0x60(%rsp),%rax
  107d42:	48 89 44 24 50       	mov    %rax,0x50(%rsp)
  107d47:	48 8b 44 24 50       	mov    0x50(%rsp),%rax
  107d4c:	48 8b 7c 24 20       	mov    0x20(%rsp),%rdi
  107d51:	48 8b 74 24 28       	mov    0x28(%rsp),%rsi
  107d56:	48 89 44 24 18       	mov    %rax,0x18(%rsp)
  107d5b:	e8 b0 fa ff ff       	callq  107810 <_ZN53_$LT$$u5b$T$u5d$$u20$as$u20$core..slice..SliceExt$GT$3len17he17f44d354df8341E>
  107d60:	48 89 44 24 10       	mov    %rax,0x10(%rsp)
  107d65:	48 8d 54 24 30       	lea    0x30(%rsp),%rdx
  107d6a:	48 8b 44 24 18       	mov    0x18(%rsp),%rax
  107d6f:	48 89 44 24 40       	mov    %rax,0x40(%rsp)
  107d74:	48 8b 4c 24 10       	mov    0x10(%rsp),%rcx
  107d79:	48 89 4c 24 48       	mov    %rcx,0x48(%rsp)
  107d7e:	48 8b 74 24 40       	mov    0x40(%rsp),%rsi
  107d83:	48 8b 7c 24 48       	mov    0x48(%rsp),%rdi
  107d88:	48 89 74 24 30       	mov    %rsi,0x30(%rsp)
  107d8d:	48 89 7c 24 38       	mov    %rdi,0x38(%rsp)
  107d92:	48 8b 7c 24 20       	mov    0x20(%rsp),%rdi
  107d97:	48 8b 74 24 28       	mov    0x28(%rsp),%rsi
  107d9c:	e8 7f fe ff ff       	callq  107c20 <_ZN4core5slice95_$LT$impl$u20$core..ops..Index$LT$core..ops..Range$LT$usize$GT$$GT$$u20$for$u20$$u5b$T$u5d$$GT$5index17hcdb61b61bceed73bE>
  107da1:	48 89 44 24 08       	mov    %rax,0x8(%rsp)
  107da6:	48 89 14 24          	mov    %rdx,(%rsp)
  107daa:	48 8b 44 24 08       	mov    0x8(%rsp),%rax
  107daf:	48 8b 14 24          	mov    (%rsp),%rdx
  107db3:	48 83 c4 78          	add    $0x78,%rsp
  107db7:	c3                   	retq   
  107db8:	0f 1f 84 00 00 00 00 	nopl   0x0(%rax,%rax,1)
  107dbf:	00 

0000000000107dc0 <_ZN91_$LT$core..slice..Iter$LT$$u27$a$C$$u20$T$GT$$u20$as$u20$core..iter..iterator..Iterator$GT$4next17h3e0d8cf56d30f487E>:
  107dc0:	48 83 ec 78          	sub    $0x78,%rsp
  107dc4:	48 89 7c 24 40       	mov    %rdi,0x40(%rsp)
  107dc9:	e8 e2 ce ff ff       	callq  104cb0 <_ZN4core3mem7size_of17hb50227bb32dde6e0E>
  107dce:	48 89 44 24 38       	mov    %rax,0x38(%rsp)
  107dd3:	48 8b 44 24 38       	mov    0x38(%rsp),%rax
  107dd8:	48 83 f8 00          	cmp    $0x0,%rax
  107ddc:	74 13                	je     107df1 <_ZN91_$LT$core..slice..Iter$LT$$u27$a$C$$u20$T$GT$$u20$as$u20$core..iter..iterator..Iterator$GT$4next17h3e0d8cf56d30f487E+0x31>
  107dde:	48 8b 44 24 40       	mov    0x40(%rsp),%rax
  107de3:	48 8b 38             	mov    (%rax),%rdi
  107de6:	e8 e5 cf ff ff       	callq  104dd0 <_ZN4core3ptr33_$LT$impl$u20$$BP$const$u20$T$GT$7is_null17h21634c72833c3b8dE>
  107deb:	88 44 24 37          	mov    %al,0x37(%rsp)
  107def:	eb 02                	jmp    107df3 <_ZN91_$LT$core..slice..Iter$LT$$u27$a$C$$u20$T$GT$$u20$as$u20$core..iter..iterator..Iterator$GT$4next17h3e0d8cf56d30f487E+0x33>
  107df1:	eb 14                	jmp    107e07 <_ZN91_$LT$core..slice..Iter$LT$$u27$a$C$$u20$T$GT$$u20$as$u20$core..iter..iterator..Iterator$GT$4next17h3e0d8cf56d30f487E+0x47>
  107df3:	48 8b 44 24 40       	mov    0x40(%rsp),%rax
  107df8:	48 8b 78 08          	mov    0x8(%rax),%rdi
  107dfc:	e8 cf cf ff ff       	callq  104dd0 <_ZN4core3ptr33_$LT$impl$u20$$BP$const$u20$T$GT$7is_null17h21634c72833c3b8dE>
  107e01:	88 44 24 36          	mov    %al,0x36(%rsp)
  107e05:	eb 00                	jmp    107e07 <_ZN91_$LT$core..slice..Iter$LT$$u27$a$C$$u20$T$GT$$u20$as$u20$core..iter..iterator..Iterator$GT$4next17h3e0d8cf56d30f487E+0x47>
  107e07:	48 8b 44 24 40       	mov    0x40(%rsp),%rax
  107e0c:	48 8b 08             	mov    (%rax),%rcx
  107e0f:	48 3b 48 08          	cmp    0x8(%rax),%rcx
  107e13:	75 0e                	jne    107e23 <_ZN91_$LT$core..slice..Iter$LT$$u27$a$C$$u20$T$GT$$u20$as$u20$core..iter..iterator..Iterator$GT$4next17h3e0d8cf56d30f487E+0x63>
  107e15:	48 c7 44 24 50 00 00 	movq   $0x0,0x50(%rsp)
  107e1c:	00 00 
  107e1e:	e9 aa 00 00 00       	jmpq   107ecd <_ZN91_$LT$core..slice..Iter$LT$$u27$a$C$$u20$T$GT$$u20$as$u20$core..iter..iterator..Iterator$GT$4next17h3e0d8cf56d30f487E+0x10d>
  107e23:	48 8b 44 24 40       	mov    0x40(%rsp),%rax
  107e28:	48 8b 08             	mov    (%rax),%rcx
  107e2b:	48 8b 10             	mov    (%rax),%rdx
  107e2e:	48 89 4c 24 28       	mov    %rcx,0x28(%rsp)
  107e33:	48 89 54 24 20       	mov    %rdx,0x20(%rsp)
  107e38:	e8 73 ce ff ff       	callq  104cb0 <_ZN4core3mem7size_of17hb50227bb32dde6e0E>
  107e3d:	48 89 44 24 18       	mov    %rax,0x18(%rsp)
  107e42:	48 8b 44 24 18       	mov    0x18(%rsp),%rax
  107e47:	48 83 f8 00          	cmp    $0x0,%rax
  107e4b:	75 1a                	jne    107e67 <_ZN91_$LT$core..slice..Iter$LT$$u27$a$C$$u20$T$GT$$u20$as$u20$core..iter..iterator..Iterator$GT$4next17h3e0d8cf56d30f487E+0xa7>
  107e4d:	48 8b 44 24 20       	mov    0x20(%rsp),%rax
  107e52:	48 83 c0 01          	add    $0x1,%rax
  107e56:	48 89 44 24 48       	mov    %rax,0x48(%rsp)
  107e5b:	48 8b 44 24 48       	mov    0x48(%rsp),%rax
  107e60:	48 89 44 24 10       	mov    %rax,0x10(%rsp)
  107e65:	eb 18                	jmp    107e7f <_ZN91_$LT$core..slice..Iter$LT$$u27$a$C$$u20$T$GT$$u20$as$u20$core..iter..iterator..Iterator$GT$4next17h3e0d8cf56d30f487E+0xbf>
  107e67:	b8 01 00 00 00       	mov    $0x1,%eax
  107e6c:	89 c6                	mov    %eax,%esi
  107e6e:	48 8b 7c 24 20       	mov    0x20(%rsp),%rdi
  107e73:	e8 58 d0 ff ff       	callq  104ed0 <_ZN4core3ptr33_$LT$impl$u20$$BP$const$u20$T$GT$6offset17ha082c373f8ad8d3bE>
  107e78:	48 89 44 24 60       	mov    %rax,0x60(%rsp)
  107e7d:	eb 0a                	jmp    107e89 <_ZN91_$LT$core..slice..Iter$LT$$u27$a$C$$u20$T$GT$$u20$as$u20$core..iter..iterator..Iterator$GT$4next17h3e0d8cf56d30f487E+0xc9>
  107e7f:	48 8b 44 24 10       	mov    0x10(%rsp),%rax
  107e84:	48 89 44 24 60       	mov    %rax,0x60(%rsp)
  107e89:	48 8b 44 24 60       	mov    0x60(%rsp),%rax
  107e8e:	48 8b 4c 24 40       	mov    0x40(%rsp),%rcx
  107e93:	48 89 01             	mov    %rax,(%rcx)
  107e96:	e8 15 ce ff ff       	callq  104cb0 <_ZN4core3mem7size_of17hb50227bb32dde6e0E>
  107e9b:	48 89 44 24 08       	mov    %rax,0x8(%rsp)
  107ea0:	48 8b 44 24 08       	mov    0x8(%rsp),%rax
  107ea5:	48 83 f8 00          	cmp    $0x0,%rax
  107ea9:	75 0e                	jne    107eb9 <_ZN91_$LT$core..slice..Iter$LT$$u27$a$C$$u20$T$GT$$u20$as$u20$core..iter..iterator..Iterator$GT$4next17h3e0d8cf56d30f487E+0xf9>
  107eab:	b8 01 00 00 00       	mov    $0x1,%eax
  107eb0:	89 c1                	mov    %eax,%ecx
  107eb2:	48 89 4c 24 58       	mov    %rcx,0x58(%rsp)
  107eb7:	eb 0a                	jmp    107ec3 <_ZN91_$LT$core..slice..Iter$LT$$u27$a$C$$u20$T$GT$$u20$as$u20$core..iter..iterator..Iterator$GT$4next17h3e0d8cf56d30f487E+0x103>
  107eb9:	48 8b 44 24 28       	mov    0x28(%rsp),%rax
  107ebe:	48 89 44 24 58       	mov    %rax,0x58(%rsp)
  107ec3:	48 8b 44 24 58       	mov    0x58(%rsp),%rax
  107ec8:	48 89 44 24 50       	mov    %rax,0x50(%rsp)
  107ecd:	48 8b 44 24 50       	mov    0x50(%rsp),%rax
  107ed2:	48 83 c4 78          	add    $0x78,%rsp
  107ed6:	c3                   	retq   
  107ed7:	66 0f 1f 84 00 00 00 	nopw   0x0(%rax,%rax,1)
  107ede:	00 00 

0000000000107ee0 <_ZN91_$LT$core..slice..Iter$LT$$u27$a$C$$u20$T$GT$$u20$as$u20$core..iter..iterator..Iterator$GT$4next17hb807db09338a51f9E>:
  107ee0:	48 83 ec 78          	sub    $0x78,%rsp
  107ee4:	48 89 7c 24 40       	mov    %rdi,0x40(%rsp)
  107ee9:	e8 e2 cd ff ff       	callq  104cd0 <_ZN4core3mem7size_of17hb7c38d54091f1b39E>
  107eee:	48 89 44 24 38       	mov    %rax,0x38(%rsp)
  107ef3:	48 8b 44 24 38       	mov    0x38(%rsp),%rax
  107ef8:	48 83 f8 00          	cmp    $0x0,%rax
  107efc:	74 13                	je     107f11 <_ZN91_$LT$core..slice..Iter$LT$$u27$a$C$$u20$T$GT$$u20$as$u20$core..iter..iterator..Iterator$GT$4next17hb807db09338a51f9E+0x31>
  107efe:	48 8b 44 24 40       	mov    0x40(%rsp),%rax
  107f03:	48 8b 38             	mov    (%rax),%rdi
  107f06:	e8 f5 ce ff ff       	callq  104e00 <_ZN4core3ptr33_$LT$impl$u20$$BP$const$u20$T$GT$7is_null17h99216fd405cc08a2E>
  107f0b:	88 44 24 37          	mov    %al,0x37(%rsp)
  107f0f:	eb 02                	jmp    107f13 <_ZN91_$LT$core..slice..Iter$LT$$u27$a$C$$u20$T$GT$$u20$as$u20$core..iter..iterator..Iterator$GT$4next17hb807db09338a51f9E+0x33>
  107f11:	eb 14                	jmp    107f27 <_ZN91_$LT$core..slice..Iter$LT$$u27$a$C$$u20$T$GT$$u20$as$u20$core..iter..iterator..Iterator$GT$4next17hb807db09338a51f9E+0x47>
  107f13:	48 8b 44 24 40       	mov    0x40(%rsp),%rax
  107f18:	48 8b 78 08          	mov    0x8(%rax),%rdi
  107f1c:	e8 df ce ff ff       	callq  104e00 <_ZN4core3ptr33_$LT$impl$u20$$BP$const$u20$T$GT$7is_null17h99216fd405cc08a2E>
  107f21:	88 44 24 36          	mov    %al,0x36(%rsp)
  107f25:	eb 00                	jmp    107f27 <_ZN91_$LT$core..slice..Iter$LT$$u27$a$C$$u20$T$GT$$u20$as$u20$core..iter..iterator..Iterator$GT$4next17hb807db09338a51f9E+0x47>
  107f27:	48 8b 44 24 40       	mov    0x40(%rsp),%rax
  107f2c:	48 8b 08             	mov    (%rax),%rcx
  107f2f:	48 3b 48 08          	cmp    0x8(%rax),%rcx
  107f33:	75 0e                	jne    107f43 <_ZN91_$LT$core..slice..Iter$LT$$u27$a$C$$u20$T$GT$$u20$as$u20$core..iter..iterator..Iterator$GT$4next17hb807db09338a51f9E+0x63>
  107f35:	48 c7 44 24 50 00 00 	movq   $0x0,0x50(%rsp)
  107f3c:	00 00 
  107f3e:	e9 aa 00 00 00       	jmpq   107fed <_ZN91_$LT$core..slice..Iter$LT$$u27$a$C$$u20$T$GT$$u20$as$u20$core..iter..iterator..Iterator$GT$4next17hb807db09338a51f9E+0x10d>
  107f43:	48 8b 44 24 40       	mov    0x40(%rsp),%rax
  107f48:	48 8b 08             	mov    (%rax),%rcx
  107f4b:	48 8b 10             	mov    (%rax),%rdx
  107f4e:	48 89 4c 24 28       	mov    %rcx,0x28(%rsp)
  107f53:	48 89 54 24 20       	mov    %rdx,0x20(%rsp)
  107f58:	e8 73 cd ff ff       	callq  104cd0 <_ZN4core3mem7size_of17hb7c38d54091f1b39E>
  107f5d:	48 89 44 24 18       	mov    %rax,0x18(%rsp)
  107f62:	48 8b 44 24 18       	mov    0x18(%rsp),%rax
  107f67:	48 83 f8 00          	cmp    $0x0,%rax
  107f6b:	75 1a                	jne    107f87 <_ZN91_$LT$core..slice..Iter$LT$$u27$a$C$$u20$T$GT$$u20$as$u20$core..iter..iterator..Iterator$GT$4next17hb807db09338a51f9E+0xa7>
  107f6d:	48 8b 44 24 20       	mov    0x20(%rsp),%rax
  107f72:	48 83 c0 01          	add    $0x1,%rax
  107f76:	48 89 44 24 48       	mov    %rax,0x48(%rsp)
  107f7b:	48 8b 44 24 48       	mov    0x48(%rsp),%rax
  107f80:	48 89 44 24 10       	mov    %rax,0x10(%rsp)
  107f85:	eb 18                	jmp    107f9f <_ZN91_$LT$core..slice..Iter$LT$$u27$a$C$$u20$T$GT$$u20$as$u20$core..iter..iterator..Iterator$GT$4next17hb807db09338a51f9E+0xbf>
  107f87:	b8 01 00 00 00       	mov    $0x1,%eax
  107f8c:	89 c6                	mov    %eax,%esi
  107f8e:	48 8b 7c 24 20       	mov    0x20(%rsp),%rdi
  107f93:	e8 f8 ce ff ff       	callq  104e90 <_ZN4core3ptr33_$LT$impl$u20$$BP$const$u20$T$GT$6offset17h0d62b7cbced53ff4E>
  107f98:	48 89 44 24 60       	mov    %rax,0x60(%rsp)
  107f9d:	eb 0a                	jmp    107fa9 <_ZN91_$LT$core..slice..Iter$LT$$u27$a$C$$u20$T$GT$$u20$as$u20$core..iter..iterator..Iterator$GT$4next17hb807db09338a51f9E+0xc9>
  107f9f:	48 8b 44 24 10       	mov    0x10(%rsp),%rax
  107fa4:	48 89 44 24 60       	mov    %rax,0x60(%rsp)
  107fa9:	48 8b 44 24 60       	mov    0x60(%rsp),%rax
  107fae:	48 8b 4c 24 40       	mov    0x40(%rsp),%rcx
  107fb3:	48 89 01             	mov    %rax,(%rcx)
  107fb6:	e8 15 cd ff ff       	callq  104cd0 <_ZN4core3mem7size_of17hb7c38d54091f1b39E>
  107fbb:	48 89 44 24 08       	mov    %rax,0x8(%rsp)
  107fc0:	48 8b 44 24 08       	mov    0x8(%rsp),%rax
  107fc5:	48 83 f8 00          	cmp    $0x0,%rax
  107fc9:	75 0e                	jne    107fd9 <_ZN91_$LT$core..slice..Iter$LT$$u27$a$C$$u20$T$GT$$u20$as$u20$core..iter..iterator..Iterator$GT$4next17hb807db09338a51f9E+0xf9>
  107fcb:	b8 01 00 00 00       	mov    $0x1,%eax
  107fd0:	89 c1                	mov    %eax,%ecx
  107fd2:	48 89 4c 24 58       	mov    %rcx,0x58(%rsp)
  107fd7:	eb 0a                	jmp    107fe3 <_ZN91_$LT$core..slice..Iter$LT$$u27$a$C$$u20$T$GT$$u20$as$u20$core..iter..iterator..Iterator$GT$4next17hb807db09338a51f9E+0x103>
  107fd9:	48 8b 44 24 28       	mov    0x28(%rsp),%rax
  107fde:	48 89 44 24 58       	mov    %rax,0x58(%rsp)
  107fe3:	48 8b 44 24 58       	mov    0x58(%rsp),%rax
  107fe8:	48 89 44 24 50       	mov    %rax,0x50(%rsp)
  107fed:	48 8b 44 24 50       	mov    0x50(%rsp),%rax
  107ff2:	48 83 c4 78          	add    $0x78,%rsp
  107ff6:	c3                   	retq   
  107ff7:	66 0f 1f 84 00 00 00 	nopw   0x0(%rax,%rax,1)
  107ffe:	00 00 

0000000000108000 <_ZN91_$LT$core..slice..Iter$LT$$u27$a$C$$u20$T$GT$$u20$as$u20$core..iter..iterator..Iterator$GT$4next17hc7ace1d0c40a131aE>:
  108000:	48 83 ec 78          	sub    $0x78,%rsp
  108004:	48 89 7c 24 40       	mov    %rdi,0x40(%rsp)
  108009:	e8 62 cc ff ff       	callq  104c70 <_ZN4core3mem7size_of17h1938af5aae08a1a4E>
  10800e:	48 89 44 24 38       	mov    %rax,0x38(%rsp)
  108013:	48 8b 44 24 38       	mov    0x38(%rsp),%rax
  108018:	48 83 f8 00          	cmp    $0x0,%rax
  10801c:	74 13                	je     108031 <_ZN91_$LT$core..slice..Iter$LT$$u27$a$C$$u20$T$GT$$u20$as$u20$core..iter..iterator..Iterator$GT$4next17hc7ace1d0c40a131aE+0x31>
  10801e:	48 8b 44 24 40       	mov    0x40(%rsp),%rax
  108023:	48 8b 38             	mov    (%rax),%rdi
  108026:	e8 05 ce ff ff       	callq  104e30 <_ZN4core3ptr33_$LT$impl$u20$$BP$const$u20$T$GT$7is_null17hd68c1a3d68c0869bE>
  10802b:	88 44 24 37          	mov    %al,0x37(%rsp)
  10802f:	eb 02                	jmp    108033 <_ZN91_$LT$core..slice..Iter$LT$$u27$a$C$$u20$T$GT$$u20$as$u20$core..iter..iterator..Iterator$GT$4next17hc7ace1d0c40a131aE+0x33>
  108031:	eb 14                	jmp    108047 <_ZN91_$LT$core..slice..Iter$LT$$u27$a$C$$u20$T$GT$$u20$as$u20$core..iter..iterator..Iterator$GT$4next17hc7ace1d0c40a131aE+0x47>
  108033:	48 8b 44 24 40       	mov    0x40(%rsp),%rax
  108038:	48 8b 78 08          	mov    0x8(%rax),%rdi
  10803c:	e8 ef cd ff ff       	callq  104e30 <_ZN4core3ptr33_$LT$impl$u20$$BP$const$u20$T$GT$7is_null17hd68c1a3d68c0869bE>
  108041:	88 44 24 36          	mov    %al,0x36(%rsp)
  108045:	eb 00                	jmp    108047 <_ZN91_$LT$core..slice..Iter$LT$$u27$a$C$$u20$T$GT$$u20$as$u20$core..iter..iterator..Iterator$GT$4next17hc7ace1d0c40a131aE+0x47>
  108047:	48 8b 44 24 40       	mov    0x40(%rsp),%rax
  10804c:	48 8b 08             	mov    (%rax),%rcx
  10804f:	48 3b 48 08          	cmp    0x8(%rax),%rcx
  108053:	75 0e                	jne    108063 <_ZN91_$LT$core..slice..Iter$LT$$u27$a$C$$u20$T$GT$$u20$as$u20$core..iter..iterator..Iterator$GT$4next17hc7ace1d0c40a131aE+0x63>
  108055:	48 c7 44 24 50 00 00 	movq   $0x0,0x50(%rsp)
  10805c:	00 00 
  10805e:	e9 aa 00 00 00       	jmpq   10810d <_ZN91_$LT$core..slice..Iter$LT$$u27$a$C$$u20$T$GT$$u20$as$u20$core..iter..iterator..Iterator$GT$4next17hc7ace1d0c40a131aE+0x10d>
  108063:	48 8b 44 24 40       	mov    0x40(%rsp),%rax
  108068:	48 8b 08             	mov    (%rax),%rcx
  10806b:	48 8b 10             	mov    (%rax),%rdx
  10806e:	48 89 4c 24 28       	mov    %rcx,0x28(%rsp)
  108073:	48 89 54 24 20       	mov    %rdx,0x20(%rsp)
  108078:	e8 f3 cb ff ff       	callq  104c70 <_ZN4core3mem7size_of17h1938af5aae08a1a4E>
  10807d:	48 89 44 24 18       	mov    %rax,0x18(%rsp)
  108082:	48 8b 44 24 18       	mov    0x18(%rsp),%rax
  108087:	48 83 f8 00          	cmp    $0x0,%rax
  10808b:	75 1a                	jne    1080a7 <_ZN91_$LT$core..slice..Iter$LT$$u27$a$C$$u20$T$GT$$u20$as$u20$core..iter..iterator..Iterator$GT$4next17hc7ace1d0c40a131aE+0xa7>
  10808d:	48 8b 44 24 20       	mov    0x20(%rsp),%rax
  108092:	48 83 c0 01          	add    $0x1,%rax
  108096:	48 89 44 24 48       	mov    %rax,0x48(%rsp)
  10809b:	48 8b 44 24 48       	mov    0x48(%rsp),%rax
  1080a0:	48 89 44 24 10       	mov    %rax,0x10(%rsp)
  1080a5:	eb 18                	jmp    1080bf <_ZN91_$LT$core..slice..Iter$LT$$u27$a$C$$u20$T$GT$$u20$as$u20$core..iter..iterator..Iterator$GT$4next17hc7ace1d0c40a131aE+0xbf>
  1080a7:	b8 01 00 00 00       	mov    $0x1,%eax
  1080ac:	89 c6                	mov    %eax,%esi
  1080ae:	48 8b 7c 24 20       	mov    0x20(%rsp),%rdi
  1080b3:	e8 98 ce ff ff       	callq  104f50 <_ZN4core3ptr33_$LT$impl$u20$$BP$const$u20$T$GT$6offset17heb747abc29f3bd4aE>
  1080b8:	48 89 44 24 60       	mov    %rax,0x60(%rsp)
  1080bd:	eb 0a                	jmp    1080c9 <_ZN91_$LT$core..slice..Iter$LT$$u27$a$C$$u20$T$GT$$u20$as$u20$core..iter..iterator..Iterator$GT$4next17hc7ace1d0c40a131aE+0xc9>
  1080bf:	48 8b 44 24 10       	mov    0x10(%rsp),%rax
  1080c4:	48 89 44 24 60       	mov    %rax,0x60(%rsp)
  1080c9:	48 8b 44 24 60       	mov    0x60(%rsp),%rax
  1080ce:	48 8b 4c 24 40       	mov    0x40(%rsp),%rcx
  1080d3:	48 89 01             	mov    %rax,(%rcx)
  1080d6:	e8 95 cb ff ff       	callq  104c70 <_ZN4core3mem7size_of17h1938af5aae08a1a4E>
  1080db:	48 89 44 24 08       	mov    %rax,0x8(%rsp)
  1080e0:	48 8b 44 24 08       	mov    0x8(%rsp),%rax
  1080e5:	48 83 f8 00          	cmp    $0x0,%rax
  1080e9:	75 0e                	jne    1080f9 <_ZN91_$LT$core..slice..Iter$LT$$u27$a$C$$u20$T$GT$$u20$as$u20$core..iter..iterator..Iterator$GT$4next17hc7ace1d0c40a131aE+0xf9>
  1080eb:	b8 01 00 00 00       	mov    $0x1,%eax
  1080f0:	89 c1                	mov    %eax,%ecx
  1080f2:	48 89 4c 24 58       	mov    %rcx,0x58(%rsp)
  1080f7:	eb 0a                	jmp    108103 <_ZN91_$LT$core..slice..Iter$LT$$u27$a$C$$u20$T$GT$$u20$as$u20$core..iter..iterator..Iterator$GT$4next17hc7ace1d0c40a131aE+0x103>
  1080f9:	48 8b 44 24 28       	mov    0x28(%rsp),%rax
  1080fe:	48 89 44 24 58       	mov    %rax,0x58(%rsp)
  108103:	48 8b 44 24 58       	mov    0x58(%rsp),%rax
  108108:	48 89 44 24 50       	mov    %rax,0x50(%rsp)
  10810d:	48 8b 44 24 50       	mov    0x50(%rsp),%rax
  108112:	48 83 c4 78          	add    $0x78,%rsp
  108116:	c3                   	retq   
  108117:	66 0f 1f 84 00 00 00 	nopw   0x0(%rax,%rax,1)
  10811e:	00 00 

0000000000108120 <_ZN91_$LT$core..slice..Iter$LT$$u27$a$C$$u20$T$GT$$u20$as$u20$core..iter..iterator..Iterator$GT$4next17hfd68c5be5d86a6ebE>:
  108120:	48 83 ec 78          	sub    $0x78,%rsp
  108124:	48 89 7c 24 40       	mov    %rdi,0x40(%rsp)
  108129:	e8 62 cb ff ff       	callq  104c90 <_ZN4core3mem7size_of17h23710f381bc230bdE>
  10812e:	48 89 44 24 38       	mov    %rax,0x38(%rsp)
  108133:	48 8b 44 24 38       	mov    0x38(%rsp),%rax
  108138:	48 83 f8 00          	cmp    $0x0,%rax
  10813c:	74 13                	je     108151 <_ZN91_$LT$core..slice..Iter$LT$$u27$a$C$$u20$T$GT$$u20$as$u20$core..iter..iterator..Iterator$GT$4next17hfd68c5be5d86a6ebE+0x31>
  10813e:	48 8b 44 24 40       	mov    0x40(%rsp),%rax
  108143:	48 8b 38             	mov    (%rax),%rdi
  108146:	e8 15 cd ff ff       	callq  104e60 <_ZN4core3ptr33_$LT$impl$u20$$BP$const$u20$T$GT$7is_null17hfa0cebb9f0a20ce0E>
  10814b:	88 44 24 37          	mov    %al,0x37(%rsp)
  10814f:	eb 02                	jmp    108153 <_ZN91_$LT$core..slice..Iter$LT$$u27$a$C$$u20$T$GT$$u20$as$u20$core..iter..iterator..Iterator$GT$4next17hfd68c5be5d86a6ebE+0x33>
  108151:	eb 14                	jmp    108167 <_ZN91_$LT$core..slice..Iter$LT$$u27$a$C$$u20$T$GT$$u20$as$u20$core..iter..iterator..Iterator$GT$4next17hfd68c5be5d86a6ebE+0x47>
  108153:	48 8b 44 24 40       	mov    0x40(%rsp),%rax
  108158:	48 8b 78 08          	mov    0x8(%rax),%rdi
  10815c:	e8 ff cc ff ff       	callq  104e60 <_ZN4core3ptr33_$LT$impl$u20$$BP$const$u20$T$GT$7is_null17hfa0cebb9f0a20ce0E>
  108161:	88 44 24 36          	mov    %al,0x36(%rsp)
  108165:	eb 00                	jmp    108167 <_ZN91_$LT$core..slice..Iter$LT$$u27$a$C$$u20$T$GT$$u20$as$u20$core..iter..iterator..Iterator$GT$4next17hfd68c5be5d86a6ebE+0x47>
  108167:	48 8b 44 24 40       	mov    0x40(%rsp),%rax
  10816c:	48 8b 08             	mov    (%rax),%rcx
  10816f:	48 3b 48 08          	cmp    0x8(%rax),%rcx
  108173:	75 0e                	jne    108183 <_ZN91_$LT$core..slice..Iter$LT$$u27$a$C$$u20$T$GT$$u20$as$u20$core..iter..iterator..Iterator$GT$4next17hfd68c5be5d86a6ebE+0x63>
  108175:	48 c7 44 24 50 00 00 	movq   $0x0,0x50(%rsp)
  10817c:	00 00 
  10817e:	e9 aa 00 00 00       	jmpq   10822d <_ZN91_$LT$core..slice..Iter$LT$$u27$a$C$$u20$T$GT$$u20$as$u20$core..iter..iterator..Iterator$GT$4next17hfd68c5be5d86a6ebE+0x10d>
  108183:	48 8b 44 24 40       	mov    0x40(%rsp),%rax
  108188:	48 8b 08             	mov    (%rax),%rcx
  10818b:	48 8b 10             	mov    (%rax),%rdx
  10818e:	48 89 4c 24 28       	mov    %rcx,0x28(%rsp)
  108193:	48 89 54 24 20       	mov    %rdx,0x20(%rsp)
  108198:	e8 f3 ca ff ff       	callq  104c90 <_ZN4core3mem7size_of17h23710f381bc230bdE>
  10819d:	48 89 44 24 18       	mov    %rax,0x18(%rsp)
  1081a2:	48 8b 44 24 18       	mov    0x18(%rsp),%rax
  1081a7:	48 83 f8 00          	cmp    $0x0,%rax
  1081ab:	75 1a                	jne    1081c7 <_ZN91_$LT$core..slice..Iter$LT$$u27$a$C$$u20$T$GT$$u20$as$u20$core..iter..iterator..Iterator$GT$4next17hfd68c5be5d86a6ebE+0xa7>
  1081ad:	48 8b 44 24 20       	mov    0x20(%rsp),%rax
  1081b2:	48 83 c0 01          	add    $0x1,%rax
  1081b6:	48 89 44 24 48       	mov    %rax,0x48(%rsp)
  1081bb:	48 8b 44 24 48       	mov    0x48(%rsp),%rax
  1081c0:	48 89 44 24 10       	mov    %rax,0x10(%rsp)
  1081c5:	eb 18                	jmp    1081df <_ZN91_$LT$core..slice..Iter$LT$$u27$a$C$$u20$T$GT$$u20$as$u20$core..iter..iterator..Iterator$GT$4next17hfd68c5be5d86a6ebE+0xbf>
  1081c7:	b8 01 00 00 00       	mov    $0x1,%eax
  1081cc:	89 c6                	mov    %eax,%esi
  1081ce:	48 8b 7c 24 20       	mov    0x20(%rsp),%rdi
  1081d3:	e8 38 cd ff ff       	callq  104f10 <_ZN4core3ptr33_$LT$impl$u20$$BP$const$u20$T$GT$6offset17hb2ae816dc4960c6cE>
  1081d8:	48 89 44 24 60       	mov    %rax,0x60(%rsp)
  1081dd:	eb 0a                	jmp    1081e9 <_ZN91_$LT$core..slice..Iter$LT$$u27$a$C$$u20$T$GT$$u20$as$u20$core..iter..iterator..Iterator$GT$4next17hfd68c5be5d86a6ebE+0xc9>
  1081df:	48 8b 44 24 10       	mov    0x10(%rsp),%rax
  1081e4:	48 89 44 24 60       	mov    %rax,0x60(%rsp)
  1081e9:	48 8b 44 24 60       	mov    0x60(%rsp),%rax
  1081ee:	48 8b 4c 24 40       	mov    0x40(%rsp),%rcx
  1081f3:	48 89 01             	mov    %rax,(%rcx)
  1081f6:	e8 95 ca ff ff       	callq  104c90 <_ZN4core3mem7size_of17h23710f381bc230bdE>
  1081fb:	48 89 44 24 08       	mov    %rax,0x8(%rsp)
  108200:	48 8b 44 24 08       	mov    0x8(%rsp),%rax
  108205:	48 83 f8 00          	cmp    $0x0,%rax
  108209:	75 0e                	jne    108219 <_ZN91_$LT$core..slice..Iter$LT$$u27$a$C$$u20$T$GT$$u20$as$u20$core..iter..iterator..Iterator$GT$4next17hfd68c5be5d86a6ebE+0xf9>
  10820b:	b8 01 00 00 00       	mov    $0x1,%eax
  108210:	89 c1                	mov    %eax,%ecx
  108212:	48 89 4c 24 58       	mov    %rcx,0x58(%rsp)
  108217:	eb 0a                	jmp    108223 <_ZN91_$LT$core..slice..Iter$LT$$u27$a$C$$u20$T$GT$$u20$as$u20$core..iter..iterator..Iterator$GT$4next17hfd68c5be5d86a6ebE+0x103>
  108219:	48 8b 44 24 28       	mov    0x28(%rsp),%rax
  10821e:	48 89 44 24 58       	mov    %rax,0x58(%rsp)
  108223:	48 8b 44 24 58       	mov    0x58(%rsp),%rax
  108228:	48 89 44 24 50       	mov    %rax,0x50(%rsp)
  10822d:	48 8b 44 24 50       	mov    0x50(%rsp),%rax
  108232:	48 83 c4 78          	add    $0x78,%rsp
  108236:	c3                   	retq   
  108237:	66 0f 1f 84 00 00 00 	nopw   0x0(%rax,%rax,1)
  10823e:	00 00 

0000000000108240 <_ZN91_$LT$core..slice..Iter$LT$$u27$a$C$$u20$T$GT$$u20$as$u20$core..iter..iterator..Iterator$GT$9size_hint17hafbf39b1f0a55a63E>:
  108240:	48 83 ec 48          	sub    $0x48,%rsp
  108244:	48 89 f8             	mov    %rdi,%rax
  108247:	48 89 44 24 28       	mov    %rax,0x28(%rsp)
  10824c:	48 89 74 24 20       	mov    %rsi,0x20(%rsp)
  108251:	48 89 7c 24 18       	mov    %rdi,0x18(%rsp)
  108256:	48 8b 44 24 20       	mov    0x20(%rsp),%rax
  10825b:	48 8b 78 08          	mov    0x8(%rax),%rdi
  10825f:	48 8b 30             	mov    (%rax),%rsi
  108262:	e8 b9 c9 ff ff       	callq  104c20 <_ZN4core3num23_$LT$impl$u20$usize$GT$12wrapping_sub17hc8158ca7d9aebd84E>
  108267:	48 89 44 24 10       	mov    %rax,0x10(%rsp)
  10826c:	e8 5f ca ff ff       	callq  104cd0 <_ZN4core3mem7size_of17hb7c38d54091f1b39E>
  108271:	48 89 44 24 08       	mov    %rax,0x8(%rsp)
  108276:	48 8b 44 24 08       	mov    0x8(%rsp),%rax
  10827b:	48 83 f8 00          	cmp    $0x0,%rax
  10827f:	75 0b                	jne    10828c <_ZN91_$LT$core..slice..Iter$LT$$u27$a$C$$u20$T$GT$$u20$as$u20$core..iter..iterator..Iterator$GT$9size_hint17hafbf39b1f0a55a63E+0x4c>
  108281:	48 c7 44 24 40 01 00 	movq   $0x1,0x40(%rsp)
  108288:	00 00 
  10828a:	eb 0a                	jmp    108296 <_ZN91_$LT$core..slice..Iter$LT$$u27$a$C$$u20$T$GT$$u20$as$u20$core..iter..iterator..Iterator$GT$9size_hint17hafbf39b1f0a55a63E+0x56>
  10828c:	48 8b 44 24 08       	mov    0x8(%rsp),%rax
  108291:	48 89 44 24 40       	mov    %rax,0x40(%rsp)
  108296:	48 83 7c 24 40 00    	cmpq   $0x0,0x40(%rsp)
  10829c:	0f 94 c0             	sete   %al
  10829f:	a8 01                	test   $0x1,%al
  1082a1:	75 40                	jne    1082e3 <_ZN91_$LT$core..slice..Iter$LT$$u27$a$C$$u20$T$GT$$u20$as$u20$core..iter..iterator..Iterator$GT$9size_hint17hafbf39b1f0a55a63E+0xa3>
  1082a3:	48 8b 44 24 10       	mov    0x10(%rsp),%rax
  1082a8:	31 c9                	xor    %ecx,%ecx
  1082aa:	89 ca                	mov    %ecx,%edx
  1082ac:	48 f7 74 24 40       	divq   0x40(%rsp)
  1082b1:	48 c7 44 24 30 01 00 	movq   $0x1,0x30(%rsp)
  1082b8:	00 00 
  1082ba:	48 89 44 24 38       	mov    %rax,0x38(%rsp)
  1082bf:	48 8b 74 24 18       	mov    0x18(%rsp),%rsi
  1082c4:	48 89 06             	mov    %rax,(%rsi)
  1082c7:	48 8b 44 24 30       	mov    0x30(%rsp),%rax
  1082cc:	48 89 46 08          	mov    %rax,0x8(%rsi)
  1082d0:	48 8b 44 24 38       	mov    0x38(%rsp),%rax
  1082d5:	48 89 46 10          	mov    %rax,0x10(%rsi)
  1082d9:	48 8b 44 24 28       	mov    0x28(%rsp),%rax
  1082de:	48 83 c4 48          	add    $0x48,%rsp
  1082e2:	c3                   	retq   
  1082e3:	48 8d 3d 76 85 00 00 	lea    0x8576(%rip),%rdi        # 110860 <panic_loc14509>
  1082ea:	e8 a1 d1 ff ff       	callq  105490 <_ZN4core9panicking5panic17h585bd70cda921012E>
  1082ef:	90                   	nop

00000000001082f0 <_ZN103_$LT$core..slice..IterMut$LT$$u27$a$C$$u20$T$GT$$u20$as$u20$core..iter..traits..DoubleEndedIterator$GT$9next_back17hd8afaa6e92279c43E>:
  1082f0:	48 81 ec 88 00 00 00 	sub    $0x88,%rsp
  1082f7:	48 89 7c 24 48       	mov    %rdi,0x48(%rsp)
  1082fc:	e8 cf c9 ff ff       	callq  104cd0 <_ZN4core3mem7size_of17hb7c38d54091f1b39E>
  108301:	48 89 44 24 40       	mov    %rax,0x40(%rsp)
  108306:	48 8b 44 24 40       	mov    0x40(%rsp),%rax
  10830b:	48 83 f8 00          	cmp    $0x0,%rax
  10830f:	74 13                	je     108324 <_ZN103_$LT$core..slice..IterMut$LT$$u27$a$C$$u20$T$GT$$u20$as$u20$core..iter..traits..DoubleEndedIterator$GT$9next_back17hd8afaa6e92279c43E+0x34>
  108311:	48 8b 44 24 48       	mov    0x48(%rsp),%rax
  108316:	48 8b 38             	mov    (%rax),%rdi
  108319:	e8 72 cc ff ff       	callq  104f90 <_ZN4core3ptr31_$LT$impl$u20$$BP$mut$u20$T$GT$7is_null17hd48a02205a55039bE>
  10831e:	88 44 24 3f          	mov    %al,0x3f(%rsp)
  108322:	eb 02                	jmp    108326 <_ZN103_$LT$core..slice..IterMut$LT$$u27$a$C$$u20$T$GT$$u20$as$u20$core..iter..traits..DoubleEndedIterator$GT$9next_back17hd8afaa6e92279c43E+0x36>
  108324:	eb 14                	jmp    10833a <_ZN103_$LT$core..slice..IterMut$LT$$u27$a$C$$u20$T$GT$$u20$as$u20$core..iter..traits..DoubleEndedIterator$GT$9next_back17hd8afaa6e92279c43E+0x4a>
  108326:	48 8b 44 24 48       	mov    0x48(%rsp),%rax
  10832b:	48 8b 78 08          	mov    0x8(%rax),%rdi
  10832f:	e8 5c cc ff ff       	callq  104f90 <_ZN4core3ptr31_$LT$impl$u20$$BP$mut$u20$T$GT$7is_null17hd48a02205a55039bE>
  108334:	88 44 24 3e          	mov    %al,0x3e(%rsp)
  108338:	eb 00                	jmp    10833a <_ZN103_$LT$core..slice..IterMut$LT$$u27$a$C$$u20$T$GT$$u20$as$u20$core..iter..traits..DoubleEndedIterator$GT$9next_back17hd8afaa6e92279c43E+0x4a>
  10833a:	48 8b 44 24 48       	mov    0x48(%rsp),%rax
  10833f:	48 8b 48 08          	mov    0x8(%rax),%rcx
  108343:	48 3b 08             	cmp    (%rax),%rcx
  108346:	75 0e                	jne    108356 <_ZN103_$LT$core..slice..IterMut$LT$$u27$a$C$$u20$T$GT$$u20$as$u20$core..iter..traits..DoubleEndedIterator$GT$9next_back17hd8afaa6e92279c43E+0x66>
  108348:	48 c7 44 24 60 00 00 	movq   $0x0,0x60(%rsp)
  10834f:	00 00 
  108351:	e9 c1 00 00 00       	jmpq   108417 <_ZN103_$LT$core..slice..IterMut$LT$$u27$a$C$$u20$T$GT$$u20$as$u20$core..iter..traits..DoubleEndedIterator$GT$9next_back17hd8afaa6e92279c43E+0x127>
  108356:	48 8b 44 24 48       	mov    0x48(%rsp),%rax
  10835b:	48 8b 48 08          	mov    0x8(%rax),%rcx
  10835f:	48 89 4c 24 30       	mov    %rcx,0x30(%rsp)
  108364:	e8 67 c9 ff ff       	callq  104cd0 <_ZN4core3mem7size_of17hb7c38d54091f1b39E>
  108369:	48 89 44 24 28       	mov    %rax,0x28(%rsp)
  10836e:	48 8b 44 24 28       	mov    0x28(%rsp),%rax
  108373:	48 83 f8 00          	cmp    $0x0,%rax
  108377:	75 1a                	jne    108393 <_ZN103_$LT$core..slice..IterMut$LT$$u27$a$C$$u20$T$GT$$u20$as$u20$core..iter..traits..DoubleEndedIterator$GT$9next_back17hd8afaa6e92279c43E+0xa3>
  108379:	48 8b 44 24 30       	mov    0x30(%rsp),%rax
  10837e:	48 83 c0 ff          	add    $0xffffffffffffffff,%rax
  108382:	48 89 44 24 58       	mov    %rax,0x58(%rsp)
  108387:	48 8b 44 24 58       	mov    0x58(%rsp),%rax
  10838c:	48 89 44 24 20       	mov    %rax,0x20(%rsp)
  108391:	eb 18                	jmp    1083ab <_ZN103_$LT$core..slice..IterMut$LT$$u27$a$C$$u20$T$GT$$u20$as$u20$core..iter..traits..DoubleEndedIterator$GT$9next_back17hd8afaa6e92279c43E+0xbb>
  108393:	48 c7 c6 ff ff ff ff 	mov    $0xffffffffffffffff,%rsi
  10839a:	48 8b 7c 24 30       	mov    0x30(%rsp),%rdi
  10839f:	e8 1c cc ff ff       	callq  104fc0 <_ZN4core3ptr31_$LT$impl$u20$$BP$mut$u20$T$GT$6offset17hd699195ba756a29fE>
  1083a4:	48 89 44 24 70       	mov    %rax,0x70(%rsp)
  1083a9:	eb 0a                	jmp    1083b5 <_ZN103_$LT$core..slice..IterMut$LT$$u27$a$C$$u20$T$GT$$u20$as$u20$core..iter..traits..DoubleEndedIterator$GT$9next_back17hd8afaa6e92279c43E+0xc5>
  1083ab:	48 8b 44 24 20       	mov    0x20(%rsp),%rax
  1083b0:	48 89 44 24 70       	mov    %rax,0x70(%rsp)
  1083b5:	48 8b 44 24 70       	mov    0x70(%rsp),%rax
  1083ba:	48 8b 4c 24 48       	mov    0x48(%rsp),%rcx
  1083bf:	48 89 41 08          	mov    %rax,0x8(%rcx)
  1083c3:	48 8b 41 08          	mov    0x8(%rcx),%rax
  1083c7:	48 89 44 24 18       	mov    %rax,0x18(%rsp)
  1083cc:	e8 ff c8 ff ff       	callq  104cd0 <_ZN4core3mem7size_of17hb7c38d54091f1b39E>
  1083d1:	48 89 44 24 10       	mov    %rax,0x10(%rsp)
  1083d6:	48 8b 44 24 10       	mov    0x10(%rsp),%rax
  1083db:	48 83 f8 00          	cmp    $0x0,%rax
  1083df:	75 0e                	jne    1083ef <_ZN103_$LT$core..slice..IterMut$LT$$u27$a$C$$u20$T$GT$$u20$as$u20$core..iter..traits..DoubleEndedIterator$GT$9next_back17hd8afaa6e92279c43E+0xff>
  1083e1:	b8 01 00 00 00       	mov    $0x1,%eax
  1083e6:	89 c1                	mov    %eax,%ecx
  1083e8:	48 89 4c 24 68       	mov    %rcx,0x68(%rsp)
  1083ed:	eb 1e                	jmp    10840d <_ZN103_$LT$core..slice..IterMut$LT$$u27$a$C$$u20$T$GT$$u20$as$u20$core..iter..traits..DoubleEndedIterator$GT$9next_back17hd8afaa6e92279c43E+0x11d>
  1083ef:	48 8b 44 24 18       	mov    0x18(%rsp),%rax
  1083f4:	48 89 44 24 50       	mov    %rax,0x50(%rsp)
  1083f9:	48 8b 4c 24 50       	mov    0x50(%rsp),%rcx
  1083fe:	48 89 4c 24 08       	mov    %rcx,0x8(%rsp)
  108403:	48 8b 44 24 08       	mov    0x8(%rsp),%rax
  108408:	48 89 44 24 68       	mov    %rax,0x68(%rsp)
  10840d:	48 8b 44 24 68       	mov    0x68(%rsp),%rax
  108412:	48 89 44 24 60       	mov    %rax,0x60(%rsp)
  108417:	48 8b 44 24 60       	mov    0x60(%rsp),%rax
  10841c:	48 81 c4 88 00 00 00 	add    $0x88,%rsp
  108423:	c3                   	retq   
  108424:	66 2e 0f 1f 84 00 00 	nopw   %cs:0x0(%rax,%rax,1)
  10842b:	00 00 00 
  10842e:	66 90                	xchg   %ax,%ax

0000000000108430 <_ZN4core5slice14from_raw_parts17h5f9d4399cfe98556E>:
  108430:	48 83 ec 50          	sub    $0x50,%rsp
  108434:	48 89 7c 24 18       	mov    %rdi,0x18(%rsp)
  108439:	48 89 74 24 10       	mov    %rsi,0x10(%rsp)
  10843e:	48 8b 44 24 18       	mov    0x18(%rsp),%rax
  108443:	48 89 44 24 30       	mov    %rax,0x30(%rsp)
  108448:	48 8b 4c 24 10       	mov    0x10(%rsp),%rcx
  10844d:	48 89 4c 24 38       	mov    %rcx,0x38(%rsp)
  108452:	48 8b 54 24 30       	mov    0x30(%rsp),%rdx
  108457:	48 8b 74 24 38       	mov    0x38(%rsp),%rsi
  10845c:	48 89 54 24 20       	mov    %rdx,0x20(%rsp)
  108461:	48 89 74 24 28       	mov    %rsi,0x28(%rsp)
  108466:	48 8b 44 24 20       	mov    0x20(%rsp),%rax
  10846b:	48 8b 54 24 28       	mov    0x28(%rsp),%rdx
  108470:	48 89 44 24 08       	mov    %rax,0x8(%rsp)
  108475:	48 89 14 24          	mov    %rdx,(%rsp)
  108479:	48 8b 44 24 08       	mov    0x8(%rsp),%rax
  10847e:	48 8b 14 24          	mov    (%rsp),%rdx
  108482:	48 83 c4 50          	add    $0x50,%rsp
  108486:	c3                   	retq   
  108487:	66 0f 1f 84 00 00 00 	nopw   0x0(%rax,%rax,1)
  10848e:	00 00 

0000000000108490 <_ZN4core3str7pattern8Searcher10next_match17h906e0ff40da7a501E>:
  108490:	48 83 ec 58          	sub    $0x58,%rsp
  108494:	48 89 f8             	mov    %rdi,%rax
  108497:	48 89 44 24 28       	mov    %rax,0x28(%rsp)
  10849c:	48 89 74 24 20       	mov    %rsi,0x20(%rsp)
  1084a1:	48 89 7c 24 18       	mov    %rdi,0x18(%rsp)
  1084a6:	eb 00                	jmp    1084a8 <_ZN4core3str7pattern8Searcher10next_match17h906e0ff40da7a501E+0x18>
  1084a8:	48 8d 7c 24 40       	lea    0x40(%rsp),%rdi
  1084ad:	48 8b 74 24 20       	mov    0x20(%rsp),%rsi
  1084b2:	e8 99 01 00 00       	callq  108650 <_ZN120_$LT$core..str..pattern..CharEqSearcher$LT$$u27$a$C$$u20$C$GT$$u20$as$u20$core..str..pattern..Searcher$LT$$u27$a$GT$$GT$4next17h94aa11394c6985f2E>
  1084b7:	48 8b 44 24 40       	mov    0x40(%rsp),%rax
  1084bc:	48 85 c0             	test   %rax,%rax
  1084bf:	48 89 44 24 10       	mov    %rax,0x10(%rsp)
  1084c4:	74 33                	je     1084f9 <_ZN4core3str7pattern8Searcher10next_match17h906e0ff40da7a501E+0x69>
  1084c6:	eb 00                	jmp    1084c8 <_ZN4core3str7pattern8Searcher10next_match17h906e0ff40da7a501E+0x38>
  1084c8:	48 8b 44 24 10       	mov    0x10(%rsp),%rax
  1084cd:	48 83 e8 01          	sub    $0x1,%rax
  1084d1:	48 89 44 24 08       	mov    %rax,0x8(%rsp)
  1084d6:	74 d0                	je     1084a8 <_ZN4core3str7pattern8Searcher10next_match17h906e0ff40da7a501E+0x18>
  1084d8:	eb 00                	jmp    1084da <_ZN4core3str7pattern8Searcher10next_match17h906e0ff40da7a501E+0x4a>
  1084da:	48 8b 44 24 10       	mov    0x10(%rsp),%rax
  1084df:	48 83 e8 02          	sub    $0x2,%rax
  1084e3:	48 89 04 24          	mov    %rax,(%rsp)
  1084e7:	75 4c                	jne    108535 <_ZN4core3str7pattern8Searcher10next_match17h906e0ff40da7a501E+0xa5>
  1084e9:	eb 00                	jmp    1084eb <_ZN4core3str7pattern8Searcher10next_match17h906e0ff40da7a501E+0x5b>
  1084eb:	48 8b 44 24 18       	mov    0x18(%rsp),%rax
  1084f0:	48 c7 00 00 00 00 00 	movq   $0x0,(%rax)
  1084f7:	eb 32                	jmp    10852b <_ZN4core3str7pattern8Searcher10next_match17h906e0ff40da7a501E+0x9b>
  1084f9:	48 8b 44 24 48       	mov    0x48(%rsp),%rax
  1084fe:	48 8b 4c 24 50       	mov    0x50(%rsp),%rcx
  108503:	48 89 44 24 30       	mov    %rax,0x30(%rsp)
  108508:	48 89 4c 24 38       	mov    %rcx,0x38(%rsp)
  10850d:	48 8b 44 24 18       	mov    0x18(%rsp),%rax
  108512:	48 c7 00 01 00 00 00 	movq   $0x1,(%rax)
  108519:	48 8b 4c 24 30       	mov    0x30(%rsp),%rcx
  10851e:	48 8b 54 24 38       	mov    0x38(%rsp),%rdx
  108523:	48 89 48 08          	mov    %rcx,0x8(%rax)
  108527:	48 89 50 10          	mov    %rdx,0x10(%rax)
  10852b:	48 8b 44 24 28       	mov    0x28(%rsp),%rax
  108530:	48 83 c4 58          	add    $0x58,%rsp
  108534:	c3                   	retq   
  108535:	66 2e 0f 1f 84 00 00 	nopw   %cs:0x0(%rax,%rax,1)
  10853c:	00 00 00 
  10853f:	90                   	nop

0000000000108540 <_ZN51_$LT$char$u20$as$u20$core..str..pattern..CharEq$GT$7matches17h999fbfefb5f97096E>:
  108540:	48 83 ec 18          	sub    $0x18,%rsp
  108544:	48 89 7c 24 08       	mov    %rdi,0x8(%rsp)
  108549:	89 74 24 04          	mov    %esi,0x4(%rsp)
  10854d:	48 8b 44 24 08       	mov    0x8(%rsp),%rax
  108552:	8b 4c 24 04          	mov    0x4(%rsp),%ecx
  108556:	39 08                	cmp    %ecx,(%rax)
  108558:	0f 94 c2             	sete   %dl
  10855b:	88 54 24 03          	mov    %dl,0x3(%rsp)
  10855f:	8a 44 24 03          	mov    0x3(%rsp),%al
  108563:	24 01                	and    $0x1,%al
  108565:	0f b6 c0             	movzbl %al,%eax
  108568:	48 83 c4 18          	add    $0x18,%rsp
  10856c:	c3                   	retq   
  10856d:	0f 1f 00             	nopl   (%rax)

0000000000108570 <_ZN51_$LT$char$u20$as$u20$core..str..pattern..CharEq$GT$10only_ascii17h37be5342360e277cE>:
  108570:	48 83 ec 18          	sub    $0x18,%rsp
  108574:	48 89 7c 24 08       	mov    %rdi,0x8(%rsp)
  108579:	48 8b 44 24 08       	mov    0x8(%rsp),%rax
  10857e:	81 38 80 00 00 00    	cmpl   $0x80,(%rax)
  108584:	0f 92 c1             	setb   %cl
  108587:	88 4c 24 07          	mov    %cl,0x7(%rsp)
  10858b:	8a 44 24 07          	mov    0x7(%rsp),%al
  10858f:	24 01                	and    $0x1,%al
  108591:	0f b6 c0             	movzbl %al,%eax
  108594:	48 83 c4 18          	add    $0x18,%rsp
  108598:	c3                   	retq   
  108599:	0f 1f 80 00 00 00 00 	nopl   0x0(%rax)

00000000001085a0 <_ZN104_$LT$core..str..pattern..CharEqPattern$LT$C$GT$$u20$as$u20$core..str..pattern..Pattern$LT$$u27$a$GT$$GT$13into_searcher17h6a4db8789b8c8173E>:
  1085a0:	48 83 ec 58          	sub    $0x58,%rsp
  1085a4:	48 89 f8             	mov    %rdi,%rax
  1085a7:	89 74 24 4c          	mov    %esi,0x4c(%rsp)
  1085ab:	8b 74 24 4c          	mov    0x4c(%rsp),%esi
  1085af:	89 74 24 50          	mov    %esi,0x50(%rsp)
  1085b3:	48 89 44 24 28       	mov    %rax,0x28(%rsp)
  1085b8:	48 89 4c 24 20       	mov    %rcx,0x20(%rsp)
  1085bd:	48 89 54 24 18       	mov    %rdx,0x18(%rsp)
  1085c2:	48 89 7c 24 10       	mov    %rdi,0x10(%rsp)
  1085c7:	48 8d 7c 24 48       	lea    0x48(%rsp),%rdi
  1085cc:	8b 44 24 50          	mov    0x50(%rsp),%eax
  1085d0:	89 44 24 48          	mov    %eax,0x48(%rsp)
  1085d4:	e8 97 ff ff ff       	callq  108570 <_ZN51_$LT$char$u20$as$u20$core..str..pattern..CharEq$GT$10only_ascii17h37be5342360e277cE>
  1085d9:	88 44 24 0f          	mov    %al,0xf(%rsp)
  1085dd:	48 8d 7c 24 30       	lea    0x30(%rsp),%rdi
  1085e2:	8b 44 24 48          	mov    0x48(%rsp),%eax
  1085e6:	48 8b 74 24 18       	mov    0x18(%rsp),%rsi
  1085eb:	48 8b 54 24 20       	mov    0x20(%rsp),%rdx
  1085f0:	89 44 24 08          	mov    %eax,0x8(%rsp)
  1085f4:	e8 f7 0e 00 00       	callq  1094f0 <_ZN41_$LT$str$u20$as$u20$core..str..StrExt$GT$12char_indices17hc57674a55540cb0fE>
  1085f9:	48 8b 44 24 10       	mov    0x10(%rsp),%rax
  1085fe:	8b 4c 24 08          	mov    0x8(%rsp),%ecx
  108602:	89 08                	mov    %ecx,(%rax)
  108604:	48 8b 54 24 18       	mov    0x18(%rsp),%rdx
  108609:	48 89 50 08          	mov    %rdx,0x8(%rax)
  10860d:	48 8b 74 24 20       	mov    0x20(%rsp),%rsi
  108612:	48 89 70 10          	mov    %rsi,0x10(%rax)
  108616:	48 8b 7c 24 30       	mov    0x30(%rsp),%rdi
  10861b:	48 89 78 18          	mov    %rdi,0x18(%rax)
  10861f:	48 8b 7c 24 38       	mov    0x38(%rsp),%rdi
  108624:	48 89 78 20          	mov    %rdi,0x20(%rax)
  108628:	48 8b 7c 24 40       	mov    0x40(%rsp),%rdi
  10862d:	48 89 78 28          	mov    %rdi,0x28(%rax)
  108631:	44 8a 44 24 0f       	mov    0xf(%rsp),%r8b
  108636:	41 80 e0 01          	and    $0x1,%r8b
  10863a:	44 88 40 30          	mov    %r8b,0x30(%rax)
  10863e:	48 8b 44 24 28       	mov    0x28(%rsp),%rax
  108643:	48 83 c4 58          	add    $0x58,%rsp
  108647:	c3                   	retq   
  108648:	0f 1f 84 00 00 00 00 	nopl   0x0(%rax,%rax,1)
  10864f:	00 

0000000000108650 <_ZN120_$LT$core..str..pattern..CharEqSearcher$LT$$u27$a$C$$u20$C$GT$$u20$as$u20$core..str..pattern..Searcher$LT$$u27$a$GT$$GT$4next17h94aa11394c6985f2E>:
  108650:	48 81 ec 98 00 00 00 	sub    $0x98,%rsp
  108657:	48 89 f8             	mov    %rdi,%rax
  10865a:	48 89 44 24 70       	mov    %rax,0x70(%rsp)
  10865f:	48 89 74 24 68       	mov    %rsi,0x68(%rsp)
  108664:	48 89 7c 24 60       	mov    %rdi,0x60(%rsp)
  108669:	48 8b 44 24 68       	mov    0x68(%rsp),%rax
  10866e:	48 83 c0 18          	add    $0x18,%rax
  108672:	48 89 c1             	mov    %rax,%rcx
  108675:	48 83 c1 08          	add    $0x8,%rcx
  108679:	48 89 cf             	mov    %rcx,%rdi
  10867c:	48 89 44 24 58       	mov    %rax,0x58(%rsp)
  108681:	e8 5a d9 ff ff       	callq  105fe0 <_ZN4core4iter6traits17ExactSizeIterator3len17h65c31b9f77e81f08E>
  108686:	48 89 44 24 50       	mov    %rax,0x50(%rsp)
  10868b:	48 8d 7c 24 78       	lea    0x78(%rsp),%rdi
  108690:	48 8b 74 24 58       	mov    0x58(%rsp),%rsi
  108695:	e8 c6 04 00 00       	callq  108b60 <_ZN87_$LT$core..str..CharIndices$LT$$u27$a$GT$$u20$as$u20$core..iter..iterator..Iterator$GT$4next17h394efb26e56d9ed6E>
  10869a:	48 8b 44 24 78       	mov    0x78(%rsp),%rax
  10869f:	48 85 c0             	test   %rax,%rax
  1086a2:	48 89 44 24 48       	mov    %rax,0x48(%rsp)
  1086a7:	74 17                	je     1086c0 <_ZN120_$LT$core..str..pattern..CharEqSearcher$LT$$u27$a$C$$u20$C$GT$$u20$as$u20$core..str..pattern..Searcher$LT$$u27$a$GT$$GT$4next17h94aa11394c6985f2E+0x70>
  1086a9:	eb 00                	jmp    1086ab <_ZN120_$LT$core..str..pattern..CharEqSearcher$LT$$u27$a$C$$u20$C$GT$$u20$as$u20$core..str..pattern..Searcher$LT$$u27$a$GT$$GT$4next17h94aa11394c6985f2E+0x5b>
  1086ab:	48 8b 44 24 48       	mov    0x48(%rsp),%rax
  1086b0:	48 83 e8 01          	sub    $0x1,%rax
  1086b4:	48 89 44 24 40       	mov    %rax,0x40(%rsp)
  1086b9:	74 16                	je     1086d1 <_ZN120_$LT$core..str..pattern..CharEqSearcher$LT$$u27$a$C$$u20$C$GT$$u20$as$u20$core..str..pattern..Searcher$LT$$u27$a$GT$$GT$4next17h94aa11394c6985f2E+0x81>
  1086bb:	e9 00 01 00 00       	jmpq   1087c0 <_ZN120_$LT$core..str..pattern..CharEqSearcher$LT$$u27$a$C$$u20$C$GT$$u20$as$u20$core..str..pattern..Searcher$LT$$u27$a$GT$$GT$4next17h94aa11394c6985f2E+0x170>
  1086c0:	48 8b 44 24 60       	mov    0x60(%rsp),%rax
  1086c5:	48 c7 00 02 00 00 00 	movq   $0x2,(%rax)
  1086cc:	e9 c2 00 00 00       	jmpq   108793 <_ZN120_$LT$core..str..pattern..CharEqSearcher$LT$$u27$a$C$$u20$C$GT$$u20$as$u20$core..str..pattern..Searcher$LT$$u27$a$GT$$GT$4next17h94aa11394c6985f2E+0x143>
  1086d1:	48 8b 84 24 80 00 00 	mov    0x80(%rsp),%rax
  1086d8:	00 
  1086d9:	8b b4 24 88 00 00 00 	mov    0x88(%rsp),%esi
  1086e0:	48 8b 4c 24 58       	mov    0x58(%rsp),%rcx
  1086e5:	48 83 c1 08          	add    $0x8,%rcx
  1086e9:	48 89 cf             	mov    %rcx,%rdi
  1086ec:	48 89 44 24 38       	mov    %rax,0x38(%rsp)
  1086f1:	89 74 24 34          	mov    %esi,0x34(%rsp)
  1086f5:	e8 e6 d8 ff ff       	callq  105fe0 <_ZN4core4iter6traits17ExactSizeIterator3len17h65c31b9f77e81f08E>
  1086fa:	48 89 44 24 28       	mov    %rax,0x28(%rsp)
  1086ff:	48 8b 44 24 50       	mov    0x50(%rsp),%rax
  108704:	48 8b 4c 24 28       	mov    0x28(%rsp),%rcx
  108709:	48 29 c8             	sub    %rcx,%rax
  10870c:	0f 92 c2             	setb   %dl
  10870f:	f6 c2 01             	test   $0x1,%dl
  108712:	48 89 44 24 20       	mov    %rax,0x20(%rsp)
  108717:	0f 85 a3 00 00 00    	jne    1087c0 <_ZN120_$LT$core..str..pattern..CharEqSearcher$LT$$u27$a$C$$u20$C$GT$$u20$as$u20$core..str..pattern..Searcher$LT$$u27$a$GT$$GT$4next17h94aa11394c6985f2E+0x170>
  10871d:	48 8b 7c 24 68       	mov    0x68(%rsp),%rdi
  108722:	8b 74 24 34          	mov    0x34(%rsp),%esi
  108726:	e8 15 fe ff ff       	callq  108540 <_ZN51_$LT$char$u20$as$u20$core..str..pattern..CharEq$GT$7matches17h999fbfefb5f97096E>
  10872b:	88 44 24 1f          	mov    %al,0x1f(%rsp)
  10872f:	8a 44 24 1f          	mov    0x1f(%rsp),%al
  108733:	a8 01                	test   $0x1,%al
  108735:	75 02                	jne    108739 <_ZN120_$LT$core..str..pattern..CharEqSearcher$LT$$u27$a$C$$u20$C$GT$$u20$as$u20$core..str..pattern..Searcher$LT$$u27$a$GT$$GT$4next17h94aa11394c6985f2E+0xe9>
  108737:	eb 20                	jmp    108759 <_ZN120_$LT$core..str..pattern..CharEqSearcher$LT$$u27$a$C$$u20$C$GT$$u20$as$u20$core..str..pattern..Searcher$LT$$u27$a$GT$$GT$4next17h94aa11394c6985f2E+0x109>
  108739:	48 8b 44 24 38       	mov    0x38(%rsp),%rax
  10873e:	48 8b 4c 24 20       	mov    0x20(%rsp),%rcx
  108743:	48 01 c8             	add    %rcx,%rax
  108746:	0f 92 c2             	setb   %dl
  108749:	f6 c2 01             	test   $0x1,%dl
  10874c:	48 89 44 24 10       	mov    %rax,0x10(%rsp)
  108751:	0f 85 81 00 00 00    	jne    1087d8 <_ZN120_$LT$core..str..pattern..CharEqSearcher$LT$$u27$a$C$$u20$C$GT$$u20$as$u20$core..str..pattern..Searcher$LT$$u27$a$GT$$GT$4next17h94aa11394c6985f2E+0x188>
  108757:	eb 1c                	jmp    108775 <_ZN120_$LT$core..str..pattern..CharEqSearcher$LT$$u27$a$C$$u20$C$GT$$u20$as$u20$core..str..pattern..Searcher$LT$$u27$a$GT$$GT$4next17h94aa11394c6985f2E+0x125>
  108759:	48 8b 44 24 38       	mov    0x38(%rsp),%rax
  10875e:	48 8b 4c 24 20       	mov    0x20(%rsp),%rcx
  108763:	48 01 c8             	add    %rcx,%rax
  108766:	0f 92 c2             	setb   %dl
  108769:	f6 c2 01             	test   $0x1,%dl
  10876c:	48 89 44 24 08       	mov    %rax,0x8(%rsp)
  108771:	75 59                	jne    1087cc <_ZN120_$LT$core..str..pattern..CharEqSearcher$LT$$u27$a$C$$u20$C$GT$$u20$as$u20$core..str..pattern..Searcher$LT$$u27$a$GT$$GT$4next17h94aa11394c6985f2E+0x17c>
  108773:	eb 2b                	jmp    1087a0 <_ZN120_$LT$core..str..pattern..CharEqSearcher$LT$$u27$a$C$$u20$C$GT$$u20$as$u20$core..str..pattern..Searcher$LT$$u27$a$GT$$GT$4next17h94aa11394c6985f2E+0x150>
  108775:	48 8b 44 24 60       	mov    0x60(%rsp),%rax
  10877a:	48 c7 00 00 00 00 00 	movq   $0x0,(%rax)
  108781:	48 8b 4c 24 38       	mov    0x38(%rsp),%rcx
  108786:	48 89 48 08          	mov    %rcx,0x8(%rax)
  10878a:	48 8b 54 24 10       	mov    0x10(%rsp),%rdx
  10878f:	48 89 50 10          	mov    %rdx,0x10(%rax)
  108793:	48 8b 44 24 70       	mov    0x70(%rsp),%rax
  108798:	48 81 c4 98 00 00 00 	add    $0x98,%rsp
  10879f:	c3                   	retq   
  1087a0:	48 8b 44 24 60       	mov    0x60(%rsp),%rax
  1087a5:	48 c7 00 01 00 00 00 	movq   $0x1,(%rax)
  1087ac:	48 8b 4c 24 38       	mov    0x38(%rsp),%rcx
  1087b1:	48 89 48 08          	mov    %rcx,0x8(%rax)
  1087b5:	48 8b 54 24 08       	mov    0x8(%rsp),%rdx
  1087ba:	48 89 50 10          	mov    %rdx,0x10(%rax)
  1087be:	eb d3                	jmp    108793 <_ZN120_$LT$core..str..pattern..CharEqSearcher$LT$$u27$a$C$$u20$C$GT$$u20$as$u20$core..str..pattern..Searcher$LT$$u27$a$GT$$GT$4next17h94aa11394c6985f2E+0x143>
  1087c0:	48 8d 3d c1 80 00 00 	lea    0x80c1(%rip),%rdi        # 110888 <panic_loc14521>
  1087c7:	e8 c4 cc ff ff       	callq  105490 <_ZN4core9panicking5panic17h585bd70cda921012E>
  1087cc:	48 8d 3d dd 80 00 00 	lea    0x80dd(%rip),%rdi        # 1108b0 <panic_loc14522>
  1087d3:	e8 b8 cc ff ff       	callq  105490 <_ZN4core9panicking5panic17h585bd70cda921012E>
  1087d8:	48 8d 3d f9 80 00 00 	lea    0x80f9(%rip),%rdi        # 1108d8 <panic_loc14523>
  1087df:	e8 ac cc ff ff       	callq  105490 <_ZN4core9panicking5panic17h585bd70cda921012E>
  1087e4:	66 2e 0f 1f 84 00 00 	nopw   %cs:0x0(%rax,%rax,1)
  1087eb:	00 00 00 
  1087ee:	66 90                	xchg   %ax,%ax

00000000001087f0 <_ZN109_$LT$core..str..pattern..CharSearcher$LT$$u27$a$GT$$u20$as$u20$core..str..pattern..Searcher$LT$$u27$a$GT$$GT$10next_match17h942aee63ca342cedE>:
  1087f0:	48 83 ec 18          	sub    $0x18,%rsp
  1087f4:	48 89 f8             	mov    %rdi,%rax
  1087f7:	48 89 44 24 10       	mov    %rax,0x10(%rsp)
  1087fc:	48 89 74 24 08       	mov    %rsi,0x8(%rsp)
  108801:	48 89 3c 24          	mov    %rdi,(%rsp)
  108805:	eb 00                	jmp    108807 <_ZN109_$LT$core..str..pattern..CharSearcher$LT$$u27$a$GT$$u20$as$u20$core..str..pattern..Searcher$LT$$u27$a$GT$$GT$10next_match17h942aee63ca342cedE+0x17>
  108807:	48 8b 3c 24          	mov    (%rsp),%rdi
  10880b:	48 8b 74 24 08       	mov    0x8(%rsp),%rsi
  108810:	e8 7b fc ff ff       	callq  108490 <_ZN4core3str7pattern8Searcher10next_match17h906e0ff40da7a501E>
  108815:	48 8b 44 24 10       	mov    0x10(%rsp),%rax
  10881a:	48 83 c4 18          	add    $0x18,%rsp
  10881e:	c3                   	retq   
  10881f:	90                   	nop

0000000000108820 <_ZN66_$LT$char$u20$as$u20$core..str..pattern..Pattern$LT$$u27$a$GT$$GT$13into_searcher17hf44bb49eb0fe36b6E>:
  108820:	48 83 ec 78          	sub    $0x78,%rsp
  108824:	48 89 f8             	mov    %rdi,%rax
  108827:	48 89 44 24 28       	mov    %rax,0x28(%rsp)
  10882c:	48 89 4c 24 20       	mov    %rcx,0x20(%rsp)
  108831:	48 89 54 24 18       	mov    %rdx,0x18(%rsp)
  108836:	89 74 24 14          	mov    %esi,0x14(%rsp)
  10883a:	48 89 7c 24 08       	mov    %rdi,0x8(%rsp)
  10883f:	48 8d 7c 24 40       	lea    0x40(%rsp),%rdi
  108844:	8b 44 24 14          	mov    0x14(%rsp),%eax
  108848:	89 44 24 38          	mov    %eax,0x38(%rsp)
  10884c:	89 44 24 30          	mov    %eax,0x30(%rsp)
  108850:	8b 74 24 30          	mov    0x30(%rsp),%esi
  108854:	48 8b 54 24 18       	mov    0x18(%rsp),%rdx
  108859:	48 8b 4c 24 20       	mov    0x20(%rsp),%rcx
  10885e:	e8 3d fd ff ff       	callq  1085a0 <_ZN104_$LT$core..str..pattern..CharEqPattern$LT$C$GT$$u20$as$u20$core..str..pattern..Pattern$LT$$u27$a$GT$$GT$13into_searcher17h6a4db8789b8c8173E>
  108863:	b8 38 00 00 00       	mov    $0x38,%eax
  108868:	89 c2                	mov    %eax,%edx
  10886a:	48 8d 4c 24 40       	lea    0x40(%rsp),%rcx
  10886f:	48 8b 74 24 08       	mov    0x8(%rsp),%rsi
  108874:	48 89 f7             	mov    %rsi,%rdi
  108877:	48 89 ce             	mov    %rcx,%rsi
  10887a:	e8 d1 b8 ff ff       	callq  104150 <memcpy>
  10887f:	48 8b 44 24 28       	mov    0x28(%rsp),%rax
  108884:	48 83 c4 78          	add    $0x78,%rsp
  108888:	c3                   	retq   
  108889:	0f 1f 80 00 00 00 00 	nopl   0x0(%rax)

0000000000108890 <_ZN4core3str15utf8_first_byte17h932f47d5184d8444E>:
  108890:	48 83 ec 18          	sub    $0x18,%rsp
  108894:	40 88 f8             	mov    %dil,%al
  108897:	88 44 24 13          	mov    %al,0x13(%rsp)
  10889b:	89 74 24 0c          	mov    %esi,0xc(%rsp)
  10889f:	b0 7f                	mov    $0x7f,%al
  1088a1:	8b 4c 24 0c          	mov    0xc(%rsp),%ecx
  1088a5:	83 e1 f8             	and    $0xfffffff8,%ecx
  1088a8:	83 f9 00             	cmp    $0x0,%ecx
  1088ab:	0f 95 c2             	setne  %dl
  1088ae:	8b 4c 24 0c          	mov    0xc(%rsp),%ecx
  1088b2:	40 88 ce             	mov    %cl,%sil
  1088b5:	40 80 e6 07          	and    $0x7,%sil
  1088b9:	40 88 f1             	mov    %sil,%cl
  1088bc:	d2 e8                	shr    %cl,%al
  1088be:	f6 c2 01             	test   $0x1,%dl
  1088c1:	88 44 24 0b          	mov    %al,0xb(%rsp)
  1088c5:	75 12                	jne    1088d9 <_ZN4core3str15utf8_first_byte17h932f47d5184d8444E+0x49>
  1088c7:	8a 44 24 13          	mov    0x13(%rsp),%al
  1088cb:	8a 4c 24 0b          	mov    0xb(%rsp),%cl
  1088cf:	20 c8                	and    %cl,%al
  1088d1:	0f b6 c0             	movzbl %al,%eax
  1088d4:	48 83 c4 18          	add    $0x18,%rsp
  1088d8:	c3                   	retq   
  1088d9:	48 8d 3d 20 80 00 00 	lea    0x8020(%rip),%rdi        # 110900 <panic_loc14618>
  1088e0:	e8 ab cb ff ff       	callq  105490 <_ZN4core9panicking5panic17h585bd70cda921012E>
  1088e5:	66 2e 0f 1f 84 00 00 	nopw   %cs:0x0(%rax,%rax,1)
  1088ec:	00 00 00 
  1088ef:	90                   	nop

00000000001088f0 <_ZN4core3str18utf8_acc_cont_byte17hb5eca5f132d771cfE>:
  1088f0:	48 83 ec 10          	sub    $0x10,%rsp
  1088f4:	40 88 f0             	mov    %sil,%al
  1088f7:	88 44 24 0b          	mov    %al,0xb(%rsp)
  1088fb:	89 7c 24 04          	mov    %edi,0x4(%rsp)
  1088ff:	8b 44 24 04          	mov    0x4(%rsp),%eax
  108903:	c1 e0 06             	shl    $0x6,%eax
  108906:	89 04 24             	mov    %eax,(%rsp)
  108909:	8a 44 24 0b          	mov    0xb(%rsp),%al
  10890d:	24 3f                	and    $0x3f,%al
  10890f:	0f b6 c8             	movzbl %al,%ecx
  108912:	8b 14 24             	mov    (%rsp),%edx
  108915:	09 ca                	or     %ecx,%edx
  108917:	89 d0                	mov    %edx,%eax
  108919:	48 83 c4 10          	add    $0x10,%rsp
  10891d:	c3                   	retq   
  10891e:	66 90                	xchg   %ax,%ax

0000000000108920 <_ZN4core3str11unwrap_or_017haa1a63e40f33e503E>:
  108920:	48 83 ec 20          	sub    $0x20,%rsp
  108924:	48 89 7c 24 10       	mov    %rdi,0x10(%rsp)
  108929:	48 8b 44 24 10       	mov    0x10(%rsp),%rax
  10892e:	48 89 44 24 08       	mov    %rax,0x8(%rsp)
  108933:	48 85 c0             	test   %rax,%rax
  108936:	0f 95 c1             	setne  %cl
  108939:	88 4c 24 06          	mov    %cl,0x6(%rsp)
  10893d:	75 15                	jne    108954 <_ZN4core3str11unwrap_or_017haa1a63e40f33e503E+0x34>
  10893f:	eb 00                	jmp    108941 <_ZN4core3str11unwrap_or_017haa1a63e40f33e503E+0x21>
  108941:	8a 44 24 06          	mov    0x6(%rsp),%al
  108945:	f6 d0                	not    %al
  108947:	a8 01                	test   $0x1,%al
  108949:	74 1d                	je     108968 <_ZN4core3str11unwrap_or_017haa1a63e40f33e503E+0x48>
  10894b:	eb 00                	jmp    10894d <_ZN4core3str11unwrap_or_017haa1a63e40f33e503E+0x2d>
  10894d:	c6 44 24 07 00       	movb   $0x0,0x7(%rsp)
  108952:	eb 0b                	jmp    10895f <_ZN4core3str11unwrap_or_017haa1a63e40f33e503E+0x3f>
  108954:	48 8b 44 24 08       	mov    0x8(%rsp),%rax
  108959:	8a 08                	mov    (%rax),%cl
  10895b:	88 4c 24 07          	mov    %cl,0x7(%rsp)
  10895f:	8a 44 24 07          	mov    0x7(%rsp),%al
  108963:	48 83 c4 20          	add    $0x20,%rsp
  108967:	c3                   	retq   
  108968:	0f 1f 84 00 00 00 00 	nopl   0x0(%rax,%rax,1)
  10896f:	00 

0000000000108970 <_ZN4core3str15next_code_point17h6641a4e763e5bcbeE>:
  108970:	48 83 ec 68          	sub    $0x68,%rsp
  108974:	48 89 7c 24 20       	mov    %rdi,0x20(%rsp)
  108979:	48 8b 7c 24 20       	mov    0x20(%rsp),%rdi
  10897e:	e8 5d f5 ff ff       	callq  107ee0 <_ZN91_$LT$core..slice..Iter$LT$$u27$a$C$$u20$T$GT$$u20$as$u20$core..iter..iterator..Iterator$GT$4next17hb807db09338a51f9E>
  108983:	48 89 44 24 50       	mov    %rax,0x50(%rsp)
  108988:	48 8b 44 24 50       	mov    0x50(%rsp),%rax
  10898d:	48 85 c0             	test   %rax,%rax
  108990:	0f 95 c1             	setne  %cl
  108993:	88 4c 24 1f          	mov    %cl,0x1f(%rsp)
  108997:	75 31                	jne    1089ca <_ZN4core3str15next_code_point17h6641a4e763e5bcbeE+0x5a>
  108999:	eb 00                	jmp    10899b <_ZN4core3str15next_code_point17h6641a4e763e5bcbeE+0x2b>
  10899b:	8a 44 24 1f          	mov    0x1f(%rsp),%al
  10899f:	f6 d0                	not    %al
  1089a1:	a8 01                	test   $0x1,%al
  1089a3:	0f 84 55 01 00 00    	je     108afe <_ZN4core3str15next_code_point17h6641a4e763e5bcbeE+0x18e>
  1089a9:	eb 00                	jmp    1089ab <_ZN4core3str15next_code_point17h6641a4e763e5bcbeE+0x3b>
  1089ab:	c7 44 24 28 00 00 00 	movl   $0x0,0x28(%rsp)
  1089b2:	00 
  1089b3:	eb 43                	jmp    1089f8 <_ZN4core3str15next_code_point17h6641a4e763e5bcbeE+0x88>
  1089b5:	8a 44 24 1e          	mov    0x1e(%rsp),%al
  1089b9:	0f b6 c8             	movzbl %al,%ecx
  1089bc:	c7 44 24 28 01 00 00 	movl   $0x1,0x28(%rsp)
  1089c3:	00 
  1089c4:	89 4c 24 2c          	mov    %ecx,0x2c(%rsp)
  1089c8:	eb 2e                	jmp    1089f8 <_ZN4core3str15next_code_point17h6641a4e763e5bcbeE+0x88>
  1089ca:	48 8b 44 24 50       	mov    0x50(%rsp),%rax
  1089cf:	8a 08                	mov    (%rax),%cl
  1089d1:	80 f9 80             	cmp    $0x80,%cl
  1089d4:	88 4c 24 1e          	mov    %cl,0x1e(%rsp)
  1089d8:	72 db                	jb     1089b5 <_ZN4core3str15next_code_point17h6641a4e763e5bcbeE+0x45>
  1089da:	be 02 00 00 00       	mov    $0x2,%esi
  1089df:	48 8b 44 24 50       	mov    0x50(%rsp),%rax
  1089e4:	8a 08                	mov    (%rax),%cl
  1089e6:	0f b6 f9             	movzbl %cl,%edi
  1089e9:	88 4c 24 1d          	mov    %cl,0x1d(%rsp)
  1089ed:	e8 9e fe ff ff       	callq  108890 <_ZN4core3str15utf8_first_byte17h932f47d5184d8444E>
  1089f2:	89 44 24 18          	mov    %eax,0x18(%rsp)
  1089f6:	eb 0a                	jmp    108a02 <_ZN4core3str15next_code_point17h6641a4e763e5bcbeE+0x92>
  1089f8:	48 8b 44 24 28       	mov    0x28(%rsp),%rax
  1089fd:	48 83 c4 68          	add    $0x68,%rsp
  108a01:	c3                   	retq   
  108a02:	48 8b 7c 24 20       	mov    0x20(%rsp),%rdi
  108a07:	e8 d4 f4 ff ff       	callq  107ee0 <_ZN91_$LT$core..slice..Iter$LT$$u27$a$C$$u20$T$GT$$u20$as$u20$core..iter..iterator..Iterator$GT$4next17hb807db09338a51f9E>
  108a0c:	48 89 44 24 48       	mov    %rax,0x48(%rsp)
  108a11:	48 8b 7c 24 48       	mov    0x48(%rsp),%rdi
  108a16:	e8 05 ff ff ff       	callq  108920 <_ZN4core3str11unwrap_or_017haa1a63e40f33e503E>
  108a1b:	88 44 24 17          	mov    %al,0x17(%rsp)
  108a1f:	8b 7c 24 18          	mov    0x18(%rsp),%edi
  108a23:	8a 44 24 17          	mov    0x17(%rsp),%al
  108a27:	0f b6 f0             	movzbl %al,%esi
  108a2a:	e8 c1 fe ff ff       	callq  1088f0 <_ZN4core3str18utf8_acc_cont_byte17hb5eca5f132d771cfE>
  108a2f:	89 44 24 5c          	mov    %eax,0x5c(%rsp)
  108a33:	8a 44 24 1d          	mov    0x1d(%rsp),%al
  108a37:	3c e0                	cmp    $0xe0,%al
  108a39:	72 11                	jb     108a4c <_ZN4core3str15next_code_point17h6641a4e763e5bcbeE+0xdc>
  108a3b:	48 8b 7c 24 20       	mov    0x20(%rsp),%rdi
  108a40:	e8 9b f4 ff ff       	callq  107ee0 <_ZN91_$LT$core..slice..Iter$LT$$u27$a$C$$u20$T$GT$$u20$as$u20$core..iter..iterator..Iterator$GT$4next17hb807db09338a51f9E>
  108a45:	48 89 44 24 38       	mov    %rax,0x38(%rsp)
  108a4a:	eb 05                	jmp    108a51 <_ZN4core3str15next_code_point17h6641a4e763e5bcbeE+0xe1>
  108a4c:	e9 98 00 00 00       	jmpq   108ae9 <_ZN4core3str15next_code_point17h6641a4e763e5bcbeE+0x179>
  108a51:	48 8b 7c 24 38       	mov    0x38(%rsp),%rdi
  108a56:	e8 c5 fe ff ff       	callq  108920 <_ZN4core3str11unwrap_or_017haa1a63e40f33e503E>
  108a5b:	88 44 24 16          	mov    %al,0x16(%rsp)
  108a5f:	8a 44 24 17          	mov    0x17(%rsp),%al
  108a63:	24 3f                	and    $0x3f,%al
  108a65:	0f b6 f8             	movzbl %al,%edi
  108a68:	8a 44 24 16          	mov    0x16(%rsp),%al
  108a6c:	0f b6 f0             	movzbl %al,%esi
  108a6f:	e8 7c fe ff ff       	callq  1088f0 <_ZN4core3str18utf8_acc_cont_byte17hb5eca5f132d771cfE>
  108a74:	89 44 24 10          	mov    %eax,0x10(%rsp)
  108a78:	8b 44 24 18          	mov    0x18(%rsp),%eax
  108a7c:	c1 e0 0c             	shl    $0xc,%eax
  108a7f:	89 44 24 0c          	mov    %eax,0xc(%rsp)
  108a83:	8b 44 24 0c          	mov    0xc(%rsp),%eax
  108a87:	8b 4c 24 10          	mov    0x10(%rsp),%ecx
  108a8b:	09 c8                	or     %ecx,%eax
  108a8d:	89 44 24 5c          	mov    %eax,0x5c(%rsp)
  108a91:	8a 54 24 1d          	mov    0x1d(%rsp),%dl
  108a95:	80 fa f0             	cmp    $0xf0,%dl
  108a98:	72 11                	jb     108aab <_ZN4core3str15next_code_point17h6641a4e763e5bcbeE+0x13b>
  108a9a:	48 8b 7c 24 20       	mov    0x20(%rsp),%rdi
  108a9f:	e8 3c f4 ff ff       	callq  107ee0 <_ZN91_$LT$core..slice..Iter$LT$$u27$a$C$$u20$T$GT$$u20$as$u20$core..iter..iterator..Iterator$GT$4next17hb807db09338a51f9E>
  108aa4:	48 89 44 24 30       	mov    %rax,0x30(%rsp)
  108aa9:	eb 02                	jmp    108aad <_ZN4core3str15next_code_point17h6641a4e763e5bcbeE+0x13d>
  108aab:	eb 3c                	jmp    108ae9 <_ZN4core3str15next_code_point17h6641a4e763e5bcbeE+0x179>
  108aad:	48 8b 7c 24 30       	mov    0x30(%rsp),%rdi
  108ab2:	e8 69 fe ff ff       	callq  108920 <_ZN4core3str11unwrap_or_017haa1a63e40f33e503E>
  108ab7:	88 44 24 0b          	mov    %al,0xb(%rsp)
  108abb:	8b 44 24 18          	mov    0x18(%rsp),%eax
  108abf:	83 e0 07             	and    $0x7,%eax
  108ac2:	c1 e0 12             	shl    $0x12,%eax
  108ac5:	89 44 24 04          	mov    %eax,0x4(%rsp)
  108ac9:	8b 7c 24 10          	mov    0x10(%rsp),%edi
  108acd:	8a 44 24 0b          	mov    0xb(%rsp),%al
  108ad1:	0f b6 f0             	movzbl %al,%esi
  108ad4:	e8 17 fe ff ff       	callq  1088f0 <_ZN4core3str18utf8_acc_cont_byte17hb5eca5f132d771cfE>
  108ad9:	89 04 24             	mov    %eax,(%rsp)
  108adc:	8b 44 24 04          	mov    0x4(%rsp),%eax
  108ae0:	8b 0c 24             	mov    (%rsp),%ecx
  108ae3:	09 c8                	or     %ecx,%eax
  108ae5:	89 44 24 5c          	mov    %eax,0x5c(%rsp)
  108ae9:	8b 44 24 5c          	mov    0x5c(%rsp),%eax
  108aed:	c7 44 24 28 01 00 00 	movl   $0x1,0x28(%rsp)
  108af4:	00 
  108af5:	89 44 24 2c          	mov    %eax,0x2c(%rsp)
  108af9:	e9 fa fe ff ff       	jmpq   1089f8 <_ZN4core3str15next_code_point17h6641a4e763e5bcbeE+0x88>
  108afe:	66 90                	xchg   %ax,%ax

0000000000108b00 <_ZN81_$LT$core..str..Chars$LT$$u27$a$GT$$u20$as$u20$core..iter..iterator..Iterator$GT$4next17h04abac2c3750e897E>:
  108b00:	48 83 ec 48          	sub    $0x48,%rsp
  108b04:	48 89 7c 24 08       	mov    %rdi,0x8(%rsp)
  108b09:	48 8b 7c 24 08       	mov    0x8(%rsp),%rdi
  108b0e:	e8 5d fe ff ff       	callq  108970 <_ZN4core3str15next_code_point17h6641a4e763e5bcbeE>
  108b13:	48 89 44 24 20       	mov    %rax,0x20(%rsp)
  108b18:	48 8b 44 24 20       	mov    0x20(%rsp),%rax
  108b1d:	48 89 44 24 38       	mov    %rax,0x38(%rsp)
  108b22:	8b 44 24 38          	mov    0x38(%rsp),%eax
  108b26:	8b 4c 24 3c          	mov    0x3c(%rsp),%ecx
  108b2a:	89 4c 24 1c          	mov    %ecx,0x1c(%rsp)
  108b2e:	89 44 24 18          	mov    %eax,0x18(%rsp)
  108b32:	48 8b 7c 24 18       	mov    0x18(%rsp),%rdi
  108b37:	e8 34 dc ff ff       	callq  106770 <_ZN38_$LT$core..option..Option$LT$T$GT$$GT$3map17h48bd0dc66f5412d2E>
  108b3c:	48 89 44 24 10       	mov    %rax,0x10(%rsp)
  108b41:	48 8b 44 24 10       	mov    0x10(%rsp),%rax
  108b46:	48 89 44 24 28       	mov    %rax,0x28(%rsp)
  108b4b:	48 8b 44 24 28       	mov    0x28(%rsp),%rax
  108b50:	48 83 c4 48          	add    $0x48,%rsp
  108b54:	c3                   	retq   
  108b55:	66 2e 0f 1f 84 00 00 	nopw   %cs:0x0(%rax,%rax,1)
  108b5c:	00 00 00 
  108b5f:	90                   	nop

0000000000108b60 <_ZN87_$LT$core..str..CharIndices$LT$$u27$a$GT$$u20$as$u20$core..iter..iterator..Iterator$GT$4next17h394efb26e56d9ed6E>:
  108b60:	48 83 ec 78          	sub    $0x78,%rsp
  108b64:	48 89 f8             	mov    %rdi,%rax
  108b67:	48 89 44 24 50       	mov    %rax,0x50(%rsp)
  108b6c:	48 89 74 24 48       	mov    %rsi,0x48(%rsp)
  108b71:	48 89 7c 24 40       	mov    %rdi,0x40(%rsp)
  108b76:	48 8b 44 24 48       	mov    0x48(%rsp),%rax
  108b7b:	48 83 c0 08          	add    $0x8,%rax
  108b7f:	48 89 c7             	mov    %rax,%rdi
  108b82:	e8 59 d4 ff ff       	callq  105fe0 <_ZN4core4iter6traits17ExactSizeIterator3len17h65c31b9f77e81f08E>
  108b87:	48 89 44 24 38       	mov    %rax,0x38(%rsp)
  108b8c:	48 8b 44 24 48       	mov    0x48(%rsp),%rax
  108b91:	48 83 c0 08          	add    $0x8,%rax
  108b95:	48 89 c7             	mov    %rax,%rdi
  108b98:	e8 63 ff ff ff       	callq  108b00 <_ZN81_$LT$core..str..Chars$LT$$u27$a$GT$$u20$as$u20$core..iter..iterator..Iterator$GT$4next17h04abac2c3750e897E>
  108b9d:	48 89 44 24 58       	mov    %rax,0x58(%rsp)
  108ba2:	48 8b 44 24 58       	mov    0x58(%rsp),%rax
  108ba7:	48 89 44 24 70       	mov    %rax,0x70(%rsp)
  108bac:	8b 44 24 70          	mov    0x70(%rsp),%eax
  108bb0:	85 c0                	test   %eax,%eax
  108bb2:	89 44 24 34          	mov    %eax,0x34(%rsp)
  108bb6:	74 14                	je     108bcc <_ZN87_$LT$core..str..CharIndices$LT$$u27$a$GT$$u20$as$u20$core..iter..iterator..Iterator$GT$4next17h394efb26e56d9ed6E+0x6c>
  108bb8:	eb 00                	jmp    108bba <_ZN87_$LT$core..str..CharIndices$LT$$u27$a$GT$$u20$as$u20$core..iter..iterator..Iterator$GT$4next17h394efb26e56d9ed6E+0x5a>
  108bba:	8b 44 24 34          	mov    0x34(%rsp),%eax
  108bbe:	83 e8 01             	sub    $0x1,%eax
  108bc1:	89 44 24 30          	mov    %eax,0x30(%rsp)
  108bc5:	74 16                	je     108bdd <_ZN87_$LT$core..str..CharIndices$LT$$u27$a$GT$$u20$as$u20$core..iter..iterator..Iterator$GT$4next17h394efb26e56d9ed6E+0x7d>
  108bc7:	e9 b2 00 00 00       	jmpq   108c7e <_ZN87_$LT$core..str..CharIndices$LT$$u27$a$GT$$u20$as$u20$core..iter..iterator..Iterator$GT$4next17h394efb26e56d9ed6E+0x11e>
  108bcc:	48 8b 44 24 40       	mov    0x40(%rsp),%rax
  108bd1:	48 c7 00 00 00 00 00 	movq   $0x0,(%rax)
  108bd8:	e9 97 00 00 00       	jmpq   108c74 <_ZN87_$LT$core..str..CharIndices$LT$$u27$a$GT$$u20$as$u20$core..iter..iterator..Iterator$GT$4next17h394efb26e56d9ed6E+0x114>
  108bdd:	8b 44 24 74          	mov    0x74(%rsp),%eax
  108be1:	48 8b 4c 24 48       	mov    0x48(%rsp),%rcx
  108be6:	48 8b 11             	mov    (%rcx),%rdx
  108be9:	48 83 c1 08          	add    $0x8,%rcx
  108bed:	48 89 cf             	mov    %rcx,%rdi
  108bf0:	89 44 24 2c          	mov    %eax,0x2c(%rsp)
  108bf4:	48 89 54 24 20       	mov    %rdx,0x20(%rsp)
  108bf9:	e8 e2 d3 ff ff       	callq  105fe0 <_ZN4core4iter6traits17ExactSizeIterator3len17h65c31b9f77e81f08E>
  108bfe:	48 89 44 24 18       	mov    %rax,0x18(%rsp)
  108c03:	48 8b 44 24 38       	mov    0x38(%rsp),%rax
  108c08:	48 8b 4c 24 18       	mov    0x18(%rsp),%rcx
  108c0d:	48 29 c8             	sub    %rcx,%rax
  108c10:	0f 92 c2             	setb   %dl
  108c13:	f6 c2 01             	test   $0x1,%dl
  108c16:	48 89 44 24 10       	mov    %rax,0x10(%rsp)
  108c1b:	75 61                	jne    108c7e <_ZN87_$LT$core..str..CharIndices$LT$$u27$a$GT$$u20$as$u20$core..iter..iterator..Iterator$GT$4next17h394efb26e56d9ed6E+0x11e>
  108c1d:	48 8b 44 24 10       	mov    0x10(%rsp),%rax
  108c22:	48 8b 4c 24 48       	mov    0x48(%rsp),%rcx
  108c27:	48 03 01             	add    (%rcx),%rax
  108c2a:	0f 92 c2             	setb   %dl
  108c2d:	f6 c2 01             	test   $0x1,%dl
  108c30:	48 89 44 24 08       	mov    %rax,0x8(%rsp)
  108c35:	75 53                	jne    108c8a <_ZN87_$LT$core..str..CharIndices$LT$$u27$a$GT$$u20$as$u20$core..iter..iterator..Iterator$GT$4next17h394efb26e56d9ed6E+0x12a>
  108c37:	48 8b 44 24 48       	mov    0x48(%rsp),%rax
  108c3c:	48 8b 4c 24 08       	mov    0x8(%rsp),%rcx
  108c41:	48 89 08             	mov    %rcx,(%rax)
  108c44:	48 8b 54 24 20       	mov    0x20(%rsp),%rdx
  108c49:	48 89 54 24 60       	mov    %rdx,0x60(%rsp)
  108c4e:	8b 74 24 2c          	mov    0x2c(%rsp),%esi
  108c52:	89 74 24 68          	mov    %esi,0x68(%rsp)
  108c56:	48 8b 7c 24 40       	mov    0x40(%rsp),%rdi
  108c5b:	48 c7 07 01 00 00 00 	movq   $0x1,(%rdi)
  108c62:	4c 8b 44 24 60       	mov    0x60(%rsp),%r8
  108c67:	44 8b 4c 24 68       	mov    0x68(%rsp),%r9d
  108c6c:	4c 89 47 08          	mov    %r8,0x8(%rdi)
  108c70:	44 89 4f 10          	mov    %r9d,0x10(%rdi)
  108c74:	48 8b 44 24 50       	mov    0x50(%rsp),%rax
  108c79:	48 83 c4 78          	add    $0x78,%rsp
  108c7d:	c3                   	retq   
  108c7e:	48 8d 3d a3 7c 00 00 	lea    0x7ca3(%rip),%rdi        # 110928 <panic_loc14623>
  108c85:	e8 06 c8 ff ff       	callq  105490 <_ZN4core9panicking5panic17h585bd70cda921012E>
  108c8a:	48 8d 3d bf 7c 00 00 	lea    0x7cbf(%rip),%rdi        # 110950 <panic_loc14624>
  108c91:	e8 fa c7 ff ff       	callq  105490 <_ZN4core9panicking5panic17h585bd70cda921012E>
  108c96:	66 2e 0f 1f 84 00 00 	nopw   %cs:0x0(%rax,%rax,1)
  108c9d:	00 00 00 

0000000000108ca0 <_ZN4core3str6traits89_$LT$impl$u20$core..ops..Index$LT$core..ops..RangeTo$LT$usize$GT$$GT$$u20$for$u20$str$GT$5index17h7349beb06180649aE>:
  108ca0:	48 83 ec 58          	sub    $0x58,%rsp
  108ca4:	48 89 54 24 38       	mov    %rdx,0x38(%rsp)
  108ca9:	48 8b 54 24 38       	mov    0x38(%rsp),%rdx
  108cae:	48 89 54 24 40       	mov    %rdx,0x40(%rsp)
  108cb3:	48 89 74 24 28       	mov    %rsi,0x28(%rsp)
  108cb8:	48 89 7c 24 20       	mov    %rdi,0x20(%rsp)
  108cbd:	48 8b 44 24 40       	mov    0x40(%rsp),%rax
  108cc2:	48 89 44 24 30       	mov    %rax,0x30(%rsp)
  108cc7:	48 8b 54 24 30       	mov    0x30(%rsp),%rdx
  108ccc:	48 8b 7c 24 20       	mov    0x20(%rsp),%rdi
  108cd1:	48 8b 74 24 28       	mov    0x28(%rsp),%rsi
  108cd6:	e8 25 09 00 00       	callq  109600 <_ZN41_$LT$str$u20$as$u20$core..str..StrExt$GT$16is_char_boundary17h0759a8c26316cf32E>
  108cdb:	88 44 24 1f          	mov    %al,0x1f(%rsp)
  108cdf:	8a 44 24 1f          	mov    0x1f(%rsp),%al
  108ce3:	a8 01                	test   $0x1,%al
  108ce5:	75 02                	jne    108ce9 <_ZN4core3str6traits89_$LT$impl$u20$core..ops..Index$LT$core..ops..RangeTo$LT$usize$GT$$GT$$u20$for$u20$str$GT$5index17h7349beb06180649aE+0x49>
  108ce7:	eb 24                	jmp    108d0d <_ZN4core3str6traits89_$LT$impl$u20$core..ops..Index$LT$core..ops..RangeTo$LT$usize$GT$$GT$$u20$for$u20$str$GT$5index17h7349beb06180649aE+0x6d>
  108ce9:	31 c0                	xor    %eax,%eax
  108ceb:	89 c2                	mov    %eax,%edx
  108ced:	48 8b 4c 24 30       	mov    0x30(%rsp),%rcx
  108cf2:	48 8b 7c 24 20       	mov    0x20(%rsp),%rdi
  108cf7:	48 8b 74 24 28       	mov    0x28(%rsp),%rsi
  108cfc:	e8 4f 08 00 00       	callq  109550 <_ZN41_$LT$str$u20$as$u20$core..str..StrExt$GT$15slice_unchecked17h4bb23d465ce44db9E>
  108d01:	48 89 44 24 10       	mov    %rax,0x10(%rsp)
  108d06:	48 89 54 24 08       	mov    %rdx,0x8(%rsp)
  108d0b:	eb 18                	jmp    108d25 <_ZN4core3str6traits89_$LT$impl$u20$core..ops..Index$LT$core..ops..RangeTo$LT$usize$GT$$GT$$u20$for$u20$str$GT$5index17h7349beb06180649aE+0x85>
  108d0d:	31 c0                	xor    %eax,%eax
  108d0f:	89 c2                	mov    %eax,%edx
  108d11:	48 8b 4c 24 30       	mov    0x30(%rsp),%rcx
  108d16:	48 8b 7c 24 20       	mov    0x20(%rsp),%rdi
  108d1b:	48 8b 74 24 28       	mov    0x28(%rsp),%rsi
  108d20:	e8 3b 02 00 00       	callq  108f60 <_ZN4core3str16slice_error_fail17h846cd9a1bcde3a45E>
  108d25:	48 8b 44 24 10       	mov    0x10(%rsp),%rax
  108d2a:	48 8b 54 24 08       	mov    0x8(%rsp),%rdx
  108d2f:	48 83 c4 58          	add    $0x58,%rsp
  108d33:	c3                   	retq   
  108d34:	66 2e 0f 1f 84 00 00 	nopw   %cs:0x0(%rax,%rax,1)
  108d3b:	00 00 00 
  108d3e:	66 90                	xchg   %ax,%ax

0000000000108d40 <_ZN4core3str6traits91_$LT$impl$u20$core..ops..Index$LT$core..ops..RangeFrom$LT$usize$GT$$GT$$u20$for$u20$str$GT$5index17h3ae3e889dddd2dbbE>:
  108d40:	48 83 ec 78          	sub    $0x78,%rsp
  108d44:	48 89 54 24 58       	mov    %rdx,0x58(%rsp)
  108d49:	48 8b 54 24 58       	mov    0x58(%rsp),%rdx
  108d4e:	48 89 54 24 60       	mov    %rdx,0x60(%rsp)
  108d53:	48 89 74 24 48       	mov    %rsi,0x48(%rsp)
  108d58:	48 89 7c 24 40       	mov    %rdi,0x40(%rsp)
  108d5d:	48 8b 44 24 60       	mov    0x60(%rsp),%rax
  108d62:	48 89 44 24 50       	mov    %rax,0x50(%rsp)
  108d67:	48 8b 54 24 50       	mov    0x50(%rsp),%rdx
  108d6c:	48 8b 7c 24 40       	mov    0x40(%rsp),%rdi
  108d71:	48 8b 74 24 48       	mov    0x48(%rsp),%rsi
  108d76:	e8 85 08 00 00       	callq  109600 <_ZN41_$LT$str$u20$as$u20$core..str..StrExt$GT$16is_char_boundary17h0759a8c26316cf32E>
  108d7b:	88 44 24 3f          	mov    %al,0x3f(%rsp)
  108d7f:	8a 44 24 3f          	mov    0x3f(%rsp),%al
  108d83:	a8 01                	test   $0x1,%al
  108d85:	75 02                	jne    108d89 <_ZN4core3str6traits91_$LT$impl$u20$core..ops..Index$LT$core..ops..RangeFrom$LT$usize$GT$$GT$$u20$for$u20$str$GT$5index17h3ae3e889dddd2dbbE+0x49>
  108d87:	eb 20                	jmp    108da9 <_ZN4core3str6traits91_$LT$impl$u20$core..ops..Index$LT$core..ops..RangeFrom$LT$usize$GT$$GT$$u20$for$u20$str$GT$5index17h3ae3e889dddd2dbbE+0x69>
  108d89:	48 8b 54 24 50       	mov    0x50(%rsp),%rdx
  108d8e:	48 8b 7c 24 40       	mov    0x40(%rsp),%rdi
  108d93:	48 8b 74 24 48       	mov    0x48(%rsp),%rsi
  108d98:	48 89 54 24 30       	mov    %rdx,0x30(%rsp)
  108d9d:	e8 1e 0a 00 00       	callq  1097c0 <_ZN41_$LT$str$u20$as$u20$core..str..StrExt$GT$3len17h84c1f589e95b2d96E>
  108da2:	48 89 44 24 28       	mov    %rax,0x28(%rsp)
  108da7:	eb 20                	jmp    108dc9 <_ZN4core3str6traits91_$LT$impl$u20$core..ops..Index$LT$core..ops..RangeFrom$LT$usize$GT$$GT$$u20$for$u20$str$GT$5index17h3ae3e889dddd2dbbE+0x89>
  108da9:	48 8b 54 24 50       	mov    0x50(%rsp),%rdx
  108dae:	48 8b 7c 24 40       	mov    0x40(%rsp),%rdi
  108db3:	48 8b 74 24 48       	mov    0x48(%rsp),%rsi
  108db8:	48 89 54 24 20       	mov    %rdx,0x20(%rsp)
  108dbd:	e8 fe 09 00 00       	callq  1097c0 <_ZN41_$LT$str$u20$as$u20$core..str..StrExt$GT$3len17h84c1f589e95b2d96E>
  108dc2:	48 89 44 24 18       	mov    %rax,0x18(%rsp)
  108dc7:	eb 32                	jmp    108dfb <_ZN4core3str6traits91_$LT$impl$u20$core..ops..Index$LT$core..ops..RangeFrom$LT$usize$GT$$GT$$u20$for$u20$str$GT$5index17h3ae3e889dddd2dbbE+0xbb>
  108dc9:	48 8b 7c 24 40       	mov    0x40(%rsp),%rdi
  108dce:	48 8b 74 24 48       	mov    0x48(%rsp),%rsi
  108dd3:	48 8b 54 24 30       	mov    0x30(%rsp),%rdx
  108dd8:	48 8b 4c 24 28       	mov    0x28(%rsp),%rcx
  108ddd:	e8 6e 07 00 00       	callq  109550 <_ZN41_$LT$str$u20$as$u20$core..str..StrExt$GT$15slice_unchecked17h4bb23d465ce44db9E>
  108de2:	48 89 44 24 10       	mov    %rax,0x10(%rsp)
  108de7:	48 89 54 24 08       	mov    %rdx,0x8(%rsp)
  108dec:	48 8b 44 24 10       	mov    0x10(%rsp),%rax
  108df1:	48 8b 54 24 08       	mov    0x8(%rsp),%rdx
  108df6:	48 83 c4 78          	add    $0x78,%rsp
  108dfa:	c3                   	retq   
  108dfb:	48 8b 7c 24 40       	mov    0x40(%rsp),%rdi
  108e00:	48 8b 74 24 48       	mov    0x48(%rsp),%rsi
  108e05:	48 8b 54 24 20       	mov    0x20(%rsp),%rdx
  108e0a:	48 8b 4c 24 18       	mov    0x18(%rsp),%rcx
  108e0f:	e8 4c 01 00 00       	callq  108f60 <_ZN4core3str16slice_error_fail17h846cd9a1bcde3a45E>
  108e14:	66 2e 0f 1f 84 00 00 	nopw   %cs:0x0(%rax,%rax,1)
  108e1b:	00 00 00 
  108e1e:	66 90                	xchg   %ax,%ax

0000000000108e20 <_ZN4core3str25truncate_to_char_boundary17h1c97786273128315E>:
  108e20:	48 81 ec 88 00 00 00 	sub    $0x88,%rsp
  108e27:	48 89 f8             	mov    %rdi,%rax
  108e2a:	48 89 44 24 58       	mov    %rax,0x58(%rsp)
  108e2f:	48 89 4c 24 50       	mov    %rcx,0x50(%rsp)
  108e34:	48 89 54 24 48       	mov    %rdx,0x48(%rsp)
  108e39:	48 89 74 24 40       	mov    %rsi,0x40(%rsp)
  108e3e:	48 89 7c 24 38       	mov    %rdi,0x38(%rsp)
  108e43:	48 8b 44 24 50       	mov    0x50(%rsp),%rax
  108e48:	48 89 84 24 80 00 00 	mov    %rax,0x80(%rsp)
  108e4f:	00 
  108e50:	48 8b 8c 24 80 00 00 	mov    0x80(%rsp),%rcx
  108e57:	00 
  108e58:	48 8b 7c 24 40       	mov    0x40(%rsp),%rdi
  108e5d:	48 8b 74 24 48       	mov    0x48(%rsp),%rsi
  108e62:	48 89 4c 24 30       	mov    %rcx,0x30(%rsp)
  108e67:	e8 54 09 00 00       	callq  1097c0 <_ZN41_$LT$str$u20$as$u20$core..str..StrExt$GT$3len17h84c1f589e95b2d96E>
  108e6c:	48 89 44 24 28       	mov    %rax,0x28(%rsp)
  108e71:	48 8b 44 24 30       	mov    0x30(%rsp),%rax
  108e76:	48 8b 4c 24 28       	mov    0x28(%rsp),%rcx
  108e7b:	48 39 c8             	cmp    %rcx,%rax
  108e7e:	72 1f                	jb     108e9f <_ZN4core3str25truncate_to_char_boundary17h1c97786273128315E+0x7f>
  108e80:	48 8b 44 24 38       	mov    0x38(%rsp),%rax
  108e85:	c6 00 00             	movb   $0x0,(%rax)
  108e88:	48 8b 4c 24 40       	mov    0x40(%rsp),%rcx
  108e8d:	48 89 48 08          	mov    %rcx,0x8(%rax)
  108e91:	48 8b 54 24 48       	mov    0x48(%rsp),%rdx
  108e96:	48 89 50 10          	mov    %rdx,0x10(%rax)
  108e9a:	e9 a0 00 00 00       	jmpq   108f3f <_ZN4core3str25truncate_to_char_boundary17h1c97786273128315E+0x11f>
  108e9f:	48 8b 94 24 80 00 00 	mov    0x80(%rsp),%rdx
  108ea6:	00 
  108ea7:	48 8b 7c 24 40       	mov    0x40(%rsp),%rdi
  108eac:	48 8b 74 24 48       	mov    0x48(%rsp),%rsi
  108eb1:	e8 4a 07 00 00       	callq  109600 <_ZN41_$LT$str$u20$as$u20$core..str..StrExt$GT$16is_char_boundary17h0759a8c26316cf32E>
  108eb6:	88 44 24 27          	mov    %al,0x27(%rsp)
  108eba:	eb 32                	jmp    108eee <_ZN4core3str25truncate_to_char_boundary17h1c97786273128315E+0xce>
  108ebc:	48 8b 84 24 80 00 00 	mov    0x80(%rsp),%rax
  108ec3:	00 
  108ec4:	48 89 44 24 68       	mov    %rax,0x68(%rsp)
  108ec9:	48 89 44 24 60       	mov    %rax,0x60(%rsp)
  108ece:	48 8b 54 24 60       	mov    0x60(%rsp),%rdx
  108ed3:	48 8b 7c 24 40       	mov    0x40(%rsp),%rdi
  108ed8:	48 8b 74 24 48       	mov    0x48(%rsp),%rsi
  108edd:	e8 be fd ff ff       	callq  108ca0 <_ZN4core3str6traits89_$LT$impl$u20$core..ops..Index$LT$core..ops..RangeTo$LT$usize$GT$$GT$$u20$for$u20$str$GT$5index17h7349beb06180649aE>
  108ee2:	48 89 44 24 18       	mov    %rax,0x18(%rsp)
  108ee7:	48 89 54 24 10       	mov    %rdx,0x10(%rsp)
  108eec:	eb 37                	jmp    108f25 <_ZN4core3str25truncate_to_char_boundary17h1c97786273128315E+0x105>
  108eee:	8a 44 24 27          	mov    0x27(%rsp),%al
  108ef2:	34 ff                	xor    $0xff,%al
  108ef4:	a8 01                	test   $0x1,%al
  108ef6:	75 02                	jne    108efa <_ZN4core3str25truncate_to_char_boundary17h1c97786273128315E+0xda>
  108ef8:	eb c2                	jmp    108ebc <_ZN4core3str25truncate_to_char_boundary17h1c97786273128315E+0x9c>
  108efa:	48 8b 84 24 80 00 00 	mov    0x80(%rsp),%rax
  108f01:	00 
  108f02:	48 83 e8 01          	sub    $0x1,%rax
  108f06:	0f 92 c1             	setb   %cl
  108f09:	f6 c1 01             	test   $0x1,%cl
  108f0c:	48 89 44 24 08       	mov    %rax,0x8(%rsp)
  108f11:	75 39                	jne    108f4c <_ZN4core3str25truncate_to_char_boundary17h1c97786273128315E+0x12c>
  108f13:	48 8b 44 24 08       	mov    0x8(%rsp),%rax
  108f18:	48 89 84 24 80 00 00 	mov    %rax,0x80(%rsp)
  108f1f:	00 
  108f20:	e9 7a ff ff ff       	jmpq   108e9f <_ZN4core3str25truncate_to_char_boundary17h1c97786273128315E+0x7f>
  108f25:	48 8b 44 24 38       	mov    0x38(%rsp),%rax
  108f2a:	c6 00 01             	movb   $0x1,(%rax)
  108f2d:	48 8b 4c 24 18       	mov    0x18(%rsp),%rcx
  108f32:	48 89 48 08          	mov    %rcx,0x8(%rax)
  108f36:	48 8b 54 24 10       	mov    0x10(%rsp),%rdx
  108f3b:	48 89 50 10          	mov    %rdx,0x10(%rax)
  108f3f:	48 8b 44 24 58       	mov    0x58(%rsp),%rax
  108f44:	48 81 c4 88 00 00 00 	add    $0x88,%rsp
  108f4b:	c3                   	retq   
  108f4c:	48 8d 3d 25 7a 00 00 	lea    0x7a25(%rip),%rdi        # 110978 <panic_loc14659>
  108f53:	e8 38 c5 ff ff       	callq  105490 <_ZN4core9panicking5panic17h585bd70cda921012E>
  108f58:	0f 1f 84 00 00 00 00 	nopl   0x0(%rax,%rax,1)
  108f5f:	00 

0000000000108f60 <_ZN4core3str16slice_error_fail17h846cd9a1bcde3a45E>:
  108f60:	41 57                	push   %r15
  108f62:	41 56                	push   %r14
  108f64:	53                   	push   %rbx
  108f65:	48 81 ec e0 02 00 00 	sub    $0x2e0,%rsp
  108f6c:	48 89 94 24 e8 00 00 	mov    %rdx,0xe8(%rsp)
  108f73:	00 
  108f74:	48 89 b4 24 e0 00 00 	mov    %rsi,0xe0(%rsp)
  108f7b:	00 
  108f7c:	48 89 bc 24 d8 00 00 	mov    %rdi,0xd8(%rsp)
  108f83:	00 
  108f84:	48 89 8c 24 d0 00 00 	mov    %rcx,0xd0(%rsp)
  108f8b:	00 
  108f8c:	48 8d bc 24 98 02 00 	lea    0x298(%rsp),%rdi
  108f93:	00 
  108f94:	b8 00 01 00 00       	mov    $0x100,%eax
  108f99:	89 c1                	mov    %eax,%ecx
  108f9b:	48 8b 94 24 e8 00 00 	mov    0xe8(%rsp),%rdx
  108fa2:	00 
  108fa3:	48 89 94 24 d8 02 00 	mov    %rdx,0x2d8(%rsp)
  108faa:	00 
  108fab:	48 8b b4 24 d0 00 00 	mov    0xd0(%rsp),%rsi
  108fb2:	00 
  108fb3:	48 89 b4 24 d0 02 00 	mov    %rsi,0x2d0(%rsp)
  108fba:	00 
  108fbb:	48 8b b4 24 d8 00 00 	mov    0xd8(%rsp),%rsi
  108fc2:	00 
  108fc3:	48 8b 94 24 e0 00 00 	mov    0xe0(%rsp),%rdx
  108fca:	00 
  108fcb:	e8 50 fe ff ff       	callq  108e20 <_ZN4core3str25truncate_to_char_boundary17h1c97786273128315E>
  108fd0:	8a 84 24 98 02 00 00 	mov    0x298(%rsp),%al
  108fd7:	48 8b 8c 24 a0 02 00 	mov    0x2a0(%rsp),%rcx
  108fde:	00 
  108fdf:	48 8b 94 24 a8 02 00 	mov    0x2a8(%rsp),%rdx
  108fe6:	00 
  108fe7:	48 89 8c 24 c0 02 00 	mov    %rcx,0x2c0(%rsp)
  108fee:	00 
  108fef:	48 89 94 24 c8 02 00 	mov    %rdx,0x2c8(%rsp)
  108ff6:	00 
  108ff7:	a8 01                	test   $0x1,%al
  108ff9:	74 1d                	je     109018 <_ZN4core3str16slice_error_fail17h846cd9a1bcde3a45E+0xb8>
  108ffb:	48 8d 05 59 6c 00 00 	lea    0x6c59(%rip),%rax        # 10fc5b <str14660>
  109002:	48 89 84 24 b0 02 00 	mov    %rax,0x2b0(%rsp)
  109009:	00 
  10900a:	48 c7 84 24 b8 02 00 	movq   $0x5,0x2b8(%rsp)
  109011:	00 05 00 00 00 
  109016:	eb 1b                	jmp    109033 <_ZN4core3str16slice_error_fail17h846cd9a1bcde3a45E+0xd3>
  109018:	48 8d 05 7a 68 00 00 	lea    0x687a(%rip),%rax        # 10f899 <ref14129>
  10901f:	48 89 84 24 b0 02 00 	mov    %rax,0x2b0(%rsp)
  109026:	00 
  109027:	48 c7 84 24 b8 02 00 	movq   $0x0,0x2b8(%rsp)
  10902e:	00 00 00 00 00 
  109033:	48 8b 84 24 d8 02 00 	mov    0x2d8(%rsp),%rax
  10903a:	00 
  10903b:	48 3b 84 24 d0 02 00 	cmp    0x2d0(%rsp),%rax
  109042:	00 
  109043:	0f 96 c1             	setbe  %cl
  109046:	80 f1 ff             	xor    $0xff,%cl
  109049:	f6 c1 01             	test   $0x1,%cl
  10904c:	75 05                	jne    109053 <_ZN4core3str16slice_error_fail17h846cd9a1bcde3a45E+0xf3>
  10904e:	e9 cf 00 00 00       	jmpq   109122 <_ZN4core3str16slice_error_fail17h846cd9a1bcde3a45E+0x1c2>
  109053:	48 8d bc 24 20 01 00 	lea    0x120(%rsp),%rdi
  10905a:	00 
  10905b:	48 8d 15 fe 1d 00 00 	lea    0x1dfe(%rip),%rdx        # 10ae60 <_ZN4core3fmt3num54_$LT$impl$u20$core..fmt..Display$u20$for$u20$usize$GT$3fmt17h163484b597e27a9bE>
  109062:	48 8d 84 24 b0 02 00 	lea    0x2b0(%rsp),%rax
  109069:	00 
  10906a:	48 8d 8c 24 c0 02 00 	lea    0x2c0(%rsp),%rcx
  109071:	00 
  109072:	48 8d b4 24 d0 02 00 	lea    0x2d0(%rsp),%rsi
  109079:	00 
  10907a:	4c 8d 84 24 d8 02 00 	lea    0x2d8(%rsp),%r8
  109081:	00 
  109082:	4c 8b 0d 2f 75 00 00 	mov    0x752f(%rip),%r9        # 1105b8 <_ZN4core5slice74_$LT$impl$u20$core..ops..IndexMut$LT$usize$GT$$u20$for$u20$$u5b$T$u5d$$GT$9index_mut14_MSG_FILE_LINE17hdc6d73d2b1d0e93cE+0x90>
  109089:	4c 8b 15 30 75 00 00 	mov    0x7530(%rip),%r10        # 1105c0 <_ZN4core5slice74_$LT$impl$u20$core..ops..IndexMut$LT$usize$GT$$u20$for$u20$$u5b$T$u5d$$GT$9index_mut14_MSG_FILE_LINE17hdc6d73d2b1d0e93cE+0x98>
  109090:	4c 89 84 24 00 02 00 	mov    %r8,0x200(%rsp)
  109097:	00 
  109098:	48 89 b4 24 08 02 00 	mov    %rsi,0x208(%rsp)
  10909f:	00 
  1090a0:	48 89 8c 24 10 02 00 	mov    %rcx,0x210(%rsp)
  1090a7:	00 
  1090a8:	48 89 84 24 18 02 00 	mov    %rax,0x218(%rsp)
  1090af:	00 
  1090b0:	48 8b b4 24 00 02 00 	mov    0x200(%rsp),%rsi
  1090b7:	00 
  1090b8:	48 8b 84 24 08 02 00 	mov    0x208(%rsp),%rax
  1090bf:	00 
  1090c0:	48 8b 8c 24 10 02 00 	mov    0x210(%rsp),%rcx
  1090c7:	00 
  1090c8:	4c 8b 84 24 18 02 00 	mov    0x218(%rsp),%r8
  1090cf:	00 
  1090d0:	4c 89 84 24 c8 00 00 	mov    %r8,0xc8(%rsp)
  1090d7:	00 
  1090d8:	48 89 84 24 c0 00 00 	mov    %rax,0xc0(%rsp)
  1090df:	00 
  1090e0:	4c 89 8c 24 b8 00 00 	mov    %r9,0xb8(%rsp)
  1090e7:	00 
  1090e8:	4c 89 94 24 b0 00 00 	mov    %r10,0xb0(%rsp)
  1090ef:	00 
  1090f0:	48 89 8c 24 a8 00 00 	mov    %rcx,0xa8(%rsp)
  1090f7:	00 
  1090f8:	e8 f3 2d 00 00       	callq  10bef0 <_ZN4core3fmt10ArgumentV13new17h917fc33d290e20e0E>
  1090fd:	48 8b 84 24 20 01 00 	mov    0x120(%rsp),%rax
  109104:	00 
  109105:	48 8b 8c 24 28 01 00 	mov    0x128(%rsp),%rcx
  10910c:	00 
  10910d:	48 89 84 24 a0 00 00 	mov    %rax,0xa0(%rsp)
  109114:	00 
  109115:	48 89 8c 24 98 00 00 	mov    %rcx,0x98(%rsp)
  10911c:	00 
  10911d:	e9 c3 00 00 00       	jmpq   1091e5 <_ZN4core3str16slice_error_fail17h846cd9a1bcde3a45E+0x285>
  109122:	48 8d bc 24 60 01 00 	lea    0x160(%rsp),%rdi
  109129:	00 
  10912a:	48 8d 15 2f 1d 00 00 	lea    0x1d2f(%rip),%rdx        # 10ae60 <_ZN4core3fmt3num54_$LT$impl$u20$core..fmt..Display$u20$for$u20$usize$GT$3fmt17h163484b597e27a9bE>
  109131:	48 8d 84 24 b0 02 00 	lea    0x2b0(%rsp),%rax
  109138:	00 
  109139:	48 8d 8c 24 c0 02 00 	lea    0x2c0(%rsp),%rcx
  109140:	00 
  109141:	48 8d b4 24 d0 02 00 	lea    0x2d0(%rsp),%rsi
  109148:	00 
  109149:	4c 8d 84 24 d8 02 00 	lea    0x2d8(%rsp),%r8
  109150:	00 
  109151:	4c 8b 0d 88 74 00 00 	mov    0x7488(%rip),%r9        # 1105e0 <_ZN4core5slice74_$LT$impl$u20$core..ops..IndexMut$LT$usize$GT$$u20$for$u20$$u5b$T$u5d$$GT$9index_mut14_MSG_FILE_LINE17hdc6d73d2b1d0e93cE+0xb8>
  109158:	4c 8b 15 89 74 00 00 	mov    0x7489(%rip),%r10        # 1105e8 <_ZN4core5slice74_$LT$impl$u20$core..ops..IndexMut$LT$usize$GT$$u20$for$u20$$u5b$T$u5d$$GT$9index_mut14_MSG_FILE_LINE17hdc6d73d2b1d0e93cE+0xc0>
  10915f:	4c 89 84 24 70 01 00 	mov    %r8,0x170(%rsp)
  109166:	00 
  109167:	48 89 b4 24 78 01 00 	mov    %rsi,0x178(%rsp)
  10916e:	00 
  10916f:	48 89 8c 24 80 01 00 	mov    %rcx,0x180(%rsp)
  109176:	00 
  109177:	48 89 84 24 88 01 00 	mov    %rax,0x188(%rsp)
  10917e:	00 
  10917f:	48 8b b4 24 70 01 00 	mov    0x170(%rsp),%rsi
  109186:	00 
  109187:	48 8b 84 24 78 01 00 	mov    0x178(%rsp),%rax
  10918e:	00 
  10918f:	48 8b 8c 24 80 01 00 	mov    0x180(%rsp),%rcx
  109196:	00 
  109197:	4c 8b 84 24 88 01 00 	mov    0x188(%rsp),%r8
  10919e:	00 
  10919f:	4c 89 84 24 90 00 00 	mov    %r8,0x90(%rsp)
  1091a6:	00 
  1091a7:	48 89 84 24 88 00 00 	mov    %rax,0x88(%rsp)
  1091ae:	00 
  1091af:	4c 89 8c 24 80 00 00 	mov    %r9,0x80(%rsp)
  1091b6:	00 
  1091b7:	4c 89 54 24 78       	mov    %r10,0x78(%rsp)
  1091bc:	48 89 4c 24 70       	mov    %rcx,0x70(%rsp)
  1091c1:	e8 2a 2d 00 00       	callq  10bef0 <_ZN4core3fmt10ArgumentV13new17h917fc33d290e20e0E>
  1091c6:	48 8b 84 24 60 01 00 	mov    0x160(%rsp),%rax
  1091cd:	00 
  1091ce:	48 8b 8c 24 68 01 00 	mov    0x168(%rsp),%rcx
  1091d5:	00 
  1091d6:	48 89 44 24 68       	mov    %rax,0x68(%rsp)
  1091db:	48 89 4c 24 60       	mov    %rcx,0x60(%rsp)
  1091e0:	e9 51 01 00 00       	jmpq   109336 <_ZN4core3str16slice_error_fail17h846cd9a1bcde3a45E+0x3d6>
  1091e5:	48 8d bc 24 10 01 00 	lea    0x110(%rsp),%rdi
  1091ec:	00 
  1091ed:	48 8d 15 6c 1c 00 00 	lea    0x1c6c(%rip),%rdx        # 10ae60 <_ZN4core3fmt3num54_$LT$impl$u20$core..fmt..Display$u20$for$u20$usize$GT$3fmt17h163484b597e27a9bE>
  1091f4:	48 8b b4 24 c0 00 00 	mov    0xc0(%rsp),%rsi
  1091fb:	00 
  1091fc:	e8 ef 2c 00 00       	callq  10bef0 <_ZN4core3fmt10ArgumentV13new17h917fc33d290e20e0E>
  109201:	48 8b 94 24 10 01 00 	mov    0x110(%rsp),%rdx
  109208:	00 
  109209:	48 8b b4 24 18 01 00 	mov    0x118(%rsp),%rsi
  109210:	00 
  109211:	48 89 54 24 58       	mov    %rdx,0x58(%rsp)
  109216:	48 89 74 24 50       	mov    %rsi,0x50(%rsp)
  10921b:	48 8d bc 24 00 01 00 	lea    0x100(%rsp),%rdi
  109222:	00 
  109223:	48 8d 15 26 55 00 00 	lea    0x5526(%rip),%rdx        # 10e750 <_ZN55_$LT$$RF$$u27$a$u20$T$u20$as$u20$core..fmt..Display$GT$3fmt17hd58574be7c4db377E>
  10922a:	48 8b b4 24 a8 00 00 	mov    0xa8(%rsp),%rsi
  109231:	00 
  109232:	e8 69 2b 00 00       	callq  10bda0 <_ZN4core3fmt10ArgumentV13new17h710935a10de9157aE>
  109237:	48 8b 94 24 00 01 00 	mov    0x100(%rsp),%rdx
  10923e:	00 
  10923f:	48 8b b4 24 08 01 00 	mov    0x108(%rsp),%rsi
  109246:	00 
  109247:	48 89 54 24 48       	mov    %rdx,0x48(%rsp)
  10924c:	48 89 74 24 40       	mov    %rsi,0x40(%rsp)
  109251:	48 8d bc 24 f0 00 00 	lea    0xf0(%rsp),%rdi
  109258:	00 
  109259:	48 8d 15 f0 54 00 00 	lea    0x54f0(%rip),%rdx        # 10e750 <_ZN55_$LT$$RF$$u27$a$u20$T$u20$as$u20$core..fmt..Display$GT$3fmt17hd58574be7c4db377E>
  109260:	48 8b b4 24 c8 00 00 	mov    0xc8(%rsp),%rsi
  109267:	00 
  109268:	e8 33 2b 00 00       	callq  10bda0 <_ZN4core3fmt10ArgumentV13new17h710935a10de9157aE>
  10926d:	48 8b 94 24 f0 00 00 	mov    0xf0(%rsp),%rdx
  109274:	00 
  109275:	48 8b b4 24 f8 00 00 	mov    0xf8(%rsp),%rsi
  10927c:	00 
  10927d:	48 89 54 24 38       	mov    %rdx,0x38(%rsp)
  109282:	48 89 74 24 30       	mov    %rsi,0x30(%rsp)
  109287:	48 8d bc 24 60 02 00 	lea    0x260(%rsp),%rdi
  10928e:	00 
  10928f:	b8 04 00 00 00       	mov    $0x4,%eax
  109294:	41 89 c0             	mov    %eax,%r8d
  109297:	48 8d 8c 24 20 02 00 	lea    0x220(%rsp),%rcx
  10929e:	00 
  10929f:	48 8b 94 24 a0 00 00 	mov    0xa0(%rsp),%rdx
  1092a6:	00 
  1092a7:	48 89 94 24 20 02 00 	mov    %rdx,0x220(%rsp)
  1092ae:	00 
  1092af:	48 8b b4 24 98 00 00 	mov    0x98(%rsp),%rsi
  1092b6:	00 
  1092b7:	48 89 b4 24 28 02 00 	mov    %rsi,0x228(%rsp)
  1092be:	00 
  1092bf:	4c 8b 4c 24 58       	mov    0x58(%rsp),%r9
  1092c4:	4c 89 8c 24 30 02 00 	mov    %r9,0x230(%rsp)
  1092cb:	00 
  1092cc:	4c 8b 54 24 50       	mov    0x50(%rsp),%r10
  1092d1:	4c 89 94 24 38 02 00 	mov    %r10,0x238(%rsp)
  1092d8:	00 
  1092d9:	4c 8b 5c 24 48       	mov    0x48(%rsp),%r11
  1092de:	4c 89 9c 24 40 02 00 	mov    %r11,0x240(%rsp)
  1092e5:	00 
  1092e6:	48 8b 5c 24 40       	mov    0x40(%rsp),%rbx
  1092eb:	48 89 9c 24 48 02 00 	mov    %rbx,0x248(%rsp)
  1092f2:	00 
  1092f3:	4c 8b 74 24 38       	mov    0x38(%rsp),%r14
  1092f8:	4c 89 b4 24 50 02 00 	mov    %r14,0x250(%rsp)
  1092ff:	00 
  109300:	4c 8b 7c 24 30       	mov    0x30(%rsp),%r15
  109305:	4c 89 bc 24 58 02 00 	mov    %r15,0x258(%rsp)
  10930c:	00 
  10930d:	48 8b b4 24 b8 00 00 	mov    0xb8(%rsp),%rsi
  109314:	00 
  109315:	48 8b 94 24 b0 00 00 	mov    0xb0(%rsp),%rdx
  10931c:	00 
  10931d:	e8 9e 2c 00 00       	callq  10bfc0 <_ZN4core3fmt9Arguments6new_v117h2ee48eb28c0cff0aE>
  109322:	48 8d bc 24 60 02 00 	lea    0x260(%rsp),%rdi
  109329:	00 
  10932a:	48 8d 35 6f 72 00 00 	lea    0x726f(%rip),%rsi        # 1105a0 <_ZN4core5slice74_$LT$impl$u20$core..ops..IndexMut$LT$usize$GT$$u20$for$u20$$u5b$T$u5d$$GT$9index_mut14_MSG_FILE_LINE17hdc6d73d2b1d0e93cE+0x78>
  109331:	e8 2a c3 ff ff       	callq  105660 <_ZN4core9panicking9panic_fmt17hb567db798f4a4807E>
  109336:	48 8d bc 24 50 01 00 	lea    0x150(%rsp),%rdi
  10933d:	00 
  10933e:	48 8d 15 1b 1b 00 00 	lea    0x1b1b(%rip),%rdx        # 10ae60 <_ZN4core3fmt3num54_$LT$impl$u20$core..fmt..Display$u20$for$u20$usize$GT$3fmt17h163484b597e27a9bE>
  109345:	48 8b b4 24 88 00 00 	mov    0x88(%rsp),%rsi
  10934c:	00 
  10934d:	e8 9e 2b 00 00       	callq  10bef0 <_ZN4core3fmt10ArgumentV13new17h917fc33d290e20e0E>
  109352:	48 8b 94 24 50 01 00 	mov    0x150(%rsp),%rdx
  109359:	00 
  10935a:	48 8b b4 24 58 01 00 	mov    0x158(%rsp),%rsi
  109361:	00 
  109362:	48 89 54 24 28       	mov    %rdx,0x28(%rsp)
  109367:	48 89 74 24 20       	mov    %rsi,0x20(%rsp)
  10936c:	48 8d bc 24 40 01 00 	lea    0x140(%rsp),%rdi
  109373:	00 
  109374:	48 8d 15 d5 53 00 00 	lea    0x53d5(%rip),%rdx        # 10e750 <_ZN55_$LT$$RF$$u27$a$u20$T$u20$as$u20$core..fmt..Display$GT$3fmt17hd58574be7c4db377E>
  10937b:	48 8b 74 24 70       	mov    0x70(%rsp),%rsi
  109380:	e8 1b 2a 00 00       	callq  10bda0 <_ZN4core3fmt10ArgumentV13new17h710935a10de9157aE>
  109385:	48 8b 94 24 40 01 00 	mov    0x140(%rsp),%rdx
  10938c:	00 
  10938d:	48 8b b4 24 48 01 00 	mov    0x148(%rsp),%rsi
  109394:	00 
  109395:	48 89 54 24 18       	mov    %rdx,0x18(%rsp)
  10939a:	48 89 74 24 10       	mov    %rsi,0x10(%rsp)
  10939f:	48 8d bc 24 30 01 00 	lea    0x130(%rsp),%rdi
  1093a6:	00 
  1093a7:	48 8d 15 a2 53 00 00 	lea    0x53a2(%rip),%rdx        # 10e750 <_ZN55_$LT$$RF$$u27$a$u20$T$u20$as$u20$core..fmt..Display$GT$3fmt17hd58574be7c4db377E>
  1093ae:	48 8b b4 24 90 00 00 	mov    0x90(%rsp),%rsi
  1093b5:	00 
  1093b6:	e8 e5 29 00 00       	callq  10bda0 <_ZN4core3fmt10ArgumentV13new17h710935a10de9157aE>
  1093bb:	48 8b 94 24 30 01 00 	mov    0x130(%rsp),%rdx
  1093c2:	00 
  1093c3:	48 8b b4 24 38 01 00 	mov    0x138(%rsp),%rsi
  1093ca:	00 
  1093cb:	48 89 54 24 08       	mov    %rdx,0x8(%rsp)
  1093d0:	48 89 34 24          	mov    %rsi,(%rsp)
  1093d4:	48 8d bc 24 d0 01 00 	lea    0x1d0(%rsp),%rdi
  1093db:	00 
  1093dc:	b8 04 00 00 00       	mov    $0x4,%eax
  1093e1:	41 89 c0             	mov    %eax,%r8d
  1093e4:	48 8d 8c 24 90 01 00 	lea    0x190(%rsp),%rcx
  1093eb:	00 
  1093ec:	48 8b 54 24 68       	mov    0x68(%rsp),%rdx
  1093f1:	48 89 94 24 90 01 00 	mov    %rdx,0x190(%rsp)
  1093f8:	00 
  1093f9:	48 8b 74 24 60       	mov    0x60(%rsp),%rsi
  1093fe:	48 89 b4 24 98 01 00 	mov    %rsi,0x198(%rsp)
  109405:	00 
  109406:	4c 8b 4c 24 28       	mov    0x28(%rsp),%r9
  10940b:	4c 89 8c 24 a0 01 00 	mov    %r9,0x1a0(%rsp)
  109412:	00 
  109413:	4c 8b 54 24 20       	mov    0x20(%rsp),%r10
  109418:	4c 89 94 24 a8 01 00 	mov    %r10,0x1a8(%rsp)
  10941f:	00 
  109420:	4c 8b 5c 24 18       	mov    0x18(%rsp),%r11
  109425:	4c 89 9c 24 b0 01 00 	mov    %r11,0x1b0(%rsp)
  10942c:	00 
  10942d:	48 8b 5c 24 10       	mov    0x10(%rsp),%rbx
  109432:	48 89 9c 24 b8 01 00 	mov    %rbx,0x1b8(%rsp)
  109439:	00 
  10943a:	4c 8b 74 24 08       	mov    0x8(%rsp),%r14
  10943f:	4c 89 b4 24 c0 01 00 	mov    %r14,0x1c0(%rsp)
  109446:	00 
  109447:	4c 8b 3c 24          	mov    (%rsp),%r15
  10944b:	4c 89 bc 24 c8 01 00 	mov    %r15,0x1c8(%rsp)
  109452:	00 
  109453:	48 8b b4 24 80 00 00 	mov    0x80(%rsp),%rsi
  10945a:	00 
  10945b:	48 8b 54 24 78       	mov    0x78(%rsp),%rdx
  109460:	e8 5b 2b 00 00       	callq  10bfc0 <_ZN4core3fmt9Arguments6new_v117h2ee48eb28c0cff0aE>
  109465:	48 8d bc 24 d0 01 00 	lea    0x1d0(%rsp),%rdi
  10946c:	00 
  10946d:	48 8d 35 54 71 00 00 	lea    0x7154(%rip),%rsi        # 1105c8 <_ZN4core5slice74_$LT$impl$u20$core..ops..IndexMut$LT$usize$GT$$u20$for$u20$$u5b$T$u5d$$GT$9index_mut14_MSG_FILE_LINE17hdc6d73d2b1d0e93cE+0xa0>
  109474:	e8 e7 c1 ff ff       	callq  105660 <_ZN4core9panicking9panic_fmt17hb567db798f4a4807E>
  109479:	0f 1f 80 00 00 00 00 	nopl   0x0(%rax)

0000000000109480 <_ZN41_$LT$str$u20$as$u20$core..str..StrExt$GT$5chars17hbfda0ece79e3c932E>:
  109480:	48 83 ec 48          	sub    $0x48,%rsp
  109484:	48 89 f8             	mov    %rdi,%rax
  109487:	48 89 44 24 30       	mov    %rax,0x30(%rsp)
  10948c:	48 89 54 24 28       	mov    %rdx,0x28(%rsp)
  109491:	48 89 74 24 20       	mov    %rsi,0x20(%rsp)
  109496:	48 89 7c 24 18       	mov    %rdi,0x18(%rsp)
  10949b:	48 8b 7c 24 20       	mov    0x20(%rsp),%rdi
  1094a0:	48 8b 74 24 28       	mov    0x28(%rsp),%rsi
  1094a5:	e8 36 02 00 00       	callq  1096e0 <_ZN41_$LT$str$u20$as$u20$core..str..StrExt$GT$8as_bytes17ha3a4e2a47e792cf8E>
  1094aa:	48 89 44 24 10       	mov    %rax,0x10(%rsp)
  1094af:	48 89 54 24 08       	mov    %rdx,0x8(%rsp)
  1094b4:	48 8d 7c 24 38       	lea    0x38(%rsp),%rdi
  1094b9:	48 8b 74 24 10       	mov    0x10(%rsp),%rsi
  1094be:	48 8b 54 24 08       	mov    0x8(%rsp),%rdx
  1094c3:	e8 c8 dd ff ff       	callq  107290 <_ZN53_$LT$$u5b$T$u5d$$u20$as$u20$core..slice..SliceExt$GT$4iter17h7b0dda1c92ba97edE>
  1094c8:	48 8b 44 24 38       	mov    0x38(%rsp),%rax
  1094cd:	48 8b 4c 24 18       	mov    0x18(%rsp),%rcx
  1094d2:	48 89 01             	mov    %rax,(%rcx)
  1094d5:	48 8b 44 24 40       	mov    0x40(%rsp),%rax
  1094da:	48 89 41 08          	mov    %rax,0x8(%rcx)
  1094de:	48 8b 44 24 30       	mov    0x30(%rsp),%rax
  1094e3:	48 83 c4 48          	add    $0x48,%rsp
  1094e7:	c3                   	retq   
  1094e8:	0f 1f 84 00 00 00 00 	nopl   0x0(%rax,%rax,1)
  1094ef:	00 

00000000001094f0 <_ZN41_$LT$str$u20$as$u20$core..str..StrExt$GT$12char_indices17hc57674a55540cb0fE>:
  1094f0:	48 83 ec 38          	sub    $0x38,%rsp
  1094f4:	48 89 f8             	mov    %rdi,%rax
  1094f7:	48 89 44 24 20       	mov    %rax,0x20(%rsp)
  1094fc:	48 89 54 24 18       	mov    %rdx,0x18(%rsp)
  109501:	48 89 74 24 10       	mov    %rsi,0x10(%rsp)
  109506:	48 89 7c 24 08       	mov    %rdi,0x8(%rsp)
  10950b:	48 8d 7c 24 28       	lea    0x28(%rsp),%rdi
  109510:	48 8b 74 24 10       	mov    0x10(%rsp),%rsi
  109515:	48 8b 54 24 18       	mov    0x18(%rsp),%rdx
  10951a:	e8 61 ff ff ff       	callq  109480 <_ZN41_$LT$str$u20$as$u20$core..str..StrExt$GT$5chars17hbfda0ece79e3c932E>
  10951f:	48 8b 44 24 08       	mov    0x8(%rsp),%rax
  109524:	48 c7 00 00 00 00 00 	movq   $0x0,(%rax)
  10952b:	48 8b 4c 24 28       	mov    0x28(%rsp),%rcx
  109530:	48 89 48 08          	mov    %rcx,0x8(%rax)
  109534:	48 8b 4c 24 30       	mov    0x30(%rsp),%rcx
  109539:	48 89 48 10          	mov    %rcx,0x10(%rax)
  10953d:	48 8b 44 24 20       	mov    0x20(%rsp),%rax
  109542:	48 83 c4 38          	add    $0x38,%rsp
  109546:	c3                   	retq   
  109547:	66 0f 1f 84 00 00 00 	nopw   0x0(%rax,%rax,1)
  10954e:	00 00 

0000000000109550 <_ZN41_$LT$str$u20$as$u20$core..str..StrExt$GT$15slice_unchecked17h4bb23d465ce44db9E>:
  109550:	48 83 ec 78          	sub    $0x78,%rsp
  109554:	48 89 54 24 50       	mov    %rdx,0x50(%rsp)
  109559:	48 89 74 24 48       	mov    %rsi,0x48(%rsp)
  10955e:	48 89 7c 24 40       	mov    %rdi,0x40(%rsp)
  109563:	48 89 4c 24 38       	mov    %rcx,0x38(%rsp)
  109568:	48 8b 7c 24 40       	mov    0x40(%rsp),%rdi
  10956d:	48 8b 74 24 48       	mov    0x48(%rsp),%rsi
  109572:	e8 29 02 00 00       	callq  1097a0 <_ZN41_$LT$str$u20$as$u20$core..str..StrExt$GT$6as_ptr17h45ed83960162e9f1E>
  109577:	48 89 44 24 30       	mov    %rax,0x30(%rsp)
  10957c:	48 8b 7c 24 30       	mov    0x30(%rsp),%rdi
  109581:	48 8b 74 24 50       	mov    0x50(%rsp),%rsi
  109586:	e8 05 b9 ff ff       	callq  104e90 <_ZN4core3ptr33_$LT$impl$u20$$BP$const$u20$T$GT$6offset17h0d62b7cbced53ff4E>
  10958b:	48 89 44 24 28       	mov    %rax,0x28(%rsp)
  109590:	48 8b 44 24 38       	mov    0x38(%rsp),%rax
  109595:	48 8b 4c 24 50       	mov    0x50(%rsp),%rcx
  10959a:	48 29 c8             	sub    %rcx,%rax
  10959d:	0f 92 c2             	setb   %dl
  1095a0:	f6 c2 01             	test   $0x1,%dl
  1095a3:	48 89 44 24 20       	mov    %rax,0x20(%rsp)
  1095a8:	75 49                	jne    1095f3 <_ZN41_$LT$str$u20$as$u20$core..str..StrExt$GT$15slice_unchecked17h4bb23d465ce44db9E+0xa3>
  1095aa:	48 8b 7c 24 28       	mov    0x28(%rsp),%rdi
  1095af:	48 8b 74 24 20       	mov    0x20(%rsp),%rsi
  1095b4:	e8 77 ee ff ff       	callq  108430 <_ZN4core5slice14from_raw_parts17h5f9d4399cfe98556E>
  1095b9:	48 89 44 24 18       	mov    %rax,0x18(%rsp)
  1095be:	48 89 54 24 10       	mov    %rdx,0x10(%rsp)
  1095c3:	48 8b 44 24 18       	mov    0x18(%rsp),%rax
  1095c8:	48 89 44 24 68       	mov    %rax,0x68(%rsp)
  1095cd:	48 8b 4c 24 10       	mov    0x10(%rsp),%rcx
  1095d2:	48 89 4c 24 70       	mov    %rcx,0x70(%rsp)
  1095d7:	48 8b 44 24 68       	mov    0x68(%rsp),%rax
  1095dc:	48 89 44 24 08       	mov    %rax,0x8(%rsp)
  1095e1:	48 89 0c 24          	mov    %rcx,(%rsp)
  1095e5:	48 8b 44 24 08       	mov    0x8(%rsp),%rax
  1095ea:	48 8b 14 24          	mov    (%rsp),%rdx
  1095ee:	48 83 c4 78          	add    $0x78,%rsp
  1095f2:	c3                   	retq   
  1095f3:	48 8d 3d 36 74 00 00 	lea    0x7436(%rip),%rdi        # 110a30 <panic_loc14670>
  1095fa:	e8 91 be ff ff       	callq  105490 <_ZN4core9panicking5panic17h585bd70cda921012E>
  1095ff:	90                   	nop

0000000000109600 <_ZN41_$LT$str$u20$as$u20$core..str..StrExt$GT$16is_char_boundary17h0759a8c26316cf32E>:
  109600:	48 83 ec 58          	sub    $0x58,%rsp
  109604:	48 89 74 24 30       	mov    %rsi,0x30(%rsp)
  109609:	48 89 7c 24 28       	mov    %rdi,0x28(%rsp)
  10960e:	48 89 54 24 20       	mov    %rdx,0x20(%rsp)
  109613:	48 8b 44 24 20       	mov    0x20(%rsp),%rax
  109618:	48 83 f8 00          	cmp    $0x0,%rax
  10961c:	75 0e                	jne    10962c <_ZN41_$LT$str$u20$as$u20$core..str..StrExt$GT$16is_char_boundary17h0759a8c26316cf32E+0x2c>
  10961e:	c6 44 24 4f 01       	movb   $0x1,0x4f(%rsp)
  109623:	eb 1d                	jmp    109642 <_ZN41_$LT$str$u20$as$u20$core..str..StrExt$GT$16is_char_boundary17h0759a8c26316cf32E+0x42>
  109625:	c6 44 24 4f 00       	movb   $0x0,0x4f(%rsp)
  10962a:	eb 16                	jmp    109642 <_ZN41_$LT$str$u20$as$u20$core..str..StrExt$GT$16is_char_boundary17h0759a8c26316cf32E+0x42>
  10962c:	48 8b 7c 24 28       	mov    0x28(%rsp),%rdi
  109631:	48 8b 74 24 30       	mov    0x30(%rsp),%rsi
  109636:	e8 85 01 00 00       	callq  1097c0 <_ZN41_$LT$str$u20$as$u20$core..str..StrExt$GT$3len17h84c1f589e95b2d96E>
  10963b:	48 89 44 24 18       	mov    %rax,0x18(%rsp)
  109640:	eb 09                	jmp    10964b <_ZN41_$LT$str$u20$as$u20$core..str..StrExt$GT$16is_char_boundary17h0759a8c26316cf32E+0x4b>
  109642:	f6 44 24 4f 01       	testb  $0x1,0x4f(%rsp)
  109647:	75 13                	jne    10965c <_ZN41_$LT$str$u20$as$u20$core..str..StrExt$GT$16is_char_boundary17h0759a8c26316cf32E+0x5c>
  109649:	eb 18                	jmp    109663 <_ZN41_$LT$str$u20$as$u20$core..str..StrExt$GT$16is_char_boundary17h0759a8c26316cf32E+0x63>
  10964b:	48 8b 44 24 20       	mov    0x20(%rsp),%rax
  109650:	48 8b 4c 24 18       	mov    0x18(%rsp),%rcx
  109655:	48 39 c8             	cmp    %rcx,%rax
  109658:	74 c4                	je     10961e <_ZN41_$LT$str$u20$as$u20$core..str..StrExt$GT$16is_char_boundary17h0759a8c26316cf32E+0x1e>
  10965a:	eb c9                	jmp    109625 <_ZN41_$LT$str$u20$as$u20$core..str..StrExt$GT$16is_char_boundary17h0759a8c26316cf32E+0x25>
  10965c:	c6 44 24 3f 01       	movb   $0x1,0x3f(%rsp)
  109661:	eb 1b                	jmp    10967e <_ZN41_$LT$str$u20$as$u20$core..str..StrExt$GT$16is_char_boundary17h0759a8c26316cf32E+0x7e>
  109663:	48 8b 7c 24 28       	mov    0x28(%rsp),%rdi
  109668:	48 8b 74 24 30       	mov    0x30(%rsp),%rsi
  10966d:	e8 6e 00 00 00       	callq  1096e0 <_ZN41_$LT$str$u20$as$u20$core..str..StrExt$GT$8as_bytes17ha3a4e2a47e792cf8E>
  109672:	48 89 44 24 10       	mov    %rax,0x10(%rsp)
  109677:	48 89 54 24 08       	mov    %rdx,0x8(%rsp)
  10967c:	eb 0e                	jmp    10968c <_ZN41_$LT$str$u20$as$u20$core..str..StrExt$GT$16is_char_boundary17h0759a8c26316cf32E+0x8c>
  10967e:	8a 44 24 3f          	mov    0x3f(%rsp),%al
  109682:	24 01                	and    $0x1,%al
  109684:	0f b6 c0             	movzbl %al,%eax
  109687:	48 83 c4 58          	add    $0x58,%rsp
  10968b:	c3                   	retq   
  10968c:	48 8b 7c 24 10       	mov    0x10(%rsp),%rdi
  109691:	48 8b 74 24 08       	mov    0x8(%rsp),%rsi
  109696:	48 8b 54 24 20       	mov    0x20(%rsp),%rdx
  10969b:	e8 a0 df ff ff       	callq  107640 <_ZN53_$LT$$u5b$T$u5d$$u20$as$u20$core..slice..SliceExt$GT$3get17h197366824b53f6cdE>
  1096a0:	48 89 44 24 40       	mov    %rax,0x40(%rsp)
  1096a5:	48 8b 44 24 40       	mov    0x40(%rsp),%rax
  1096aa:	48 85 c0             	test   %rax,%rax
  1096ad:	0f 95 c1             	setne  %cl
  1096b0:	88 4c 24 07          	mov    %cl,0x7(%rsp)
  1096b4:	75 15                	jne    1096cb <_ZN41_$LT$str$u20$as$u20$core..str..StrExt$GT$16is_char_boundary17h0759a8c26316cf32E+0xcb>
  1096b6:	eb 00                	jmp    1096b8 <_ZN41_$LT$str$u20$as$u20$core..str..StrExt$GT$16is_char_boundary17h0759a8c26316cf32E+0xb8>
  1096b8:	8a 44 24 07          	mov    0x7(%rsp),%al
  1096bc:	f6 d0                	not    %al
  1096be:	a8 01                	test   $0x1,%al
  1096c0:	74 1d                	je     1096df <_ZN41_$LT$str$u20$as$u20$core..str..StrExt$GT$16is_char_boundary17h0759a8c26316cf32E+0xdf>
  1096c2:	eb 00                	jmp    1096c4 <_ZN41_$LT$str$u20$as$u20$core..str..StrExt$GT$16is_char_boundary17h0759a8c26316cf32E+0xc4>
  1096c4:	c6 44 24 3f 00       	movb   $0x0,0x3f(%rsp)
  1096c9:	eb b3                	jmp    10967e <_ZN41_$LT$str$u20$as$u20$core..str..StrExt$GT$16is_char_boundary17h0759a8c26316cf32E+0x7e>
  1096cb:	48 8b 44 24 40       	mov    0x40(%rsp),%rax
  1096d0:	80 38 c0             	cmpb   $0xc0,(%rax)
  1096d3:	0f 9d c1             	setge  %cl
  1096d6:	80 e1 01             	and    $0x1,%cl
  1096d9:	88 4c 24 3f          	mov    %cl,0x3f(%rsp)
  1096dd:	eb 9f                	jmp    10967e <_ZN41_$LT$str$u20$as$u20$core..str..StrExt$GT$16is_char_boundary17h0759a8c26316cf32E+0x7e>
  1096df:	90                   	nop

00000000001096e0 <_ZN41_$LT$str$u20$as$u20$core..str..StrExt$GT$8as_bytes17ha3a4e2a47e792cf8E>:
  1096e0:	48 83 ec 40          	sub    $0x40,%rsp
  1096e4:	48 89 7c 24 18       	mov    %rdi,0x18(%rsp)
  1096e9:	48 89 74 24 10       	mov    %rsi,0x10(%rsp)
  1096ee:	48 8b 44 24 18       	mov    0x18(%rsp),%rax
  1096f3:	48 89 44 24 20       	mov    %rax,0x20(%rsp)
  1096f8:	48 8b 4c 24 10       	mov    0x10(%rsp),%rcx
  1096fd:	48 89 4c 24 28       	mov    %rcx,0x28(%rsp)
  109702:	48 8b 44 24 20       	mov    0x20(%rsp),%rax
  109707:	48 8b 54 24 28       	mov    0x28(%rsp),%rdx
  10970c:	48 89 44 24 08       	mov    %rax,0x8(%rsp)
  109711:	48 89 14 24          	mov    %rdx,(%rsp)
  109715:	48 8b 44 24 08       	mov    0x8(%rsp),%rax
  10971a:	48 8b 14 24          	mov    (%rsp),%rdx
  10971e:	48 83 c4 40          	add    $0x40,%rsp
  109722:	c3                   	retq   
  109723:	66 2e 0f 1f 84 00 00 	nopw   %cs:0x0(%rax,%rax,1)
  10972a:	00 00 00 
  10972d:	0f 1f 00             	nopl   (%rax)

0000000000109730 <_ZN41_$LT$str$u20$as$u20$core..str..StrExt$GT$4find17h4c72c5b87135b8c0E>:
  109730:	48 81 ec 88 00 00 00 	sub    $0x88,%rsp
  109737:	48 89 f8             	mov    %rdi,%rax
  10973a:	48 89 44 24 28       	mov    %rax,0x28(%rsp)
  10973f:	89 4c 24 24          	mov    %ecx,0x24(%rsp)
  109743:	48 89 54 24 18       	mov    %rdx,0x18(%rsp)
  109748:	48 89 74 24 10       	mov    %rsi,0x10(%rsp)
  10974d:	48 89 7c 24 08       	mov    %rdi,0x8(%rsp)
  109752:	48 8d 7c 24 38       	lea    0x38(%rsp),%rdi
  109757:	8b 74 24 24          	mov    0x24(%rsp),%esi
  10975b:	48 8b 54 24 10       	mov    0x10(%rsp),%rdx
  109760:	48 8b 4c 24 18       	mov    0x18(%rsp),%rcx
  109765:	e8 b6 f0 ff ff       	callq  108820 <_ZN66_$LT$char$u20$as$u20$core..str..pattern..Pattern$LT$$u27$a$GT$$GT$13into_searcher17hf44bb49eb0fe36b6E>
  10976a:	48 8d 7c 24 70       	lea    0x70(%rsp),%rdi
  10976f:	48 8d 74 24 38       	lea    0x38(%rsp),%rsi
  109774:	e8 77 f0 ff ff       	callq  1087f0 <_ZN109_$LT$core..str..pattern..CharSearcher$LT$$u27$a$GT$$u20$as$u20$core..str..pattern..Searcher$LT$$u27$a$GT$$GT$10next_match17h942aee63ca342cedE>
  109779:	48 8d 74 24 70       	lea    0x70(%rsp),%rsi
  10977e:	48 8b 7c 24 08       	mov    0x8(%rsp),%rdi
  109783:	e8 c8 d0 ff ff       	callq  106850 <_ZN38_$LT$core..option..Option$LT$T$GT$$GT$3map17ha593e1e734a143d3E>
  109788:	48 8d 7c 24 38       	lea    0x38(%rsp),%rdi
  10978d:	e8 ae b3 ff ff       	callq  104b40 <_ZN4drop17hbeeee56e4a9dc3c4E>
  109792:	48 8b 44 24 28       	mov    0x28(%rsp),%rax
  109797:	48 81 c4 88 00 00 00 	add    $0x88,%rsp
  10979e:	c3                   	retq   
  10979f:	90                   	nop

00000000001097a0 <_ZN41_$LT$str$u20$as$u20$core..str..StrExt$GT$6as_ptr17h45ed83960162e9f1E>:
  1097a0:	48 83 ec 18          	sub    $0x18,%rsp
  1097a4:	48 89 7c 24 08       	mov    %rdi,0x8(%rsp)
  1097a9:	48 89 34 24          	mov    %rsi,(%rsp)
  1097ad:	eb 00                	jmp    1097af <_ZN41_$LT$str$u20$as$u20$core..str..StrExt$GT$6as_ptr17h45ed83960162e9f1E+0xf>
  1097af:	48 8b 44 24 08       	mov    0x8(%rsp),%rax
  1097b4:	48 83 c4 18          	add    $0x18,%rsp
  1097b8:	c3                   	retq   
  1097b9:	0f 1f 80 00 00 00 00 	nopl   0x0(%rax)

00000000001097c0 <_ZN41_$LT$str$u20$as$u20$core..str..StrExt$GT$3len17h84c1f589e95b2d96E>:
  1097c0:	48 83 ec 38          	sub    $0x38,%rsp
  1097c4:	48 89 7c 24 28       	mov    %rdi,0x28(%rsp)
  1097c9:	48 89 74 24 20       	mov    %rsi,0x20(%rsp)
  1097ce:	48 8b 7c 24 28       	mov    0x28(%rsp),%rdi
  1097d3:	48 8b 74 24 20       	mov    0x20(%rsp),%rsi
  1097d8:	e8 03 ff ff ff       	callq  1096e0 <_ZN41_$LT$str$u20$as$u20$core..str..StrExt$GT$8as_bytes17ha3a4e2a47e792cf8E>
  1097dd:	48 89 44 24 18       	mov    %rax,0x18(%rsp)
  1097e2:	48 89 54 24 10       	mov    %rdx,0x10(%rsp)
  1097e7:	48 8b 7c 24 18       	mov    0x18(%rsp),%rdi
  1097ec:	48 8b 74 24 10       	mov    0x10(%rsp),%rsi
  1097f1:	e8 1a e0 ff ff       	callq  107810 <_ZN53_$LT$$u5b$T$u5d$$u20$as$u20$core..slice..SliceExt$GT$3len17he17f44d354df8341E>
  1097f6:	48 89 44 24 08       	mov    %rax,0x8(%rsp)
  1097fb:	48 8b 44 24 08       	mov    0x8(%rsp),%rax
  109800:	48 83 c4 38          	add    $0x38,%rsp
  109804:	c3                   	retq   
  109805:	66 2e 0f 1f 84 00 00 	nopw   %cs:0x0(%rax,%rax,1)
  10980c:	00 00 00 
  10980f:	90                   	nop

0000000000109810 <_ZN41_$LT$str$u20$as$u20$core..str..StrExt$GT$8is_empty17h8aa10b8d7e914423E>:
  109810:	48 83 ec 28          	sub    $0x28,%rsp
  109814:	48 89 7c 24 18       	mov    %rdi,0x18(%rsp)
  109819:	48 89 74 24 10       	mov    %rsi,0x10(%rsp)
  10981e:	48 8b 7c 24 18       	mov    0x18(%rsp),%rdi
  109823:	48 8b 74 24 10       	mov    0x10(%rsp),%rsi
  109828:	e8 93 ff ff ff       	callq  1097c0 <_ZN41_$LT$str$u20$as$u20$core..str..StrExt$GT$3len17h84c1f589e95b2d96E>
  10982d:	48 89 44 24 08       	mov    %rax,0x8(%rsp)
  109832:	48 8b 44 24 08       	mov    0x8(%rsp),%rax
  109837:	48 83 f8 00          	cmp    $0x0,%rax
  10983b:	0f 94 c1             	sete   %cl
  10983e:	80 e1 01             	and    $0x1,%cl
  109841:	0f b6 c1             	movzbl %cl,%eax
  109844:	48 83 c4 28          	add    $0x28,%rsp
  109848:	c3                   	retq   
  109849:	0f 1f 80 00 00 00 00 	nopl   0x0(%rax)

0000000000109850 <_ZN42_$LT$u8$u20$as$u20$core..fmt..num..Int$GT$6to_u3217h7fb3b183088ef0d4E>:
  109850:	48 83 ec 18          	sub    $0x18,%rsp
  109854:	48 89 7c 24 08       	mov    %rdi,0x8(%rsp)
  109859:	48 8b 44 24 08       	mov    0x8(%rsp),%rax
  10985e:	0f b6 00             	movzbl (%rax),%eax
  109861:	89 44 24 04          	mov    %eax,0x4(%rsp)
  109865:	8b 44 24 04          	mov    0x4(%rsp),%eax
  109869:	48 83 c4 18          	add    $0x18,%rsp
  10986d:	c3                   	retq   
  10986e:	66 90                	xchg   %ax,%ax

0000000000109870 <_ZN43_$LT$u32$u20$as$u20$core..fmt..num..Int$GT$6to_u3217h4b04b3c1988bc311E>:
  109870:	48 83 ec 18          	sub    $0x18,%rsp
  109874:	48 89 7c 24 08       	mov    %rdi,0x8(%rsp)
  109879:	48 8b 44 24 08       	mov    0x8(%rsp),%rax
  10987e:	8b 00                	mov    (%rax),%eax
  109880:	89 44 24 04          	mov    %eax,0x4(%rsp)
  109884:	8b 44 24 04          	mov    0x4(%rsp),%eax
  109888:	48 83 c4 18          	add    $0x18,%rsp
  10988c:	c3                   	retq   
  10988d:	0f 1f 00             	nopl   (%rax)

0000000000109890 <_ZN43_$LT$u64$u20$as$u20$core..fmt..num..Int$GT$7from_u817h6a865282877bbb55E>:
  109890:	48 83 ec 18          	sub    $0x18,%rsp
  109894:	40 88 f8             	mov    %dil,%al
  109897:	88 44 24 0f          	mov    %al,0xf(%rsp)
  10989b:	8a 44 24 0f          	mov    0xf(%rsp),%al
  10989f:	0f b6 c8             	movzbl %al,%ecx
  1098a2:	89 c8                	mov    %ecx,%eax
  1098a4:	48 89 04 24          	mov    %rax,(%rsp)
  1098a8:	48 8b 04 24          	mov    (%rsp),%rax
  1098ac:	48 83 c4 18          	add    $0x18,%rsp
  1098b0:	c3                   	retq   
  1098b1:	66 2e 0f 1f 84 00 00 	nopw   %cs:0x0(%rax,%rax,1)
  1098b8:	00 00 00 
  1098bb:	0f 1f 44 00 00       	nopl   0x0(%rax,%rax,1)

00000000001098c0 <_ZN43_$LT$u64$u20$as$u20$core..fmt..num..Int$GT$5to_u817h92b8960625e5f49fE>:
  1098c0:	48 83 ec 18          	sub    $0x18,%rsp
  1098c4:	48 89 7c 24 08       	mov    %rdi,0x8(%rsp)
  1098c9:	48 8b 44 24 08       	mov    0x8(%rsp),%rax
  1098ce:	48 8b 08             	mov    (%rax),%rcx
  1098d1:	88 ca                	mov    %cl,%dl
  1098d3:	88 54 24 07          	mov    %dl,0x7(%rsp)
  1098d7:	8a 44 24 07          	mov    0x7(%rsp),%al
  1098db:	48 83 c4 18          	add    $0x18,%rsp
  1098df:	c3                   	retq   

00000000001098e0 <_ZN45_$LT$usize$u20$as$u20$core..fmt..num..Int$GT$6to_u6417h524de838d113c16cE>:
  1098e0:	48 83 ec 18          	sub    $0x18,%rsp
  1098e4:	48 89 7c 24 08       	mov    %rdi,0x8(%rsp)
  1098e9:	48 8b 44 24 08       	mov    0x8(%rsp),%rax
  1098ee:	48 8b 00             	mov    (%rax),%rax
  1098f1:	48 89 04 24          	mov    %rax,(%rsp)
  1098f5:	48 8b 04 24          	mov    (%rsp),%rax
  1098f9:	48 83 c4 18          	add    $0x18,%rsp
  1098fd:	c3                   	retq   
  1098fe:	66 90                	xchg   %ax,%ax

0000000000109900 <_ZN4core3fmt3num12GenericRadix7fmt_int17hb9e9f11e0476f4abE>:
  109900:	48 81 ec 48 02 00 00 	sub    $0x248,%rsp
  109907:	48 89 b4 24 e0 00 00 	mov    %rsi,0xe0(%rsp)
  10990e:	00 
  10990f:	48 89 bc 24 d8 00 00 	mov    %rdi,0xd8(%rsp)
  109916:	00 
  109917:	48 89 94 24 d0 00 00 	mov    %rdx,0xd0(%rsp)
  10991e:	00 
  10991f:	48 8b 84 24 e0 00 00 	mov    0xe0(%rsp),%rax
  109926:	00 
  109927:	48 89 84 24 28 02 00 	mov    %rax,0x228(%rsp)
  10992e:	00 
  10992f:	e8 3c b2 ff ff       	callq  104b70 <_ZN39_$LT$u64$u20$as$u20$core..num..Zero$GT$4zero17h43a9941fa31d1f90E>
  109934:	48 89 84 24 20 02 00 	mov    %rax,0x220(%rsp)
  10993b:	00 
  10993c:	48 8d bc 24 28 02 00 	lea    0x228(%rsp),%rdi
  109943:	00 
  109944:	48 8d b4 24 20 02 00 	lea    0x220(%rsp),%rsi
  10994b:	00 
  10994c:	e8 3f b8 ff ff       	callq  105190 <_ZN4core3cmp5impls55_$LT$impl$u20$core..cmp..PartialOrd$u20$for$u20$u64$GT$2ge17h2752b4df72fdfc82E>
  109951:	88 84 24 cf 00 00 00 	mov    %al,0xcf(%rsp)
  109958:	48 8d 84 24 e0 01 00 	lea    0x1e0(%rsp),%rax
  10995f:	00 
  109960:	48 89 c1             	mov    %rax,%rcx
  109963:	48 83 c1 40          	add    $0x40,%rcx
  109967:	48 89 8c 24 c0 00 00 	mov    %rcx,0xc0(%rsp)
  10996e:	00 
  10996f:	48 89 84 24 b8 00 00 	mov    %rax,0xb8(%rsp)
  109976:	00 
  109977:	e9 63 04 00 00       	jmpq   109ddf <_ZN4core3fmt3num12GenericRadix7fmt_int17hb9e9f11e0476f4abE+0x4df>
  10997c:	48 8b bc 24 d8 00 00 	mov    0xd8(%rsp),%rdi
  109983:	00 
  109984:	e8 c7 04 00 00       	callq  109e50 <_ZN73_$LT$core..fmt..num..LowerHex$u20$as$u20$core..fmt..num..GenericRadix$GT$4base17h8db8b68122324888E>
  109989:	88 84 24 b7 00 00 00 	mov    %al,0xb7(%rsp)
  109990:	8a 84 24 b7 00 00 00 	mov    0xb7(%rsp),%al
  109997:	0f b6 f8             	movzbl %al,%edi
  10999a:	e8 f1 fe ff ff       	callq  109890 <_ZN43_$LT$u64$u20$as$u20$core..fmt..num..Int$GT$7from_u817h6a865282877bbb55E>
  10999f:	48 89 84 24 a8 00 00 	mov    %rax,0xa8(%rsp)
  1099a6:	00 
  1099a7:	8a 84 24 cf 00 00 00 	mov    0xcf(%rsp),%al
  1099ae:	a8 01                	test   $0x1,%al
  1099b0:	75 02                	jne    1099b4 <_ZN4core3fmt3num12GenericRadix7fmt_int17hb9e9f11e0476f4abE+0xb4>
  1099b2:	eb 21                	jmp    1099d5 <_ZN4core3fmt3num12GenericRadix7fmt_int17hb9e9f11e0476f4abE+0xd5>
  1099b4:	48 8d bc 24 60 01 00 	lea    0x160(%rsp),%rdi
  1099bb:	00 
  1099bc:	b8 40 00 00 00       	mov    $0x40,%eax
  1099c1:	89 c2                	mov    %eax,%edx
  1099c3:	48 8d 8c 24 e0 01 00 	lea    0x1e0(%rsp),%rcx
  1099ca:	00 
  1099cb:	48 89 ce             	mov    %rcx,%rsi
  1099ce:	e8 7d de ff ff       	callq  107850 <_ZN53_$LT$$u5b$T$u5d$$u20$as$u20$core..slice..SliceExt$GT$8iter_mut17h994705f00787d05dE>
  1099d3:	eb 24                	jmp    1099f9 <_ZN4core3fmt3num12GenericRadix7fmt_int17hb9e9f11e0476f4abE+0xf9>
  1099d5:	48 8d bc 24 18 01 00 	lea    0x118(%rsp),%rdi
  1099dc:	00 
  1099dd:	b8 40 00 00 00       	mov    $0x40,%eax
  1099e2:	89 c2                	mov    %eax,%edx
  1099e4:	48 8d 8c 24 e0 01 00 	lea    0x1e0(%rsp),%rcx
  1099eb:	00 
  1099ec:	48 89 ce             	mov    %rcx,%rsi
  1099ef:	e8 5c de ff ff       	callq  107850 <_ZN53_$LT$$u5b$T$u5d$$u20$as$u20$core..slice..SliceExt$GT$8iter_mut17h994705f00787d05dE>
  1099f4:	e9 8a 01 00 00       	jmpq   109b83 <_ZN4core3fmt3num12GenericRadix7fmt_int17hb9e9f11e0476f4abE+0x283>
  1099f9:	48 8d bc 24 70 01 00 	lea    0x170(%rsp),%rdi
  109a00:	00 
  109a01:	48 8d b4 24 60 01 00 	lea    0x160(%rsp),%rsi
  109a08:	00 
  109a09:	e8 f2 c1 ff ff       	callq  105c00 <_ZN4core4iter8iterator8Iterator3rev17h61501a7dd7423ac0E>
  109a0e:	48 8d bc 24 80 01 00 	lea    0x180(%rsp),%rdi
  109a15:	00 
  109a16:	48 8d b4 24 70 01 00 	lea    0x170(%rsp),%rsi
  109a1d:	00 
  109a1e:	e8 dd c4 ff ff       	callq  105f00 <_ZN54_$LT$I$u20$as$u20$core..iter..traits..IntoIterator$GT$9into_iter17h9967f9b0f489a086E>
  109a23:	48 8b 84 24 80 01 00 	mov    0x180(%rsp),%rax
  109a2a:	00 
  109a2b:	48 89 84 24 c0 01 00 	mov    %rax,0x1c0(%rsp)
  109a32:	00 
  109a33:	48 8b 84 24 88 01 00 	mov    0x188(%rsp),%rax
  109a3a:	00 
  109a3b:	48 89 84 24 c8 01 00 	mov    %rax,0x1c8(%rsp)
  109a42:	00 
  109a43:	48 8d bc 24 c0 01 00 	lea    0x1c0(%rsp),%rdi
  109a4a:	00 
  109a4b:	e8 70 c7 ff ff       	callq  1061c0 <_ZN75_$LT$core..iter..Rev$LT$I$GT$$u20$as$u20$core..iter..iterator..Iterator$GT$4next17h01695cbc3a6d8d6dE>
  109a50:	48 89 84 24 50 01 00 	mov    %rax,0x150(%rsp)
  109a57:	00 
  109a58:	eb 05                	jmp    109a5f <_ZN4core3fmt3num12GenericRadix7fmt_int17hb9e9f11e0476f4abE+0x15f>
  109a5a:	e9 ae 02 00 00       	jmpq   109d0d <_ZN4core3fmt3num12GenericRadix7fmt_int17hb9e9f11e0476f4abE+0x40d>
  109a5f:	48 8b 84 24 50 01 00 	mov    0x150(%rsp),%rax
  109a66:	00 
  109a67:	48 85 c0             	test   %rax,%rax
  109a6a:	0f 95 c1             	setne  %cl
  109a6d:	88 8c 24 a7 00 00 00 	mov    %cl,0xa7(%rsp)
  109a74:	75 12                	jne    109a88 <_ZN4core3fmt3num12GenericRadix7fmt_int17hb9e9f11e0476f4abE+0x188>
  109a76:	eb 00                	jmp    109a78 <_ZN4core3fmt3num12GenericRadix7fmt_int17hb9e9f11e0476f4abE+0x178>
  109a78:	8a 84 24 a7 00 00 00 	mov    0xa7(%rsp),%al
  109a7f:	a8 01                	test   $0x1,%al
  109a81:	74 d7                	je     109a5a <_ZN4core3fmt3num12GenericRadix7fmt_int17hb9e9f11e0476f4abE+0x15a>
  109a83:	e9 ab 03 00 00       	jmpq   109e33 <_ZN4core3fmt3num12GenericRadix7fmt_int17hb9e9f11e0476f4abE+0x533>
  109a88:	48 8b 84 24 50 01 00 	mov    0x150(%rsp),%rax
  109a8f:	00 
  109a90:	48 8b bc 24 28 02 00 	mov    0x228(%rsp),%rdi
  109a97:	00 
  109a98:	48 8b b4 24 a8 00 00 	mov    0xa8(%rsp),%rsi
  109a9f:	00 
  109aa0:	48 89 84 24 98 00 00 	mov    %rax,0x98(%rsp)
  109aa7:	00 
  109aa8:	e8 d3 b5 ff ff       	callq  105080 <_ZN38_$LT$u64$u20$as$u20$core..ops..Rem$GT$3rem17h63209e7e002e6a41E>
  109aad:	48 89 84 24 b8 01 00 	mov    %rax,0x1b8(%rsp)
  109ab4:	00 
  109ab5:	48 8b bc 24 28 02 00 	mov    0x228(%rsp),%rdi
  109abc:	00 
  109abd:	48 8b b4 24 a8 00 00 	mov    0xa8(%rsp),%rsi
  109ac4:	00 
  109ac5:	e8 76 b5 ff ff       	callq  105040 <_ZN38_$LT$u64$u20$as$u20$core..ops..Div$GT$3div17hc2913abea99d2ae2E>
  109aca:	48 89 84 24 90 00 00 	mov    %rax,0x90(%rsp)
  109ad1:	00 
  109ad2:	48 8d bc 24 b8 01 00 	lea    0x1b8(%rsp),%rdi
  109ad9:	00 
  109ada:	48 8b 84 24 90 00 00 	mov    0x90(%rsp),%rax
  109ae1:	00 
  109ae2:	48 89 84 24 28 02 00 	mov    %rax,0x228(%rsp)
  109ae9:	00 
  109aea:	e8 d1 fd ff ff       	callq  1098c0 <_ZN43_$LT$u64$u20$as$u20$core..fmt..num..Int$GT$5to_u817h92b8960625e5f49fE>
  109aef:	88 84 24 8f 00 00 00 	mov    %al,0x8f(%rsp)
  109af6:	48 8b bc 24 d8 00 00 	mov    0xd8(%rsp),%rdi
  109afd:	00 
  109afe:	8a 84 24 8f 00 00 00 	mov    0x8f(%rsp),%al
  109b05:	0f b6 f0             	movzbl %al,%esi
  109b08:	e8 83 03 00 00       	callq  109e90 <_ZN73_$LT$core..fmt..num..LowerHex$u20$as$u20$core..fmt..num..GenericRadix$GT$5digit17h28f4b6253f359115E>
  109b0d:	88 84 24 8e 00 00 00 	mov    %al,0x8e(%rsp)
  109b14:	48 8b 84 24 98 00 00 	mov    0x98(%rsp),%rax
  109b1b:	00 
  109b1c:	8a 8c 24 8e 00 00 00 	mov    0x8e(%rsp),%cl
  109b23:	88 08                	mov    %cl,(%rax)
  109b25:	48 8b 94 24 d8 01 00 	mov    0x1d8(%rsp),%rdx
  109b2c:	00 
  109b2d:	48 83 ea 01          	sub    $0x1,%rdx
  109b31:	40 0f 92 c6          	setb   %sil
  109b35:	40 f6 c6 01          	test   $0x1,%sil
  109b39:	48 89 94 24 80 00 00 	mov    %rdx,0x80(%rsp)
  109b40:	00 
  109b41:	0f 85 f8 02 00 00    	jne    109e3f <_ZN4core3fmt3num12GenericRadix7fmt_int17hb9e9f11e0476f4abE+0x53f>
  109b47:	48 8d bc 24 28 02 00 	lea    0x228(%rsp),%rdi
  109b4e:	00 
  109b4f:	48 8d b4 24 20 02 00 	lea    0x220(%rsp),%rsi
  109b56:	00 
  109b57:	48 8b 84 24 80 00 00 	mov    0x80(%rsp),%rax
  109b5e:	00 
  109b5f:	48 89 84 24 d8 01 00 	mov    %rax,0x1d8(%rsp)
  109b66:	00 
  109b67:	e8 a4 b5 ff ff       	callq  105110 <_ZN4core3cmp5impls54_$LT$impl$u20$core..cmp..PartialEq$u20$for$u20$u64$GT$2eq17h85487a84f5335159E>
  109b6c:	88 44 24 7f          	mov    %al,0x7f(%rsp)
  109b70:	8a 44 24 7f          	mov    0x7f(%rsp),%al
  109b74:	a8 01                	test   $0x1,%al
  109b76:	0f 85 de fe ff ff    	jne    109a5a <_ZN4core3fmt3num12GenericRadix7fmt_int17hb9e9f11e0476f4abE+0x15a>
  109b7c:	eb 00                	jmp    109b7e <_ZN4core3fmt3num12GenericRadix7fmt_int17hb9e9f11e0476f4abE+0x27e>
  109b7e:	e9 c0 fe ff ff       	jmpq   109a43 <_ZN4core3fmt3num12GenericRadix7fmt_int17hb9e9f11e0476f4abE+0x143>
  109b83:	48 8d bc 24 28 01 00 	lea    0x128(%rsp),%rdi
  109b8a:	00 
  109b8b:	48 8d b4 24 18 01 00 	lea    0x118(%rsp),%rsi
  109b92:	00 
  109b93:	e8 68 c0 ff ff       	callq  105c00 <_ZN4core4iter8iterator8Iterator3rev17h61501a7dd7423ac0E>
  109b98:	48 8d bc 24 38 01 00 	lea    0x138(%rsp),%rdi
  109b9f:	00 
  109ba0:	48 8d b4 24 28 01 00 	lea    0x128(%rsp),%rsi
  109ba7:	00 
  109ba8:	e8 53 c3 ff ff       	callq  105f00 <_ZN54_$LT$I$u20$as$u20$core..iter..traits..IntoIterator$GT$9into_iter17h9967f9b0f489a086E>
  109bad:	48 8b 84 24 38 01 00 	mov    0x138(%rsp),%rax
  109bb4:	00 
  109bb5:	48 89 84 24 a0 01 00 	mov    %rax,0x1a0(%rsp)
  109bbc:	00 
  109bbd:	48 8b 84 24 40 01 00 	mov    0x140(%rsp),%rax
  109bc4:	00 
  109bc5:	48 89 84 24 a8 01 00 	mov    %rax,0x1a8(%rsp)
  109bcc:	00 
  109bcd:	48 8d bc 24 a0 01 00 	lea    0x1a0(%rsp),%rdi
  109bd4:	00 
  109bd5:	e8 e6 c5 ff ff       	callq  1061c0 <_ZN75_$LT$core..iter..Rev$LT$I$GT$$u20$as$u20$core..iter..iterator..Iterator$GT$4next17h01695cbc3a6d8d6dE>
  109bda:	48 89 84 24 10 01 00 	mov    %rax,0x110(%rsp)
  109be1:	00 
  109be2:	eb 05                	jmp    109be9 <_ZN4core3fmt3num12GenericRadix7fmt_int17hb9e9f11e0476f4abE+0x2e9>
  109be4:	e9 24 01 00 00       	jmpq   109d0d <_ZN4core3fmt3num12GenericRadix7fmt_int17hb9e9f11e0476f4abE+0x40d>
  109be9:	48 8b 84 24 10 01 00 	mov    0x110(%rsp),%rax
  109bf0:	00 
  109bf1:	48 85 c0             	test   %rax,%rax
  109bf4:	0f 95 c1             	setne  %cl
  109bf7:	88 4c 24 7e          	mov    %cl,0x7e(%rsp)
  109bfb:	75 0f                	jne    109c0c <_ZN4core3fmt3num12GenericRadix7fmt_int17hb9e9f11e0476f4abE+0x30c>
  109bfd:	eb 00                	jmp    109bff <_ZN4core3fmt3num12GenericRadix7fmt_int17hb9e9f11e0476f4abE+0x2ff>
  109bff:	8a 44 24 7e          	mov    0x7e(%rsp),%al
  109c03:	a8 01                	test   $0x1,%al
  109c05:	74 dd                	je     109be4 <_ZN4core3fmt3num12GenericRadix7fmt_int17hb9e9f11e0476f4abE+0x2e4>
  109c07:	e9 27 02 00 00       	jmpq   109e33 <_ZN4core3fmt3num12GenericRadix7fmt_int17hb9e9f11e0476f4abE+0x533>
  109c0c:	48 8b 84 24 10 01 00 	mov    0x110(%rsp),%rax
  109c13:	00 
  109c14:	48 8b bc 24 20 02 00 	mov    0x220(%rsp),%rdi
  109c1b:	00 
  109c1c:	48 8b 8c 24 28 02 00 	mov    0x228(%rsp),%rcx
  109c23:	00 
  109c24:	48 89 7c 24 70       	mov    %rdi,0x70(%rsp)
  109c29:	48 89 cf             	mov    %rcx,%rdi
  109c2c:	48 8b b4 24 a8 00 00 	mov    0xa8(%rsp),%rsi
  109c33:	00 
  109c34:	48 89 44 24 68       	mov    %rax,0x68(%rsp)
  109c39:	e8 42 b4 ff ff       	callq  105080 <_ZN38_$LT$u64$u20$as$u20$core..ops..Rem$GT$3rem17h63209e7e002e6a41E>
  109c3e:	48 89 44 24 60       	mov    %rax,0x60(%rsp)
  109c43:	48 8b 7c 24 70       	mov    0x70(%rsp),%rdi
  109c48:	48 8b 74 24 60       	mov    0x60(%rsp),%rsi
  109c4d:	e8 ae b3 ff ff       	callq  105000 <_ZN38_$LT$u64$u20$as$u20$core..ops..Sub$GT$3sub17hea9cb14291813c39E>
  109c52:	48 89 84 24 98 01 00 	mov    %rax,0x198(%rsp)
  109c59:	00 
  109c5a:	48 8b bc 24 28 02 00 	mov    0x228(%rsp),%rdi
  109c61:	00 
  109c62:	48 8b b4 24 a8 00 00 	mov    0xa8(%rsp),%rsi
  109c69:	00 
  109c6a:	e8 d1 b3 ff ff       	callq  105040 <_ZN38_$LT$u64$u20$as$u20$core..ops..Div$GT$3div17hc2913abea99d2ae2E>
  109c6f:	48 89 44 24 58       	mov    %rax,0x58(%rsp)
  109c74:	48 8d bc 24 98 01 00 	lea    0x198(%rsp),%rdi
  109c7b:	00 
  109c7c:	48 8b 44 24 58       	mov    0x58(%rsp),%rax
  109c81:	48 89 84 24 28 02 00 	mov    %rax,0x228(%rsp)
  109c88:	00 
  109c89:	e8 32 fc ff ff       	callq  1098c0 <_ZN43_$LT$u64$u20$as$u20$core..fmt..num..Int$GT$5to_u817h92b8960625e5f49fE>
  109c8e:	88 44 24 57          	mov    %al,0x57(%rsp)
  109c92:	48 8b bc 24 d8 00 00 	mov    0xd8(%rsp),%rdi
  109c99:	00 
  109c9a:	8a 44 24 57          	mov    0x57(%rsp),%al
  109c9e:	0f b6 f0             	movzbl %al,%esi
  109ca1:	e8 ea 01 00 00       	callq  109e90 <_ZN73_$LT$core..fmt..num..LowerHex$u20$as$u20$core..fmt..num..GenericRadix$GT$5digit17h28f4b6253f359115E>
  109ca6:	88 44 24 56          	mov    %al,0x56(%rsp)
  109caa:	48 8b 44 24 68       	mov    0x68(%rsp),%rax
  109caf:	8a 4c 24 56          	mov    0x56(%rsp),%cl
  109cb3:	88 08                	mov    %cl,(%rax)
  109cb5:	48 8b 94 24 d8 01 00 	mov    0x1d8(%rsp),%rdx
  109cbc:	00 
  109cbd:	48 83 ea 01          	sub    $0x1,%rdx
  109cc1:	40 0f 92 c6          	setb   %sil
  109cc5:	40 f6 c6 01          	test   $0x1,%sil
  109cc9:	48 89 54 24 48       	mov    %rdx,0x48(%rsp)
  109cce:	0f 85 5f 01 00 00    	jne    109e33 <_ZN4core3fmt3num12GenericRadix7fmt_int17hb9e9f11e0476f4abE+0x533>
  109cd4:	48 8d bc 24 28 02 00 	lea    0x228(%rsp),%rdi
  109cdb:	00 
  109cdc:	48 8d b4 24 20 02 00 	lea    0x220(%rsp),%rsi
  109ce3:	00 
  109ce4:	48 8b 44 24 48       	mov    0x48(%rsp),%rax
  109ce9:	48 89 84 24 d8 01 00 	mov    %rax,0x1d8(%rsp)
  109cf0:	00 
  109cf1:	e8 1a b4 ff ff       	callq  105110 <_ZN4core3cmp5impls54_$LT$impl$u20$core..cmp..PartialEq$u20$for$u20$u64$GT$2eq17h85487a84f5335159E>
  109cf6:	88 44 24 47          	mov    %al,0x47(%rsp)
  109cfa:	8a 44 24 47          	mov    0x47(%rsp),%al
  109cfe:	a8 01                	test   $0x1,%al
  109d00:	0f 85 de fe ff ff    	jne    109be4 <_ZN4core3fmt3num12GenericRadix7fmt_int17hb9e9f11e0476f4abE+0x2e4>
  109d06:	eb 00                	jmp    109d08 <_ZN4core3fmt3num12GenericRadix7fmt_int17hb9e9f11e0476f4abE+0x408>
  109d08:	e9 c0 fe ff ff       	jmpq   109bcd <_ZN4core3fmt3num12GenericRadix7fmt_int17hb9e9f11e0476f4abE+0x2cd>
  109d0d:	b8 40 00 00 00       	mov    $0x40,%eax
  109d12:	89 c6                	mov    %eax,%esi
  109d14:	48 8d bc 24 e0 01 00 	lea    0x1e0(%rsp),%rdi
  109d1b:	00 
  109d1c:	48 8b 8c 24 d8 01 00 	mov    0x1d8(%rsp),%rcx
  109d23:	00 
  109d24:	48 89 8c 24 00 01 00 	mov    %rcx,0x100(%rsp)
  109d2b:	00 
  109d2c:	48 89 8c 24 f0 00 00 	mov    %rcx,0xf0(%rsp)
  109d33:	00 
  109d34:	48 8b 94 24 f0 00 00 	mov    0xf0(%rsp),%rdx
  109d3b:	00 
  109d3c:	e8 df df ff ff       	callq  107d20 <_ZN4core5slice99_$LT$impl$u20$core..ops..Index$LT$core..ops..RangeFrom$LT$usize$GT$$GT$$u20$for$u20$$u5b$T$u5d$$GT$5index17hed84da7d754047aaE>
  109d41:	48 89 44 24 38       	mov    %rax,0x38(%rsp)
  109d46:	48 89 54 24 30       	mov    %rdx,0x30(%rsp)
  109d4b:	48 8b 44 24 38       	mov    0x38(%rsp),%rax
  109d50:	48 89 84 24 38 02 00 	mov    %rax,0x238(%rsp)
  109d57:	00 
  109d58:	48 8b 4c 24 30       	mov    0x30(%rsp),%rcx
  109d5d:	48 89 8c 24 40 02 00 	mov    %rcx,0x240(%rsp)
  109d64:	00 
  109d65:	4c 8b 84 24 38 02 00 	mov    0x238(%rsp),%r8
  109d6c:	00 
  109d6d:	48 89 4c 24 28       	mov    %rcx,0x28(%rsp)
  109d72:	4c 89 44 24 20       	mov    %r8,0x20(%rsp)
  109d77:	48 8b bc 24 d8 00 00 	mov    0xd8(%rsp),%rdi
  109d7e:	00 
  109d7f:	e8 ec 00 00 00       	callq  109e70 <_ZN73_$LT$core..fmt..num..LowerHex$u20$as$u20$core..fmt..num..GenericRadix$GT$6prefix17h95b35c08510a1949E>
  109d84:	48 89 44 24 18       	mov    %rax,0x18(%rsp)
  109d89:	48 89 54 24 10       	mov    %rdx,0x10(%rsp)
  109d8e:	8a 84 24 cf 00 00 00 	mov    0xcf(%rsp),%al
  109d95:	24 01                	and    $0x1,%al
  109d97:	0f b6 f0             	movzbl %al,%esi
  109d9a:	48 8b bc 24 d0 00 00 	mov    0xd0(%rsp),%rdi
  109da1:	00 
  109da2:	48 8b 54 24 18       	mov    0x18(%rsp),%rdx
  109da7:	48 8b 4c 24 10       	mov    0x10(%rsp),%rcx
  109dac:	4c 8b 44 24 20       	mov    0x20(%rsp),%r8
  109db1:	4c 8b 4c 24 28       	mov    0x28(%rsp),%r9
  109db6:	e8 55 2c 00 00       	callq  10ca10 <_ZN4core3fmt9Formatter12pad_integral17h3ecbf5df15337ae3E>
  109dbb:	88 84 24 ef 00 00 00 	mov    %al,0xef(%rsp)
  109dc2:	8a 84 24 ef 00 00 00 	mov    0xef(%rsp),%al
  109dc9:	88 84 24 f8 00 00 00 	mov    %al,0xf8(%rsp)
  109dd0:	8a 84 24 f8 00 00 00 	mov    0xf8(%rsp),%al
  109dd7:	48 81 c4 48 02 00 00 	add    $0x248,%rsp
  109dde:	c3                   	retq   
  109ddf:	48 8b 84 24 b8 00 00 	mov    0xb8(%rsp),%rax
  109de6:	00 
  109de7:	48 8b 8c 24 c0 00 00 	mov    0xc0(%rsp),%rcx
  109dee:	00 
  109def:	48 39 c8             	cmp    %rcx,%rax
  109df2:	48 89 44 24 08       	mov    %rax,0x8(%rsp)
  109df7:	73 16                	jae    109e0f <_ZN4core3fmt3num12GenericRadix7fmt_int17hb9e9f11e0476f4abE+0x50f>
  109df9:	48 8b 44 24 08       	mov    0x8(%rsp),%rax
  109dfe:	c6 00 00             	movb   $0x0,(%rax)
  109e01:	48 83 c0 01          	add    $0x1,%rax
  109e05:	48 89 84 24 b8 00 00 	mov    %rax,0xb8(%rsp)
  109e0c:	00 
  109e0d:	eb d0                	jmp    109ddf <_ZN4core3fmt3num12GenericRadix7fmt_int17hb9e9f11e0476f4abE+0x4df>
  109e0f:	b8 40 00 00 00       	mov    $0x40,%eax
  109e14:	89 c6                	mov    %eax,%esi
  109e16:	48 8d 8c 24 e0 01 00 	lea    0x1e0(%rsp),%rcx
  109e1d:	00 
  109e1e:	48 89 cf             	mov    %rcx,%rdi
  109e21:	e8 ea d9 ff ff       	callq  107810 <_ZN53_$LT$$u5b$T$u5d$$u20$as$u20$core..slice..SliceExt$GT$3len17he17f44d354df8341E>
  109e26:	48 89 84 24 d8 01 00 	mov    %rax,0x1d8(%rsp)
  109e2d:	00 
  109e2e:	e9 49 fb ff ff       	jmpq   10997c <_ZN4core3fmt3num12GenericRadix7fmt_int17hb9e9f11e0476f4abE+0x7c>
  109e33:	48 8d 3d 1e 6c 00 00 	lea    0x6c1e(%rip),%rdi        # 110a58 <panic_loc14720>
  109e3a:	e8 51 b6 ff ff       	callq  105490 <_ZN4core9panicking5panic17h585bd70cda921012E>
  109e3f:	48 8d 3d 3a 6c 00 00 	lea    0x6c3a(%rip),%rdi        # 110a80 <panic_loc14721>
  109e46:	e8 45 b6 ff ff       	callq  105490 <_ZN4core9panicking5panic17h585bd70cda921012E>
  109e4b:	0f 1f 44 00 00       	nopl   0x0(%rax,%rax,1)

0000000000109e50 <_ZN73_$LT$core..fmt..num..LowerHex$u20$as$u20$core..fmt..num..GenericRadix$GT$4base17h8db8b68122324888E>:
  109e50:	48 83 ec 10          	sub    $0x10,%rsp
  109e54:	48 89 3c 24          	mov    %rdi,(%rsp)
  109e58:	eb 00                	jmp    109e5a <_ZN73_$LT$core..fmt..num..LowerHex$u20$as$u20$core..fmt..num..GenericRadix$GT$4base17h8db8b68122324888E+0xa>
  109e5a:	b0 10                	mov    $0x10,%al
  109e5c:	48 83 c4 10          	add    $0x10,%rsp
  109e60:	c3                   	retq   
  109e61:	66 2e 0f 1f 84 00 00 	nopw   %cs:0x0(%rax,%rax,1)
  109e68:	00 00 00 
  109e6b:	0f 1f 44 00 00       	nopl   0x0(%rax,%rax,1)

0000000000109e70 <_ZN73_$LT$core..fmt..num..LowerHex$u20$as$u20$core..fmt..num..GenericRadix$GT$6prefix17h95b35c08510a1949E>:
  109e70:	48 83 ec 18          	sub    $0x18,%rsp
  109e74:	48 89 3c 24          	mov    %rdi,(%rsp)
  109e78:	eb 00                	jmp    109e7a <_ZN73_$LT$core..fmt..num..LowerHex$u20$as$u20$core..fmt..num..GenericRadix$GT$6prefix17h95b35c08510a1949E+0xa>
  109e7a:	48 8d 05 7a 5e 00 00 	lea    0x5e7a(%rip),%rax        # 10fcfb <str14730>
  109e81:	b9 02 00 00 00       	mov    $0x2,%ecx
  109e86:	89 ca                	mov    %ecx,%edx
  109e88:	48 83 c4 18          	add    $0x18,%rsp
  109e8c:	c3                   	retq   
  109e8d:	0f 1f 00             	nopl   (%rax)

0000000000109e90 <_ZN73_$LT$core..fmt..num..LowerHex$u20$as$u20$core..fmt..num..GenericRadix$GT$5digit17h28f4b6253f359115E>:
  109e90:	48 81 ec e8 00 00 00 	sub    $0xe8,%rsp
  109e97:	40 88 f0             	mov    %sil,%al
  109e9a:	88 44 24 57          	mov    %al,0x57(%rsp)
  109e9e:	48 89 7c 24 48       	mov    %rdi,0x48(%rsp)
  109ea3:	31 c0                	xor    %eax,%eax
  109ea5:	88 c1                	mov    %al,%cl
  109ea7:	8a 54 24 57          	mov    0x57(%rsp),%dl
  109eab:	38 d1                	cmp    %dl,%cl
  109ead:	76 0c                	jbe    109ebb <_ZN73_$LT$core..fmt..num..LowerHex$u20$as$u20$core..fmt..num..GenericRadix$GT$5digit17h28f4b6253f359115E+0x2b>
  109eaf:	b0 0a                	mov    $0xa,%al
  109eb1:	8a 4c 24 57          	mov    0x57(%rsp),%cl
  109eb5:	38 c8                	cmp    %cl,%al
  109eb7:	76 55                	jbe    109f0e <_ZN73_$LT$core..fmt..num..LowerHex$u20$as$u20$core..fmt..num..GenericRadix$GT$5digit17h28f4b6253f359115E+0x7e>
  109eb9:	eb 20                	jmp    109edb <_ZN73_$LT$core..fmt..num..LowerHex$u20$as$u20$core..fmt..num..GenericRadix$GT$5digit17h28f4b6253f359115E+0x4b>
  109ebb:	8a 44 24 57          	mov    0x57(%rsp),%al
  109ebf:	3c 09                	cmp    $0x9,%al
  109ec1:	77 ec                	ja     109eaf <_ZN73_$LT$core..fmt..num..LowerHex$u20$as$u20$core..fmt..num..GenericRadix$GT$5digit17h28f4b6253f359115E+0x1f>
  109ec3:	8a 44 24 57          	mov    0x57(%rsp),%al
  109ec7:	04 30                	add    $0x30,%al
  109ec9:	0f 92 c1             	setb   %cl
  109ecc:	f6 c1 01             	test   $0x1,%cl
  109ecf:	88 44 24 47          	mov    %al,0x47(%rsp)
  109ed3:	0f 85 bd 01 00 00    	jne    10a096 <_ZN73_$LT$core..fmt..num..LowerHex$u20$as$u20$core..fmt..num..GenericRadix$GT$5digit17h28f4b6253f359115E+0x206>
  109ed9:	eb 5f                	jmp    109f3a <_ZN73_$LT$core..fmt..num..LowerHex$u20$as$u20$core..fmt..num..GenericRadix$GT$5digit17h28f4b6253f359115E+0xaa>
  109edb:	8a 44 24 57          	mov    0x57(%rsp),%al
  109edf:	88 84 24 e6 00 00 00 	mov    %al,0xe6(%rsp)
  109ee6:	48 8b 35 1b 67 00 00 	mov    0x671b(%rip),%rsi        # 110608 <_ZN4core5slice74_$LT$impl$u20$core..ops..IndexMut$LT$usize$GT$$u20$for$u20$$u5b$T$u5d$$GT$9index_mut14_MSG_FILE_LINE17hdc6d73d2b1d0e93cE+0xe0>
  109eed:	48 8b 15 1c 67 00 00 	mov    0x671c(%rip),%rdx        # 110610 <_ZN4core5slice74_$LT$impl$u20$core..ops..IndexMut$LT$usize$GT$$u20$for$u20$$u5b$T$u5d$$GT$9index_mut14_MSG_FILE_LINE17hdc6d73d2b1d0e93cE+0xe8>
  109ef4:	48 8b 7c 24 48       	mov    0x48(%rsp),%rdi
  109ef9:	48 89 74 24 38       	mov    %rsi,0x38(%rsp)
  109efe:	48 89 54 24 30       	mov    %rdx,0x30(%rsp)
  109f03:	e8 48 ff ff ff       	callq  109e50 <_ZN73_$LT$core..fmt..num..LowerHex$u20$as$u20$core..fmt..num..GenericRadix$GT$4base17h8db8b68122324888E>
  109f08:	88 44 24 2f          	mov    %al,0x2f(%rsp)
  109f0c:	eb 56                	jmp    109f64 <_ZN73_$LT$core..fmt..num..LowerHex$u20$as$u20$core..fmt..num..GenericRadix$GT$5digit17h28f4b6253f359115E+0xd4>
  109f0e:	8a 44 24 57          	mov    0x57(%rsp),%al
  109f12:	3c 0f                	cmp    $0xf,%al
  109f14:	77 c5                	ja     109edb <_ZN73_$LT$core..fmt..num..LowerHex$u20$as$u20$core..fmt..num..GenericRadix$GT$5digit17h28f4b6253f359115E+0x4b>
  109f16:	8a 44 24 57          	mov    0x57(%rsp),%al
  109f1a:	2c 0a                	sub    $0xa,%al
  109f1c:	0f 92 c1             	setb   %cl
  109f1f:	f6 c1 01             	test   $0x1,%cl
  109f22:	88 44 24 2e          	mov    %al,0x2e(%rsp)
  109f26:	0f 85 52 01 00 00    	jne    10a07e <_ZN73_$LT$core..fmt..num..LowerHex$u20$as$u20$core..fmt..num..GenericRadix$GT$5digit17h28f4b6253f359115E+0x1ee>
  109f2c:	eb 16                	jmp    109f44 <_ZN73_$LT$core..fmt..num..LowerHex$u20$as$u20$core..fmt..num..GenericRadix$GT$5digit17h28f4b6253f359115E+0xb4>
  109f2e:	8a 44 24 7e          	mov    0x7e(%rsp),%al
  109f32:	48 81 c4 e8 00 00 00 	add    $0xe8,%rsp
  109f39:	c3                   	retq   
  109f3a:	8a 44 24 47          	mov    0x47(%rsp),%al
  109f3e:	88 44 24 7e          	mov    %al,0x7e(%rsp)
  109f42:	eb ea                	jmp    109f2e <_ZN73_$LT$core..fmt..num..LowerHex$u20$as$u20$core..fmt..num..GenericRadix$GT$5digit17h28f4b6253f359115E+0x9e>
  109f44:	8a 44 24 2e          	mov    0x2e(%rsp),%al
  109f48:	04 61                	add    $0x61,%al
  109f4a:	0f 92 c1             	setb   %cl
  109f4d:	f6 c1 01             	test   $0x1,%cl
  109f50:	88 44 24 2d          	mov    %al,0x2d(%rsp)
  109f54:	0f 85 30 01 00 00    	jne    10a08a <_ZN73_$LT$core..fmt..num..LowerHex$u20$as$u20$core..fmt..num..GenericRadix$GT$5digit17h28f4b6253f359115E+0x1fa>
  109f5a:	8a 44 24 2d          	mov    0x2d(%rsp),%al
  109f5e:	88 44 24 7e          	mov    %al,0x7e(%rsp)
  109f62:	eb ca                	jmp    109f2e <_ZN73_$LT$core..fmt..num..LowerHex$u20$as$u20$core..fmt..num..GenericRadix$GT$5digit17h28f4b6253f359115E+0x9e>
  109f64:	8a 44 24 2f          	mov    0x2f(%rsp),%al
  109f68:	2c 01                	sub    $0x1,%al
  109f6a:	0f 92 c1             	setb   %cl
  109f6d:	f6 c1 01             	test   $0x1,%cl
  109f70:	88 44 24 2c          	mov    %al,0x2c(%rsp)
  109f74:	0f 85 f8 00 00 00    	jne    10a072 <_ZN73_$LT$core..fmt..num..LowerHex$u20$as$u20$core..fmt..num..GenericRadix$GT$5digit17h28f4b6253f359115E+0x1e2>
  109f7a:	48 8d 7c 24 68       	lea    0x68(%rsp),%rdi
  109f7f:	48 8d 15 9a 01 00 00 	lea    0x19a(%rip),%rdx        # 10a120 <_ZN4core3fmt3num51_$LT$impl$u20$core..fmt..Display$u20$for$u20$u8$GT$3fmt17hc78d25573d45800aE>
  109f86:	48 8d 84 24 e6 00 00 	lea    0xe6(%rsp),%rax
  109f8d:	00 
  109f8e:	48 8d 4c 24 7f       	lea    0x7f(%rsp),%rcx
  109f93:	40 8a 74 24 2c       	mov    0x2c(%rsp),%sil
  109f98:	40 88 74 24 7f       	mov    %sil,0x7f(%rsp)
  109f9d:	48 89 8c 24 80 00 00 	mov    %rcx,0x80(%rsp)
  109fa4:	00 
  109fa5:	48 89 84 24 88 00 00 	mov    %rax,0x88(%rsp)
  109fac:	00 
  109fad:	48 8b b4 24 80 00 00 	mov    0x80(%rsp),%rsi
  109fb4:	00 
  109fb5:	48 8b 84 24 88 00 00 	mov    0x88(%rsp),%rax
  109fbc:	00 
  109fbd:	48 89 44 24 20       	mov    %rax,0x20(%rsp)
  109fc2:	e8 b9 1e 00 00       	callq  10be80 <_ZN4core3fmt10ArgumentV13new17h8c23c88fe7a7422cE>
  109fc7:	48 8b 44 24 68       	mov    0x68(%rsp),%rax
  109fcc:	48 8b 4c 24 70       	mov    0x70(%rsp),%rcx
  109fd1:	48 89 44 24 18       	mov    %rax,0x18(%rsp)
  109fd6:	48 89 4c 24 10       	mov    %rcx,0x10(%rsp)
  109fdb:	48 8d 7c 24 58       	lea    0x58(%rsp),%rdi
  109fe0:	48 8d 15 39 01 00 00 	lea    0x139(%rip),%rdx        # 10a120 <_ZN4core3fmt3num51_$LT$impl$u20$core..fmt..Display$u20$for$u20$u8$GT$3fmt17hc78d25573d45800aE>
  109fe7:	48 8b 74 24 20       	mov    0x20(%rsp),%rsi
  109fec:	e8 8f 1e 00 00       	callq  10be80 <_ZN4core3fmt10ArgumentV13new17h8c23c88fe7a7422cE>
  109ff1:	48 8b 54 24 58       	mov    0x58(%rsp),%rdx
  109ff6:	48 8b 74 24 60       	mov    0x60(%rsp),%rsi
  109ffb:	48 89 54 24 08       	mov    %rdx,0x8(%rsp)
  10a000:	48 89 34 24          	mov    %rsi,(%rsp)
  10a004:	48 8d bc 24 b0 00 00 	lea    0xb0(%rsp),%rdi
  10a00b:	00 
  10a00c:	b8 02 00 00 00       	mov    $0x2,%eax
  10a011:	41 89 c0             	mov    %eax,%r8d
  10a014:	48 8d 8c 24 90 00 00 	lea    0x90(%rsp),%rcx
  10a01b:	00 
  10a01c:	48 8b 54 24 18       	mov    0x18(%rsp),%rdx
  10a021:	48 89 94 24 90 00 00 	mov    %rdx,0x90(%rsp)
  10a028:	00 
  10a029:	48 8b 74 24 10       	mov    0x10(%rsp),%rsi
  10a02e:	48 89 b4 24 98 00 00 	mov    %rsi,0x98(%rsp)
  10a035:	00 
  10a036:	4c 8b 4c 24 08       	mov    0x8(%rsp),%r9
  10a03b:	4c 89 8c 24 a0 00 00 	mov    %r9,0xa0(%rsp)
  10a042:	00 
  10a043:	4c 8b 14 24          	mov    (%rsp),%r10
  10a047:	4c 89 94 24 a8 00 00 	mov    %r10,0xa8(%rsp)
  10a04e:	00 
  10a04f:	48 8b 74 24 38       	mov    0x38(%rsp),%rsi
  10a054:	48 8b 54 24 30       	mov    0x30(%rsp),%rdx
  10a059:	e8 62 1f 00 00       	callq  10bfc0 <_ZN4core3fmt9Arguments6new_v117h2ee48eb28c0cff0aE>
  10a05e:	48 8d bc 24 b0 00 00 	lea    0xb0(%rsp),%rdi
  10a065:	00 
  10a066:	48 8d 35 83 65 00 00 	lea    0x6583(%rip),%rsi        # 1105f0 <_ZN4core5slice74_$LT$impl$u20$core..ops..IndexMut$LT$usize$GT$$u20$for$u20$$u5b$T$u5d$$GT$9index_mut14_MSG_FILE_LINE17hdc6d73d2b1d0e93cE+0xc8>
  10a06d:	e8 ee b5 ff ff       	callq  105660 <_ZN4core9panicking9panic_fmt17hb567db798f4a4807E>
  10a072:	48 8d 3d 2f 6a 00 00 	lea    0x6a2f(%rip),%rdi        # 110aa8 <panic_loc14723>
  10a079:	e8 12 b4 ff ff       	callq  105490 <_ZN4core9panicking5panic17h585bd70cda921012E>
  10a07e:	48 8d 3d 6b 6a 00 00 	lea    0x6a6b(%rip),%rdi        # 110af0 <panic_loc14731>
  10a085:	e8 06 b4 ff ff       	callq  105490 <_ZN4core9panicking5panic17h585bd70cda921012E>
  10a08a:	48 8d 3d 87 6a 00 00 	lea    0x6a87(%rip),%rdi        # 110b18 <panic_loc14732>
  10a091:	e8 fa b3 ff ff       	callq  105490 <_ZN4core9panicking5panic17h585bd70cda921012E>
  10a096:	48 8d 3d a3 6a 00 00 	lea    0x6aa3(%rip),%rdi        # 110b40 <panic_loc14733>
  10a09d:	e8 ee b3 ff ff       	callq  105490 <_ZN4core9panicking5panic17h585bd70cda921012E>
  10a0a2:	66 2e 0f 1f 84 00 00 	nopw   %cs:0x0(%rax,%rax,1)
  10a0a9:	00 00 00 
  10a0ac:	0f 1f 40 00          	nopl   0x0(%rax)

000000000010a0b0 <_ZN4core3fmt3num52_$LT$impl$u20$core..fmt..Debug$u20$for$u20$usize$GT$3fmt17h359521c9b9b729e5E>:
  10a0b0:	48 83 ec 28          	sub    $0x28,%rsp
  10a0b4:	48 89 7c 24 08       	mov    %rdi,0x8(%rsp)
  10a0b9:	48 89 34 24          	mov    %rsi,(%rsp)
  10a0bd:	48 8b 7c 24 08       	mov    0x8(%rsp),%rdi
  10a0c2:	48 8b 34 24          	mov    (%rsp),%rsi
  10a0c6:	e8 95 0d 00 00       	callq  10ae60 <_ZN4core3fmt3num54_$LT$impl$u20$core..fmt..Display$u20$for$u20$usize$GT$3fmt17h163484b597e27a9bE>
  10a0cb:	88 44 24 17          	mov    %al,0x17(%rsp)
  10a0cf:	8a 44 24 17          	mov    0x17(%rsp),%al
  10a0d3:	88 44 24 18          	mov    %al,0x18(%rsp)
  10a0d7:	8a 44 24 18          	mov    0x18(%rsp),%al
  10a0db:	48 83 c4 28          	add    $0x28,%rsp
  10a0df:	c3                   	retq   

000000000010a0e0 <_ZN4core3fmt3num53_$LT$impl$u20$core..fmt..LowerHex$u20$for$u20$u64$GT$3fmt17h071989fe5a582119E>:
  10a0e0:	48 83 ec 28          	sub    $0x28,%rsp
  10a0e4:	48 89 7c 24 08       	mov    %rdi,0x8(%rsp)
  10a0e9:	48 89 34 24          	mov    %rsi,(%rsp)
  10a0ed:	48 8b 3d a4 65 00 00 	mov    0x65a4(%rip),%rdi        # 110698 <const14130>
  10a0f4:	48 8b 44 24 08       	mov    0x8(%rsp),%rax
  10a0f9:	48 8b 30             	mov    (%rax),%rsi
  10a0fc:	48 8b 14 24          	mov    (%rsp),%rdx
  10a100:	e8 fb f7 ff ff       	callq  109900 <_ZN4core3fmt3num12GenericRadix7fmt_int17hb9e9f11e0476f4abE>
  10a105:	88 44 24 17          	mov    %al,0x17(%rsp)
  10a109:	8a 44 24 17          	mov    0x17(%rsp),%al
  10a10d:	88 44 24 18          	mov    %al,0x18(%rsp)
  10a111:	8a 44 24 18          	mov    0x18(%rsp),%al
  10a115:	48 83 c4 28          	add    $0x28,%rsp
  10a119:	c3                   	retq   
  10a11a:	66 0f 1f 44 00 00    	nopw   0x0(%rax,%rax,1)

000000000010a120 <_ZN4core3fmt3num51_$LT$impl$u20$core..fmt..Display$u20$for$u20$u8$GT$3fmt17hc78d25573d45800aE>:
  10a120:	48 81 ec 98 01 00 00 	sub    $0x198,%rsp
  10a127:	48 89 bc 24 20 01 00 	mov    %rdi,0x120(%rsp)
  10a12e:	00 
  10a12f:	48 89 b4 24 18 01 00 	mov    %rsi,0x118(%rsp)
  10a136:	00 
  10a137:	48 8b 84 24 20 01 00 	mov    0x120(%rsp),%rax
  10a13e:	00 
  10a13f:	80 38 00             	cmpb   $0x0,(%rax)
  10a142:	0f 93 c1             	setae  %cl
  10a145:	f6 c1 01             	test   $0x1,%cl
  10a148:	88 8c 24 17 01 00 00 	mov    %cl,0x117(%rsp)
  10a14f:	75 02                	jne    10a153 <_ZN4core3fmt3num51_$LT$impl$u20$core..fmt..Display$u20$for$u20$u8$GT$3fmt17hc78d25573d45800aE+0x33>
  10a151:	eb 16                	jmp    10a169 <_ZN4core3fmt3num51_$LT$impl$u20$core..fmt..Display$u20$for$u20$u8$GT$3fmt17hc78d25573d45800aE+0x49>
  10a153:	48 8b bc 24 20 01 00 	mov    0x120(%rsp),%rdi
  10a15a:	00 
  10a15b:	e8 f0 f6 ff ff       	callq  109850 <_ZN42_$LT$u8$u20$as$u20$core..fmt..num..Int$GT$6to_u3217h7fb3b183088ef0d4E>
  10a160:	89 84 24 7c 01 00 00 	mov    %eax,0x17c(%rsp)
  10a167:	eb 31                	jmp    10a19a <_ZN4core3fmt3num51_$LT$impl$u20$core..fmt..Display$u20$for$u20$u8$GT$3fmt17hc78d25573d45800aE+0x7a>
  10a169:	48 8b bc 24 20 01 00 	mov    0x120(%rsp),%rdi
  10a170:	00 
  10a171:	e8 da f6 ff ff       	callq  109850 <_ZN42_$LT$u8$u20$as$u20$core..fmt..num..Int$GT$6to_u3217h7fb3b183088ef0d4E>
  10a176:	89 84 24 10 01 00 00 	mov    %eax,0x110(%rsp)
  10a17d:	be 01 00 00 00       	mov    $0x1,%esi
  10a182:	8b 84 24 10 01 00 00 	mov    0x110(%rsp),%eax
  10a189:	83 f0 ff             	xor    $0xffffffff,%eax
  10a18c:	89 c7                	mov    %eax,%edi
  10a18e:	e8 0d aa ff ff       	callq  104ba0 <_ZN4core3num21_$LT$impl$u20$u32$GT$12wrapping_add17hf16f0110270c0aa9E>
  10a193:	89 84 24 7c 01 00 00 	mov    %eax,0x17c(%rsp)
  10a19a:	48 8d bc 24 68 01 00 	lea    0x168(%rsp),%rdi
  10a1a1:	00 
  10a1a2:	e8 49 ab ff ff       	callq  104cf0 <_ZN4core3mem13uninitialized17h4344f60e5097a3ffE>
  10a1a7:	b8 14 00 00 00       	mov    $0x14,%eax
  10a1ac:	89 c6                	mov    %eax,%esi
  10a1ae:	48 8d 8c 24 68 01 00 	lea    0x168(%rsp),%rcx
  10a1b5:	00 
  10a1b6:	48 89 cf             	mov    %rcx,%rdi
  10a1b9:	e8 52 d6 ff ff       	callq  107810 <_ZN53_$LT$$u5b$T$u5d$$u20$as$u20$core..slice..SliceExt$GT$3len17he17f44d354df8341E>
  10a1be:	48 89 84 24 08 01 00 	mov    %rax,0x108(%rsp)
  10a1c5:	00 
  10a1c6:	b8 14 00 00 00       	mov    $0x14,%eax
  10a1cb:	89 c6                	mov    %eax,%esi
  10a1cd:	48 8d 8c 24 68 01 00 	lea    0x168(%rsp),%rcx
  10a1d4:	00 
  10a1d5:	48 8b 94 24 08 01 00 	mov    0x108(%rsp),%rdx
  10a1dc:	00 
  10a1dd:	48 89 94 24 60 01 00 	mov    %rdx,0x160(%rsp)
  10a1e4:	00 
  10a1e5:	48 89 cf             	mov    %rcx,%rdi
  10a1e8:	e8 93 d7 ff ff       	callq  107980 <_ZN53_$LT$$u5b$T$u5d$$u20$as$u20$core..slice..SliceExt$GT$10as_mut_ptr17h0e56edd2ac4af6b0E>
  10a1ed:	48 89 84 24 00 01 00 	mov    %rax,0x100(%rsp)
  10a1f4:	00 
  10a1f5:	48 8d 3d 01 5b 00 00 	lea    0x5b01(%rip),%rdi        # 10fcfd <byte_str14737>
  10a1fc:	b8 c8 00 00 00       	mov    $0xc8,%eax
  10a201:	89 c6                	mov    %eax,%esi
  10a203:	e8 08 d5 ff ff       	callq  107710 <_ZN53_$LT$$u5b$T$u5d$$u20$as$u20$core..slice..SliceExt$GT$6as_ptr17h7ebcf49c904fbf2fE>
  10a208:	48 89 84 24 f8 00 00 	mov    %rax,0xf8(%rsp)
  10a20f:	00 
  10a210:	e8 6b a9 ff ff       	callq  104b80 <_ZN4core3num20_$LT$impl$u20$u8$GT$9max_value17he98aba8516cdc4dcE>
  10a215:	88 84 24 f7 00 00 00 	mov    %al,0xf7(%rsp)
  10a21c:	8a 84 24 f7 00 00 00 	mov    0xf7(%rsp),%al
  10a223:	0f b6 c8             	movzbl %al,%ecx
  10a226:	89 ca                	mov    %ecx,%edx
  10a228:	48 81 fa 10 27 00 00 	cmp    $0x2710,%rdx
  10a22f:	73 05                	jae    10a236 <_ZN4core3fmt3num51_$LT$impl$u20$core..fmt..Display$u20$for$u20$u8$GT$3fmt17hc78d25573d45800aE+0x116>
  10a231:	e9 f2 01 00 00       	jmpq   10a428 <_ZN4core3fmt3num51_$LT$impl$u20$core..fmt..Display$u20$for$u20$u8$GT$3fmt17hc78d25573d45800aE+0x308>
  10a236:	81 bc 24 7c 01 00 00 	cmpl   $0x2710,0x17c(%rsp)
  10a23d:	10 27 00 00 
  10a241:	73 05                	jae    10a248 <_ZN4core3fmt3num51_$LT$impl$u20$core..fmt..Display$u20$for$u20$u8$GT$3fmt17hc78d25573d45800aE+0x128>
  10a243:	e9 e0 01 00 00       	jmpq   10a428 <_ZN4core3fmt3num51_$LT$impl$u20$core..fmt..Display$u20$for$u20$u8$GT$3fmt17hc78d25573d45800aE+0x308>
  10a248:	8b 84 24 7c 01 00 00 	mov    0x17c(%rsp),%eax
  10a24f:	89 84 24 f0 00 00 00 	mov    %eax,0xf0(%rsp)
  10a256:	b8 10 27 00 00       	mov    $0x2710,%eax
  10a25b:	8b 8c 24 f0 00 00 00 	mov    0xf0(%rsp),%ecx
  10a262:	89 84 24 ec 00 00 00 	mov    %eax,0xec(%rsp)
  10a269:	89 c8                	mov    %ecx,%eax
  10a26b:	31 d2                	xor    %edx,%edx
  10a26d:	8b b4 24 ec 00 00 00 	mov    0xec(%rsp),%esi
  10a274:	f7 f6                	div    %esi
  10a276:	89 d2                	mov    %edx,%edx
  10a278:	89 d7                	mov    %edx,%edi
  10a27a:	48 89 bc 24 e0 00 00 	mov    %rdi,0xe0(%rsp)
  10a281:	00 
  10a282:	b8 10 27 00 00       	mov    $0x2710,%eax
  10a287:	8b 8c 24 7c 01 00 00 	mov    0x17c(%rsp),%ecx
  10a28e:	89 84 24 dc 00 00 00 	mov    %eax,0xdc(%rsp)
  10a295:	89 c8                	mov    %ecx,%eax
  10a297:	31 d2                	xor    %edx,%edx
  10a299:	8b 8c 24 dc 00 00 00 	mov    0xdc(%rsp),%ecx
  10a2a0:	f7 f1                	div    %ecx
  10a2a2:	89 84 24 7c 01 00 00 	mov    %eax,0x17c(%rsp)
  10a2a9:	48 b8 00 00 00 00 00 	movabs $0x8000000000000000,%rax
  10a2b0:	00 00 80 
  10a2b3:	48 8b 8c 24 e0 00 00 	mov    0xe0(%rsp),%rcx
  10a2ba:	00 
  10a2bb:	48 39 c1             	cmp    %rax,%rcx
  10a2be:	0f 94 c2             	sete   %dl
  10a2c1:	80 e2 00             	and    $0x0,%dl
  10a2c4:	f6 c2 01             	test   $0x1,%dl
  10a2c7:	0f 85 c0 04 00 00    	jne    10a78d <_ZN4core3fmt3num51_$LT$impl$u20$core..fmt..Display$u20$for$u20$u8$GT$3fmt17hc78d25573d45800aE+0x66d>
  10a2cd:	b8 64 00 00 00       	mov    $0x64,%eax
  10a2d2:	89 c1                	mov    %eax,%ecx
  10a2d4:	48 8b 84 24 e0 00 00 	mov    0xe0(%rsp),%rax
  10a2db:	00 
  10a2dc:	48 99                	cqto   
  10a2de:	48 f7 f9             	idiv   %rcx
  10a2e1:	48 c1 e0 01          	shl    $0x1,%rax
  10a2e5:	48 89 84 24 d0 00 00 	mov    %rax,0xd0(%rsp)
  10a2ec:	00 
  10a2ed:	eb 00                	jmp    10a2ef <_ZN4core3fmt3num51_$LT$impl$u20$core..fmt..Display$u20$for$u20$u8$GT$3fmt17hc78d25573d45800aE+0x1cf>
  10a2ef:	48 b8 00 00 00 00 00 	movabs $0x8000000000000000,%rax
  10a2f6:	00 00 80 
  10a2f9:	48 8b 8c 24 e0 00 00 	mov    0xe0(%rsp),%rcx
  10a300:	00 
  10a301:	48 39 c1             	cmp    %rax,%rcx
  10a304:	0f 94 c2             	sete   %dl
  10a307:	80 e2 00             	and    $0x0,%dl
  10a30a:	f6 c2 01             	test   $0x1,%dl
  10a30d:	0f 85 86 04 00 00    	jne    10a799 <_ZN4core3fmt3num51_$LT$impl$u20$core..fmt..Display$u20$for$u20$u8$GT$3fmt17hc78d25573d45800aE+0x679>
  10a313:	b8 64 00 00 00       	mov    $0x64,%eax
  10a318:	89 c1                	mov    %eax,%ecx
  10a31a:	48 8b 84 24 e0 00 00 	mov    0xe0(%rsp),%rax
  10a321:	00 
  10a322:	48 99                	cqto   
  10a324:	48 f7 f9             	idiv   %rcx
  10a327:	48 c1 e2 01          	shl    $0x1,%rdx
  10a32b:	48 89 94 24 c8 00 00 	mov    %rdx,0xc8(%rsp)
  10a332:	00 
  10a333:	48 8b 84 24 60 01 00 	mov    0x160(%rsp),%rax
  10a33a:	00 
  10a33b:	48 83 e8 04          	sub    $0x4,%rax
  10a33f:	0f 90 c1             	seto   %cl
  10a342:	f6 c1 01             	test   $0x1,%cl
  10a345:	48 89 84 24 c0 00 00 	mov    %rax,0xc0(%rsp)
  10a34c:	00 
  10a34d:	0f 85 52 04 00 00    	jne    10a7a5 <_ZN4core3fmt3num51_$LT$impl$u20$core..fmt..Display$u20$for$u20$u8$GT$3fmt17hc78d25573d45800aE+0x685>
  10a353:	48 8b 84 24 c0 00 00 	mov    0xc0(%rsp),%rax
  10a35a:	00 
  10a35b:	48 89 84 24 60 01 00 	mov    %rax,0x160(%rsp)
  10a362:	00 
  10a363:	48 8b bc 24 f8 00 00 	mov    0xf8(%rsp),%rdi
  10a36a:	00 
  10a36b:	48 8b b4 24 d0 00 00 	mov    0xd0(%rsp),%rsi
  10a372:	00 
  10a373:	e8 18 ab ff ff       	callq  104e90 <_ZN4core3ptr33_$LT$impl$u20$$BP$const$u20$T$GT$6offset17h0d62b7cbced53ff4E>
  10a378:	48 89 84 24 b8 00 00 	mov    %rax,0xb8(%rsp)
  10a37f:	00 
  10a380:	48 8b b4 24 60 01 00 	mov    0x160(%rsp),%rsi
  10a387:	00 
  10a388:	48 8b bc 24 00 01 00 	mov    0x100(%rsp),%rdi
  10a38f:	00 
  10a390:	e8 2b ac ff ff       	callq  104fc0 <_ZN4core3ptr31_$LT$impl$u20$$BP$mut$u20$T$GT$6offset17hd699195ba756a29fE>
  10a395:	48 89 84 24 b0 00 00 	mov    %rax,0xb0(%rsp)
  10a39c:	00 
  10a39d:	48 8b 84 24 b8 00 00 	mov    0xb8(%rsp),%rax
  10a3a4:	00 
  10a3a5:	66 8b 08             	mov    (%rax),%cx
  10a3a8:	48 8b 94 24 b0 00 00 	mov    0xb0(%rsp),%rdx
  10a3af:	00 
  10a3b0:	66 89 0a             	mov    %cx,(%rdx)
  10a3b3:	48 8b bc 24 f8 00 00 	mov    0xf8(%rsp),%rdi
  10a3ba:	00 
  10a3bb:	48 8b b4 24 c8 00 00 	mov    0xc8(%rsp),%rsi
  10a3c2:	00 
  10a3c3:	e8 c8 aa ff ff       	callq  104e90 <_ZN4core3ptr33_$LT$impl$u20$$BP$const$u20$T$GT$6offset17h0d62b7cbced53ff4E>
  10a3c8:	48 89 84 24 a8 00 00 	mov    %rax,0xa8(%rsp)
  10a3cf:	00 
  10a3d0:	48 8b 84 24 60 01 00 	mov    0x160(%rsp),%rax
  10a3d7:	00 
  10a3d8:	48 83 c0 02          	add    $0x2,%rax
  10a3dc:	0f 90 c1             	seto   %cl
  10a3df:	f6 c1 01             	test   $0x1,%cl
  10a3e2:	48 89 84 24 a0 00 00 	mov    %rax,0xa0(%rsp)
  10a3e9:	00 
  10a3ea:	0f 85 c1 03 00 00    	jne    10a7b1 <_ZN4core3fmt3num51_$LT$impl$u20$core..fmt..Display$u20$for$u20$u8$GT$3fmt17hc78d25573d45800aE+0x691>
  10a3f0:	48 8b bc 24 00 01 00 	mov    0x100(%rsp),%rdi
  10a3f7:	00 
  10a3f8:	48 8b b4 24 a0 00 00 	mov    0xa0(%rsp),%rsi
  10a3ff:	00 
  10a400:	e8 bb ab ff ff       	callq  104fc0 <_ZN4core3ptr31_$LT$impl$u20$$BP$mut$u20$T$GT$6offset17hd699195ba756a29fE>
  10a405:	48 89 84 24 98 00 00 	mov    %rax,0x98(%rsp)
  10a40c:	00 
  10a40d:	48 8b 84 24 a8 00 00 	mov    0xa8(%rsp),%rax
  10a414:	00 
  10a415:	66 8b 08             	mov    (%rax),%cx
  10a418:	48 8b 94 24 98 00 00 	mov    0x98(%rsp),%rdx
  10a41f:	00 
  10a420:	66 89 0a             	mov    %cx,(%rdx)
  10a423:	e9 0e fe ff ff       	jmpq   10a236 <_ZN4core3fmt3num51_$LT$impl$u20$core..fmt..Display$u20$for$u20$u8$GT$3fmt17hc78d25573d45800aE+0x116>
  10a428:	8b 84 24 7c 01 00 00 	mov    0x17c(%rsp),%eax
  10a42f:	89 c1                	mov    %eax,%ecx
  10a431:	48 89 8c 24 58 01 00 	mov    %rcx,0x158(%rsp)
  10a438:	00 
  10a439:	48 83 bc 24 58 01 00 	cmpq   $0x64,0x158(%rsp)
  10a440:	00 64 
  10a442:	7c 12                	jl     10a456 <_ZN4core3fmt3num51_$LT$impl$u20$core..fmt..Display$u20$for$u20$u8$GT$3fmt17hc78d25573d45800aE+0x336>
  10a444:	48 8b 84 24 58 01 00 	mov    0x158(%rsp),%rax
  10a44b:	00 
  10a44c:	48 89 84 24 90 00 00 	mov    %rax,0x90(%rsp)
  10a453:	00 
  10a454:	eb 05                	jmp    10a45b <_ZN4core3fmt3num51_$LT$impl$u20$core..fmt..Display$u20$for$u20$u8$GT$3fmt17hc78d25573d45800aE+0x33b>
  10a456:	e9 fb 00 00 00       	jmpq   10a556 <_ZN4core3fmt3num51_$LT$impl$u20$core..fmt..Display$u20$for$u20$u8$GT$3fmt17hc78d25573d45800aE+0x436>
  10a45b:	48 b8 00 00 00 00 00 	movabs $0x8000000000000000,%rax
  10a462:	00 00 80 
  10a465:	48 8b 8c 24 90 00 00 	mov    0x90(%rsp),%rcx
  10a46c:	00 
  10a46d:	48 39 c1             	cmp    %rax,%rcx
  10a470:	0f 94 c2             	sete   %dl
  10a473:	80 e2 00             	and    $0x0,%dl
  10a476:	f6 c2 01             	test   $0x1,%dl
  10a479:	0f 85 ba 02 00 00    	jne    10a739 <_ZN4core3fmt3num51_$LT$impl$u20$core..fmt..Display$u20$for$u20$u8$GT$3fmt17hc78d25573d45800aE+0x619>
  10a47f:	b8 64 00 00 00       	mov    $0x64,%eax
  10a484:	89 c1                	mov    %eax,%ecx
  10a486:	48 8b 84 24 90 00 00 	mov    0x90(%rsp),%rax
  10a48d:	00 
  10a48e:	48 99                	cqto   
  10a490:	48 f7 f9             	idiv   %rcx
  10a493:	48 c1 e2 01          	shl    $0x1,%rdx
  10a497:	48 89 94 24 88 00 00 	mov    %rdx,0x88(%rsp)
  10a49e:	00 
  10a49f:	eb 00                	jmp    10a4a1 <_ZN4core3fmt3num51_$LT$impl$u20$core..fmt..Display$u20$for$u20$u8$GT$3fmt17hc78d25573d45800aE+0x381>
  10a4a1:	48 b8 00 00 00 00 00 	movabs $0x8000000000000000,%rax
  10a4a8:	00 00 80 
  10a4ab:	48 39 84 24 58 01 00 	cmp    %rax,0x158(%rsp)
  10a4b2:	00 
  10a4b3:	0f 94 c1             	sete   %cl
  10a4b6:	80 e1 00             	and    $0x0,%cl
  10a4b9:	f6 c1 01             	test   $0x1,%cl
  10a4bc:	0f 85 83 02 00 00    	jne    10a745 <_ZN4core3fmt3num51_$LT$impl$u20$core..fmt..Display$u20$for$u20$u8$GT$3fmt17hc78d25573d45800aE+0x625>
  10a4c2:	b8 64 00 00 00       	mov    $0x64,%eax
  10a4c7:	89 c1                	mov    %eax,%ecx
  10a4c9:	48 8b 84 24 58 01 00 	mov    0x158(%rsp),%rax
  10a4d0:	00 
  10a4d1:	48 99                	cqto   
  10a4d3:	48 f7 f9             	idiv   %rcx
  10a4d6:	48 89 84 24 58 01 00 	mov    %rax,0x158(%rsp)
  10a4dd:	00 
  10a4de:	48 8b 84 24 60 01 00 	mov    0x160(%rsp),%rax
  10a4e5:	00 
  10a4e6:	48 83 e8 02          	sub    $0x2,%rax
  10a4ea:	40 0f 90 c6          	seto   %sil
  10a4ee:	40 f6 c6 01          	test   $0x1,%sil
  10a4f2:	48 89 84 24 80 00 00 	mov    %rax,0x80(%rsp)
  10a4f9:	00 
  10a4fa:	0f 85 51 02 00 00    	jne    10a751 <_ZN4core3fmt3num51_$LT$impl$u20$core..fmt..Display$u20$for$u20$u8$GT$3fmt17hc78d25573d45800aE+0x631>
  10a500:	48 8b 84 24 80 00 00 	mov    0x80(%rsp),%rax
  10a507:	00 
  10a508:	48 89 84 24 60 01 00 	mov    %rax,0x160(%rsp)
  10a50f:	00 
  10a510:	48 8b bc 24 f8 00 00 	mov    0xf8(%rsp),%rdi
  10a517:	00 
  10a518:	48 8b b4 24 88 00 00 	mov    0x88(%rsp),%rsi
  10a51f:	00 
  10a520:	e8 6b a9 ff ff       	callq  104e90 <_ZN4core3ptr33_$LT$impl$u20$$BP$const$u20$T$GT$6offset17h0d62b7cbced53ff4E>
  10a525:	48 89 44 24 78       	mov    %rax,0x78(%rsp)
  10a52a:	48 8b b4 24 60 01 00 	mov    0x160(%rsp),%rsi
  10a531:	00 
  10a532:	48 8b bc 24 00 01 00 	mov    0x100(%rsp),%rdi
  10a539:	00 
  10a53a:	e8 81 aa ff ff       	callq  104fc0 <_ZN4core3ptr31_$LT$impl$u20$$BP$mut$u20$T$GT$6offset17hd699195ba756a29fE>
  10a53f:	48 89 44 24 70       	mov    %rax,0x70(%rsp)
  10a544:	48 8b 44 24 78       	mov    0x78(%rsp),%rax
  10a549:	66 8b 08             	mov    (%rax),%cx
  10a54c:	48 8b 54 24 70       	mov    0x70(%rsp),%rdx
  10a551:	66 89 0a             	mov    %cx,(%rdx)
  10a554:	eb 00                	jmp    10a556 <_ZN4core3fmt3num51_$LT$impl$u20$core..fmt..Display$u20$for$u20$u8$GT$3fmt17hc78d25573d45800aE+0x436>
  10a556:	48 83 bc 24 58 01 00 	cmpq   $0xa,0x158(%rsp)
  10a55d:	00 0a 
  10a55f:	7d 1e                	jge    10a57f <_ZN4core3fmt3num51_$LT$impl$u20$core..fmt..Display$u20$for$u20$u8$GT$3fmt17hc78d25573d45800aE+0x45f>
  10a561:	48 8b 84 24 60 01 00 	mov    0x160(%rsp),%rax
  10a568:	00 
  10a569:	48 ff c8             	dec    %rax
  10a56c:	0f 90 c1             	seto   %cl
  10a56f:	f6 c1 01             	test   $0x1,%cl
  10a572:	48 89 44 24 68       	mov    %rax,0x68(%rsp)
  10a577:	0f 85 ec 01 00 00    	jne    10a769 <_ZN4core3fmt3num51_$LT$impl$u20$core..fmt..Display$u20$for$u20$u8$GT$3fmt17hc78d25573d45800aE+0x649>
  10a57d:	eb 13                	jmp    10a592 <_ZN4core3fmt3num51_$LT$impl$u20$core..fmt..Display$u20$for$u20$u8$GT$3fmt17hc78d25573d45800aE+0x472>
  10a57f:	48 8b 84 24 58 01 00 	mov    0x158(%rsp),%rax
  10a586:	00 
  10a587:	48 c1 e0 01          	shl    $0x1,%rax
  10a58b:	48 89 44 24 60       	mov    %rax,0x60(%rsp)
  10a590:	eb 53                	jmp    10a5e5 <_ZN4core3fmt3num51_$LT$impl$u20$core..fmt..Display$u20$for$u20$u8$GT$3fmt17hc78d25573d45800aE+0x4c5>
  10a592:	48 8b 44 24 68       	mov    0x68(%rsp),%rax
  10a597:	48 89 84 24 60 01 00 	mov    %rax,0x160(%rsp)
  10a59e:	00 
  10a59f:	48 8b 8c 24 58 01 00 	mov    0x158(%rsp),%rcx
  10a5a6:	00 
  10a5a7:	88 ca                	mov    %cl,%dl
  10a5a9:	80 c2 30             	add    $0x30,%dl
  10a5ac:	40 0f 92 c6          	setb   %sil
  10a5b0:	40 f6 c6 01          	test   $0x1,%sil
  10a5b4:	88 54 24 5f          	mov    %dl,0x5f(%rsp)
  10a5b8:	0f 85 b7 01 00 00    	jne    10a775 <_ZN4core3fmt3num51_$LT$impl$u20$core..fmt..Display$u20$for$u20$u8$GT$3fmt17hc78d25573d45800aE+0x655>
  10a5be:	48 8b b4 24 60 01 00 	mov    0x160(%rsp),%rsi
  10a5c5:	00 
  10a5c6:	48 8b bc 24 00 01 00 	mov    0x100(%rsp),%rdi
  10a5cd:	00 
  10a5ce:	e8 ed a9 ff ff       	callq  104fc0 <_ZN4core3ptr31_$LT$impl$u20$$BP$mut$u20$T$GT$6offset17hd699195ba756a29fE>
  10a5d3:	48 89 44 24 50       	mov    %rax,0x50(%rsp)
  10a5d8:	48 8b 44 24 50       	mov    0x50(%rsp),%rax
  10a5dd:	8a 4c 24 5f          	mov    0x5f(%rsp),%cl
  10a5e1:	88 08                	mov    %cl,(%rax)
  10a5e3:	eb 6d                	jmp    10a652 <_ZN4core3fmt3num51_$LT$impl$u20$core..fmt..Display$u20$for$u20$u8$GT$3fmt17hc78d25573d45800aE+0x532>
  10a5e5:	48 8b 84 24 60 01 00 	mov    0x160(%rsp),%rax
  10a5ec:	00 
  10a5ed:	48 83 e8 02          	sub    $0x2,%rax
  10a5f1:	0f 90 c1             	seto   %cl
  10a5f4:	f6 c1 01             	test   $0x1,%cl
  10a5f7:	48 89 44 24 48       	mov    %rax,0x48(%rsp)
  10a5fc:	0f 85 5b 01 00 00    	jne    10a75d <_ZN4core3fmt3num51_$LT$impl$u20$core..fmt..Display$u20$for$u20$u8$GT$3fmt17hc78d25573d45800aE+0x63d>
  10a602:	48 8b 44 24 48       	mov    0x48(%rsp),%rax
  10a607:	48 89 84 24 60 01 00 	mov    %rax,0x160(%rsp)
  10a60e:	00 
  10a60f:	48 8b bc 24 f8 00 00 	mov    0xf8(%rsp),%rdi
  10a616:	00 
  10a617:	48 8b 74 24 60       	mov    0x60(%rsp),%rsi
  10a61c:	e8 6f a8 ff ff       	callq  104e90 <_ZN4core3ptr33_$LT$impl$u20$$BP$const$u20$T$GT$6offset17h0d62b7cbced53ff4E>
  10a621:	48 89 44 24 40       	mov    %rax,0x40(%rsp)
  10a626:	48 8b b4 24 60 01 00 	mov    0x160(%rsp),%rsi
  10a62d:	00 
  10a62e:	48 8b bc 24 00 01 00 	mov    0x100(%rsp),%rdi
  10a635:	00 
  10a636:	e8 85 a9 ff ff       	callq  104fc0 <_ZN4core3ptr31_$LT$impl$u20$$BP$mut$u20$T$GT$6offset17hd699195ba756a29fE>
  10a63b:	48 89 44 24 38       	mov    %rax,0x38(%rsp)
  10a640:	48 8b 44 24 40       	mov    0x40(%rsp),%rax
  10a645:	66 8b 08             	mov    (%rax),%cx
  10a648:	48 8b 54 24 38       	mov    0x38(%rsp),%rdx
  10a64d:	66 89 0a             	mov    %cx,(%rdx)
  10a650:	eb 00                	jmp    10a652 <_ZN4core3fmt3num51_$LT$impl$u20$core..fmt..Display$u20$for$u20$u8$GT$3fmt17hc78d25573d45800aE+0x532>
  10a652:	48 8b b4 24 60 01 00 	mov    0x160(%rsp),%rsi
  10a659:	00 
  10a65a:	48 8b bc 24 00 01 00 	mov    0x100(%rsp),%rdi
  10a661:	00 
  10a662:	e8 59 a9 ff ff       	callq  104fc0 <_ZN4core3ptr31_$LT$impl$u20$$BP$mut$u20$T$GT$6offset17hd699195ba756a29fE>
  10a667:	48 89 44 24 30       	mov    %rax,0x30(%rsp)
  10a66c:	b8 14 00 00 00       	mov    $0x14,%eax
  10a671:	89 c6                	mov    %eax,%esi
  10a673:	48 8d 8c 24 68 01 00 	lea    0x168(%rsp),%rcx
  10a67a:	00 
  10a67b:	48 89 cf             	mov    %rcx,%rdi
  10a67e:	e8 8d d1 ff ff       	callq  107810 <_ZN53_$LT$$u5b$T$u5d$$u20$as$u20$core..slice..SliceExt$GT$3len17he17f44d354df8341E>
  10a683:	48 89 44 24 28       	mov    %rax,0x28(%rsp)
  10a688:	48 8b 44 24 28       	mov    0x28(%rsp),%rax
  10a68d:	48 2b 84 24 60 01 00 	sub    0x160(%rsp),%rax
  10a694:	00 
  10a695:	0f 92 c1             	setb   %cl
  10a698:	f6 c1 01             	test   $0x1,%cl
  10a69b:	48 89 44 24 20       	mov    %rax,0x20(%rsp)
  10a6a0:	0f 85 db 00 00 00    	jne    10a781 <_ZN4core3fmt3num51_$LT$impl$u20$core..fmt..Display$u20$for$u20$u8$GT$3fmt17hc78d25573d45800aE+0x661>
  10a6a6:	48 8b 7c 24 30       	mov    0x30(%rsp),%rdi
  10a6ab:	48 8b 74 24 20       	mov    0x20(%rsp),%rsi
  10a6b0:	e8 7b dd ff ff       	callq  108430 <_ZN4core5slice14from_raw_parts17h5f9d4399cfe98556E>
  10a6b5:	48 89 44 24 18       	mov    %rax,0x18(%rsp)
  10a6ba:	48 89 54 24 10       	mov    %rdx,0x10(%rsp)
  10a6bf:	48 8b 44 24 18       	mov    0x18(%rsp),%rax
  10a6c4:	48 89 84 24 88 01 00 	mov    %rax,0x188(%rsp)
  10a6cb:	00 
  10a6cc:	48 8b 4c 24 10       	mov    0x10(%rsp),%rcx
  10a6d1:	48 89 8c 24 90 01 00 	mov    %rcx,0x190(%rsp)
  10a6d8:	00 
  10a6d9:	4c 8b 84 24 88 01 00 	mov    0x188(%rsp),%r8
  10a6e0:	00 
  10a6e1:	48 89 4c 24 08       	mov    %rcx,0x8(%rsp)
  10a6e6:	4c 89 04 24          	mov    %r8,(%rsp)
  10a6ea:	8a 84 24 17 01 00 00 	mov    0x117(%rsp),%al
  10a6f1:	24 01                	and    $0x1,%al
  10a6f3:	0f b6 f0             	movzbl %al,%esi
  10a6f6:	48 8d 15 9c 51 00 00 	lea    0x519c(%rip),%rdx        # 10f899 <ref14129>
  10a6fd:	31 c9                	xor    %ecx,%ecx
  10a6ff:	48 8b bc 24 18 01 00 	mov    0x118(%rsp),%rdi
  10a706:	00 
  10a707:	4c 8b 04 24          	mov    (%rsp),%r8
  10a70b:	4c 8b 4c 24 08       	mov    0x8(%rsp),%r9
  10a710:	e8 fb 22 00 00       	callq  10ca10 <_ZN4core3fmt9Formatter12pad_integral17h3ecbf5df15337ae3E>
  10a715:	88 84 24 2f 01 00 00 	mov    %al,0x12f(%rsp)
  10a71c:	8a 84 24 2f 01 00 00 	mov    0x12f(%rsp),%al
  10a723:	88 84 24 30 01 00 00 	mov    %al,0x130(%rsp)
  10a72a:	8a 84 24 30 01 00 00 	mov    0x130(%rsp),%al
  10a731:	48 81 c4 98 01 00 00 	add    $0x198,%rsp
  10a738:	c3                   	retq   
  10a739:	48 8d 3d 28 64 00 00 	lea    0x6428(%rip),%rdi        # 110b68 <panic_loc14738>
  10a740:	e8 4b ad ff ff       	callq  105490 <_ZN4core9panicking5panic17h585bd70cda921012E>
  10a745:	48 8d 3d 44 64 00 00 	lea    0x6444(%rip),%rdi        # 110b90 <panic_loc14739>
  10a74c:	e8 3f ad ff ff       	callq  105490 <_ZN4core9panicking5panic17h585bd70cda921012E>
  10a751:	48 8d 3d 60 64 00 00 	lea    0x6460(%rip),%rdi        # 110bb8 <panic_loc14740>
  10a758:	e8 33 ad ff ff       	callq  105490 <_ZN4core9panicking5panic17h585bd70cda921012E>
  10a75d:	48 8d 3d 7c 64 00 00 	lea    0x647c(%rip),%rdi        # 110be0 <panic_loc14741>
  10a764:	e8 27 ad ff ff       	callq  105490 <_ZN4core9panicking5panic17h585bd70cda921012E>
  10a769:	48 8d 3d 98 64 00 00 	lea    0x6498(%rip),%rdi        # 110c08 <panic_loc14742>
  10a770:	e8 1b ad ff ff       	callq  105490 <_ZN4core9panicking5panic17h585bd70cda921012E>
  10a775:	48 8d 3d b4 64 00 00 	lea    0x64b4(%rip),%rdi        # 110c30 <panic_loc14743>
  10a77c:	e8 0f ad ff ff       	callq  105490 <_ZN4core9panicking5panic17h585bd70cda921012E>
  10a781:	48 8d 3d d0 64 00 00 	lea    0x64d0(%rip),%rdi        # 110c58 <panic_loc14744>
  10a788:	e8 03 ad ff ff       	callq  105490 <_ZN4core9panicking5panic17h585bd70cda921012E>
  10a78d:	48 8d 3d ec 64 00 00 	lea    0x64ec(%rip),%rdi        # 110c80 <panic_loc14745>
  10a794:	e8 f7 ac ff ff       	callq  105490 <_ZN4core9panicking5panic17h585bd70cda921012E>
  10a799:	48 8d 3d 08 65 00 00 	lea    0x6508(%rip),%rdi        # 110ca8 <panic_loc14746>
  10a7a0:	e8 eb ac ff ff       	callq  105490 <_ZN4core9panicking5panic17h585bd70cda921012E>
  10a7a5:	48 8d 3d 24 65 00 00 	lea    0x6524(%rip),%rdi        # 110cd0 <panic_loc14747>
  10a7ac:	e8 df ac ff ff       	callq  105490 <_ZN4core9panicking5panic17h585bd70cda921012E>
  10a7b1:	48 8d 3d 40 65 00 00 	lea    0x6540(%rip),%rdi        # 110cf8 <panic_loc14748>
  10a7b8:	e8 d3 ac ff ff       	callq  105490 <_ZN4core9panicking5panic17h585bd70cda921012E>
  10a7bd:	0f 1f 00             	nopl   (%rax)

000000000010a7c0 <_ZN4core3fmt3num52_$LT$impl$u20$core..fmt..Display$u20$for$u20$u32$GT$3fmt17hba040a675ed7e801E>:
  10a7c0:	48 81 ec 98 01 00 00 	sub    $0x198,%rsp
  10a7c7:	48 89 bc 24 20 01 00 	mov    %rdi,0x120(%rsp)
  10a7ce:	00 
  10a7cf:	48 89 b4 24 18 01 00 	mov    %rsi,0x118(%rsp)
  10a7d6:	00 
  10a7d7:	48 8b 84 24 20 01 00 	mov    0x120(%rsp),%rax
  10a7de:	00 
  10a7df:	83 38 00             	cmpl   $0x0,(%rax)
  10a7e2:	0f 93 c1             	setae  %cl
  10a7e5:	f6 c1 01             	test   $0x1,%cl
  10a7e8:	88 8c 24 17 01 00 00 	mov    %cl,0x117(%rsp)
  10a7ef:	75 02                	jne    10a7f3 <_ZN4core3fmt3num52_$LT$impl$u20$core..fmt..Display$u20$for$u20$u32$GT$3fmt17hba040a675ed7e801E+0x33>
  10a7f1:	eb 16                	jmp    10a809 <_ZN4core3fmt3num52_$LT$impl$u20$core..fmt..Display$u20$for$u20$u32$GT$3fmt17hba040a675ed7e801E+0x49>
  10a7f3:	48 8b bc 24 20 01 00 	mov    0x120(%rsp),%rdi
  10a7fa:	00 
  10a7fb:	e8 70 f0 ff ff       	callq  109870 <_ZN43_$LT$u32$u20$as$u20$core..fmt..num..Int$GT$6to_u3217h4b04b3c1988bc311E>
  10a800:	89 84 24 7c 01 00 00 	mov    %eax,0x17c(%rsp)
  10a807:	eb 31                	jmp    10a83a <_ZN4core3fmt3num52_$LT$impl$u20$core..fmt..Display$u20$for$u20$u32$GT$3fmt17hba040a675ed7e801E+0x7a>
  10a809:	48 8b bc 24 20 01 00 	mov    0x120(%rsp),%rdi
  10a810:	00 
  10a811:	e8 5a f0 ff ff       	callq  109870 <_ZN43_$LT$u32$u20$as$u20$core..fmt..num..Int$GT$6to_u3217h4b04b3c1988bc311E>
  10a816:	89 84 24 10 01 00 00 	mov    %eax,0x110(%rsp)
  10a81d:	be 01 00 00 00       	mov    $0x1,%esi
  10a822:	8b 84 24 10 01 00 00 	mov    0x110(%rsp),%eax
  10a829:	83 f0 ff             	xor    $0xffffffff,%eax
  10a82c:	89 c7                	mov    %eax,%edi
  10a82e:	e8 6d a3 ff ff       	callq  104ba0 <_ZN4core3num21_$LT$impl$u20$u32$GT$12wrapping_add17hf16f0110270c0aa9E>
  10a833:	89 84 24 7c 01 00 00 	mov    %eax,0x17c(%rsp)
  10a83a:	48 8d bc 24 68 01 00 	lea    0x168(%rsp),%rdi
  10a841:	00 
  10a842:	e8 a9 a4 ff ff       	callq  104cf0 <_ZN4core3mem13uninitialized17h4344f60e5097a3ffE>
  10a847:	b8 14 00 00 00       	mov    $0x14,%eax
  10a84c:	89 c6                	mov    %eax,%esi
  10a84e:	48 8d 8c 24 68 01 00 	lea    0x168(%rsp),%rcx
  10a855:	00 
  10a856:	48 89 cf             	mov    %rcx,%rdi
  10a859:	e8 b2 cf ff ff       	callq  107810 <_ZN53_$LT$$u5b$T$u5d$$u20$as$u20$core..slice..SliceExt$GT$3len17he17f44d354df8341E>
  10a85e:	48 89 84 24 08 01 00 	mov    %rax,0x108(%rsp)
  10a865:	00 
  10a866:	b8 14 00 00 00       	mov    $0x14,%eax
  10a86b:	89 c6                	mov    %eax,%esi
  10a86d:	48 8d 8c 24 68 01 00 	lea    0x168(%rsp),%rcx
  10a874:	00 
  10a875:	48 8b 94 24 08 01 00 	mov    0x108(%rsp),%rdx
  10a87c:	00 
  10a87d:	48 89 94 24 60 01 00 	mov    %rdx,0x160(%rsp)
  10a884:	00 
  10a885:	48 89 cf             	mov    %rcx,%rdi
  10a888:	e8 f3 d0 ff ff       	callq  107980 <_ZN53_$LT$$u5b$T$u5d$$u20$as$u20$core..slice..SliceExt$GT$10as_mut_ptr17h0e56edd2ac4af6b0E>
  10a88d:	48 89 84 24 00 01 00 	mov    %rax,0x100(%rsp)
  10a894:	00 
  10a895:	48 8d 3d 61 54 00 00 	lea    0x5461(%rip),%rdi        # 10fcfd <byte_str14737>
  10a89c:	b8 c8 00 00 00       	mov    $0xc8,%eax
  10a8a1:	89 c6                	mov    %eax,%esi
  10a8a3:	e8 68 ce ff ff       	callq  107710 <_ZN53_$LT$$u5b$T$u5d$$u20$as$u20$core..slice..SliceExt$GT$6as_ptr17h7ebcf49c904fbf2fE>
  10a8a8:	48 89 84 24 f8 00 00 	mov    %rax,0xf8(%rsp)
  10a8af:	00 
  10a8b0:	e8 db a2 ff ff       	callq  104b90 <_ZN4core3num21_$LT$impl$u20$u32$GT$9max_value17hea799cf529f65d01E>
  10a8b5:	89 84 24 f4 00 00 00 	mov    %eax,0xf4(%rsp)
  10a8bc:	8b 84 24 f4 00 00 00 	mov    0xf4(%rsp),%eax
  10a8c3:	89 c1                	mov    %eax,%ecx
  10a8c5:	89 ca                	mov    %ecx,%edx
  10a8c7:	48 81 fa 10 27 00 00 	cmp    $0x2710,%rdx
  10a8ce:	73 05                	jae    10a8d5 <_ZN4core3fmt3num52_$LT$impl$u20$core..fmt..Display$u20$for$u20$u32$GT$3fmt17hba040a675ed7e801E+0x115>
  10a8d0:	e9 f2 01 00 00       	jmpq   10aac7 <_ZN4core3fmt3num52_$LT$impl$u20$core..fmt..Display$u20$for$u20$u32$GT$3fmt17hba040a675ed7e801E+0x307>
  10a8d5:	81 bc 24 7c 01 00 00 	cmpl   $0x2710,0x17c(%rsp)
  10a8dc:	10 27 00 00 
  10a8e0:	73 05                	jae    10a8e7 <_ZN4core3fmt3num52_$LT$impl$u20$core..fmt..Display$u20$for$u20$u32$GT$3fmt17hba040a675ed7e801E+0x127>
  10a8e2:	e9 e0 01 00 00       	jmpq   10aac7 <_ZN4core3fmt3num52_$LT$impl$u20$core..fmt..Display$u20$for$u20$u32$GT$3fmt17hba040a675ed7e801E+0x307>
  10a8e7:	8b 84 24 7c 01 00 00 	mov    0x17c(%rsp),%eax
  10a8ee:	89 84 24 f0 00 00 00 	mov    %eax,0xf0(%rsp)
  10a8f5:	b8 10 27 00 00       	mov    $0x2710,%eax
  10a8fa:	8b 8c 24 f0 00 00 00 	mov    0xf0(%rsp),%ecx
  10a901:	89 84 24 ec 00 00 00 	mov    %eax,0xec(%rsp)
  10a908:	89 c8                	mov    %ecx,%eax
  10a90a:	31 d2                	xor    %edx,%edx
  10a90c:	8b b4 24 ec 00 00 00 	mov    0xec(%rsp),%esi
  10a913:	f7 f6                	div    %esi
  10a915:	89 d2                	mov    %edx,%edx
  10a917:	89 d7                	mov    %edx,%edi
  10a919:	48 89 bc 24 e0 00 00 	mov    %rdi,0xe0(%rsp)
  10a920:	00 
  10a921:	b8 10 27 00 00       	mov    $0x2710,%eax
  10a926:	8b 8c 24 7c 01 00 00 	mov    0x17c(%rsp),%ecx
  10a92d:	89 84 24 dc 00 00 00 	mov    %eax,0xdc(%rsp)
  10a934:	89 c8                	mov    %ecx,%eax
  10a936:	31 d2                	xor    %edx,%edx
  10a938:	8b 8c 24 dc 00 00 00 	mov    0xdc(%rsp),%ecx
  10a93f:	f7 f1                	div    %ecx
  10a941:	89 84 24 7c 01 00 00 	mov    %eax,0x17c(%rsp)
  10a948:	48 b8 00 00 00 00 00 	movabs $0x8000000000000000,%rax
  10a94f:	00 00 80 
  10a952:	48 8b 8c 24 e0 00 00 	mov    0xe0(%rsp),%rcx
  10a959:	00 
  10a95a:	48 39 c1             	cmp    %rax,%rcx
  10a95d:	0f 94 c2             	sete   %dl
  10a960:	80 e2 00             	and    $0x0,%dl
  10a963:	f6 c2 01             	test   $0x1,%dl
  10a966:	0f 85 c0 04 00 00    	jne    10ae2c <_ZN4core3fmt3num52_$LT$impl$u20$core..fmt..Display$u20$for$u20$u32$GT$3fmt17hba040a675ed7e801E+0x66c>
  10a96c:	b8 64 00 00 00       	mov    $0x64,%eax
  10a971:	89 c1                	mov    %eax,%ecx
  10a973:	48 8b 84 24 e0 00 00 	mov    0xe0(%rsp),%rax
  10a97a:	00 
  10a97b:	48 99                	cqto   
  10a97d:	48 f7 f9             	idiv   %rcx
  10a980:	48 c1 e0 01          	shl    $0x1,%rax
  10a984:	48 89 84 24 d0 00 00 	mov    %rax,0xd0(%rsp)
  10a98b:	00 
  10a98c:	eb 00                	jmp    10a98e <_ZN4core3fmt3num52_$LT$impl$u20$core..fmt..Display$u20$for$u20$u32$GT$3fmt17hba040a675ed7e801E+0x1ce>
  10a98e:	48 b8 00 00 00 00 00 	movabs $0x8000000000000000,%rax
  10a995:	00 00 80 
  10a998:	48 8b 8c 24 e0 00 00 	mov    0xe0(%rsp),%rcx
  10a99f:	00 
  10a9a0:	48 39 c1             	cmp    %rax,%rcx
  10a9a3:	0f 94 c2             	sete   %dl
  10a9a6:	80 e2 00             	and    $0x0,%dl
  10a9a9:	f6 c2 01             	test   $0x1,%dl
  10a9ac:	0f 85 86 04 00 00    	jne    10ae38 <_ZN4core3fmt3num52_$LT$impl$u20$core..fmt..Display$u20$for$u20$u32$GT$3fmt17hba040a675ed7e801E+0x678>
  10a9b2:	b8 64 00 00 00       	mov    $0x64,%eax
  10a9b7:	89 c1                	mov    %eax,%ecx
  10a9b9:	48 8b 84 24 e0 00 00 	mov    0xe0(%rsp),%rax
  10a9c0:	00 
  10a9c1:	48 99                	cqto   
  10a9c3:	48 f7 f9             	idiv   %rcx
  10a9c6:	48 c1 e2 01          	shl    $0x1,%rdx
  10a9ca:	48 89 94 24 c8 00 00 	mov    %rdx,0xc8(%rsp)
  10a9d1:	00 
  10a9d2:	48 8b 84 24 60 01 00 	mov    0x160(%rsp),%rax
  10a9d9:	00 
  10a9da:	48 83 e8 04          	sub    $0x4,%rax
  10a9de:	0f 90 c1             	seto   %cl
  10a9e1:	f6 c1 01             	test   $0x1,%cl
  10a9e4:	48 89 84 24 c0 00 00 	mov    %rax,0xc0(%rsp)
  10a9eb:	00 
  10a9ec:	0f 85 52 04 00 00    	jne    10ae44 <_ZN4core3fmt3num52_$LT$impl$u20$core..fmt..Display$u20$for$u20$u32$GT$3fmt17hba040a675ed7e801E+0x684>
  10a9f2:	48 8b 84 24 c0 00 00 	mov    0xc0(%rsp),%rax
  10a9f9:	00 
  10a9fa:	48 89 84 24 60 01 00 	mov    %rax,0x160(%rsp)
  10aa01:	00 
  10aa02:	48 8b bc 24 f8 00 00 	mov    0xf8(%rsp),%rdi
  10aa09:	00 
  10aa0a:	48 8b b4 24 d0 00 00 	mov    0xd0(%rsp),%rsi
  10aa11:	00 
  10aa12:	e8 79 a4 ff ff       	callq  104e90 <_ZN4core3ptr33_$LT$impl$u20$$BP$const$u20$T$GT$6offset17h0d62b7cbced53ff4E>
  10aa17:	48 89 84 24 b8 00 00 	mov    %rax,0xb8(%rsp)
  10aa1e:	00 
  10aa1f:	48 8b b4 24 60 01 00 	mov    0x160(%rsp),%rsi
  10aa26:	00 
  10aa27:	48 8b bc 24 00 01 00 	mov    0x100(%rsp),%rdi
  10aa2e:	00 
  10aa2f:	e8 8c a5 ff ff       	callq  104fc0 <_ZN4core3ptr31_$LT$impl$u20$$BP$mut$u20$T$GT$6offset17hd699195ba756a29fE>
  10aa34:	48 89 84 24 b0 00 00 	mov    %rax,0xb0(%rsp)
  10aa3b:	00 
  10aa3c:	48 8b 84 24 b8 00 00 	mov    0xb8(%rsp),%rax
  10aa43:	00 
  10aa44:	66 8b 08             	mov    (%rax),%cx
  10aa47:	48 8b 94 24 b0 00 00 	mov    0xb0(%rsp),%rdx
  10aa4e:	00 
  10aa4f:	66 89 0a             	mov    %cx,(%rdx)
  10aa52:	48 8b bc 24 f8 00 00 	mov    0xf8(%rsp),%rdi
  10aa59:	00 
  10aa5a:	48 8b b4 24 c8 00 00 	mov    0xc8(%rsp),%rsi
  10aa61:	00 
  10aa62:	e8 29 a4 ff ff       	callq  104e90 <_ZN4core3ptr33_$LT$impl$u20$$BP$const$u20$T$GT$6offset17h0d62b7cbced53ff4E>
  10aa67:	48 89 84 24 a8 00 00 	mov    %rax,0xa8(%rsp)
  10aa6e:	00 
  10aa6f:	48 8b 84 24 60 01 00 	mov    0x160(%rsp),%rax
  10aa76:	00 
  10aa77:	48 83 c0 02          	add    $0x2,%rax
  10aa7b:	0f 90 c1             	seto   %cl
  10aa7e:	f6 c1 01             	test   $0x1,%cl
  10aa81:	48 89 84 24 a0 00 00 	mov    %rax,0xa0(%rsp)
  10aa88:	00 
  10aa89:	0f 85 c1 03 00 00    	jne    10ae50 <_ZN4core3fmt3num52_$LT$impl$u20$core..fmt..Display$u20$for$u20$u32$GT$3fmt17hba040a675ed7e801E+0x690>
  10aa8f:	48 8b bc 24 00 01 00 	mov    0x100(%rsp),%rdi
  10aa96:	00 
  10aa97:	48 8b b4 24 a0 00 00 	mov    0xa0(%rsp),%rsi
  10aa9e:	00 
  10aa9f:	e8 1c a5 ff ff       	callq  104fc0 <_ZN4core3ptr31_$LT$impl$u20$$BP$mut$u20$T$GT$6offset17hd699195ba756a29fE>
  10aaa4:	48 89 84 24 98 00 00 	mov    %rax,0x98(%rsp)
  10aaab:	00 
  10aaac:	48 8b 84 24 a8 00 00 	mov    0xa8(%rsp),%rax
  10aab3:	00 
  10aab4:	66 8b 08             	mov    (%rax),%cx
  10aab7:	48 8b 94 24 98 00 00 	mov    0x98(%rsp),%rdx
  10aabe:	00 
  10aabf:	66 89 0a             	mov    %cx,(%rdx)
  10aac2:	e9 0e fe ff ff       	jmpq   10a8d5 <_ZN4core3fmt3num52_$LT$impl$u20$core..fmt..Display$u20$for$u20$u32$GT$3fmt17hba040a675ed7e801E+0x115>
  10aac7:	8b 84 24 7c 01 00 00 	mov    0x17c(%rsp),%eax
  10aace:	89 c1                	mov    %eax,%ecx
  10aad0:	48 89 8c 24 58 01 00 	mov    %rcx,0x158(%rsp)
  10aad7:	00 
  10aad8:	48 83 bc 24 58 01 00 	cmpq   $0x64,0x158(%rsp)
  10aadf:	00 64 
  10aae1:	7c 12                	jl     10aaf5 <_ZN4core3fmt3num52_$LT$impl$u20$core..fmt..Display$u20$for$u20$u32$GT$3fmt17hba040a675ed7e801E+0x335>
  10aae3:	48 8b 84 24 58 01 00 	mov    0x158(%rsp),%rax
  10aaea:	00 
  10aaeb:	48 89 84 24 90 00 00 	mov    %rax,0x90(%rsp)
  10aaf2:	00 
  10aaf3:	eb 05                	jmp    10aafa <_ZN4core3fmt3num52_$LT$impl$u20$core..fmt..Display$u20$for$u20$u32$GT$3fmt17hba040a675ed7e801E+0x33a>
  10aaf5:	e9 fb 00 00 00       	jmpq   10abf5 <_ZN4core3fmt3num52_$LT$impl$u20$core..fmt..Display$u20$for$u20$u32$GT$3fmt17hba040a675ed7e801E+0x435>
  10aafa:	48 b8 00 00 00 00 00 	movabs $0x8000000000000000,%rax
  10ab01:	00 00 80 
  10ab04:	48 8b 8c 24 90 00 00 	mov    0x90(%rsp),%rcx
  10ab0b:	00 
  10ab0c:	48 39 c1             	cmp    %rax,%rcx
  10ab0f:	0f 94 c2             	sete   %dl
  10ab12:	80 e2 00             	and    $0x0,%dl
  10ab15:	f6 c2 01             	test   $0x1,%dl
  10ab18:	0f 85 ba 02 00 00    	jne    10add8 <_ZN4core3fmt3num52_$LT$impl$u20$core..fmt..Display$u20$for$u20$u32$GT$3fmt17hba040a675ed7e801E+0x618>
  10ab1e:	b8 64 00 00 00       	mov    $0x64,%eax
  10ab23:	89 c1                	mov    %eax,%ecx
  10ab25:	48 8b 84 24 90 00 00 	mov    0x90(%rsp),%rax
  10ab2c:	00 
  10ab2d:	48 99                	cqto   
  10ab2f:	48 f7 f9             	idiv   %rcx
  10ab32:	48 c1 e2 01          	shl    $0x1,%rdx
  10ab36:	48 89 94 24 88 00 00 	mov    %rdx,0x88(%rsp)
  10ab3d:	00 
  10ab3e:	eb 00                	jmp    10ab40 <_ZN4core3fmt3num52_$LT$impl$u20$core..fmt..Display$u20$for$u20$u32$GT$3fmt17hba040a675ed7e801E+0x380>
  10ab40:	48 b8 00 00 00 00 00 	movabs $0x8000000000000000,%rax
  10ab47:	00 00 80 
  10ab4a:	48 39 84 24 58 01 00 	cmp    %rax,0x158(%rsp)
  10ab51:	00 
  10ab52:	0f 94 c1             	sete   %cl
  10ab55:	80 e1 00             	and    $0x0,%cl
  10ab58:	f6 c1 01             	test   $0x1,%cl
  10ab5b:	0f 85 83 02 00 00    	jne    10ade4 <_ZN4core3fmt3num52_$LT$impl$u20$core..fmt..Display$u20$for$u20$u32$GT$3fmt17hba040a675ed7e801E+0x624>
  10ab61:	b8 64 00 00 00       	mov    $0x64,%eax
  10ab66:	89 c1                	mov    %eax,%ecx
  10ab68:	48 8b 84 24 58 01 00 	mov    0x158(%rsp),%rax
  10ab6f:	00 
  10ab70:	48 99                	cqto   
  10ab72:	48 f7 f9             	idiv   %rcx
  10ab75:	48 89 84 24 58 01 00 	mov    %rax,0x158(%rsp)
  10ab7c:	00 
  10ab7d:	48 8b 84 24 60 01 00 	mov    0x160(%rsp),%rax
  10ab84:	00 
  10ab85:	48 83 e8 02          	sub    $0x2,%rax
  10ab89:	40 0f 90 c6          	seto   %sil
  10ab8d:	40 f6 c6 01          	test   $0x1,%sil
  10ab91:	48 89 84 24 80 00 00 	mov    %rax,0x80(%rsp)
  10ab98:	00 
  10ab99:	0f 85 51 02 00 00    	jne    10adf0 <_ZN4core3fmt3num52_$LT$impl$u20$core..fmt..Display$u20$for$u20$u32$GT$3fmt17hba040a675ed7e801E+0x630>
  10ab9f:	48 8b 84 24 80 00 00 	mov    0x80(%rsp),%rax
  10aba6:	00 
  10aba7:	48 89 84 24 60 01 00 	mov    %rax,0x160(%rsp)
  10abae:	00 
  10abaf:	48 8b bc 24 f8 00 00 	mov    0xf8(%rsp),%rdi
  10abb6:	00 
  10abb7:	48 8b b4 24 88 00 00 	mov    0x88(%rsp),%rsi
  10abbe:	00 
  10abbf:	e8 cc a2 ff ff       	callq  104e90 <_ZN4core3ptr33_$LT$impl$u20$$BP$const$u20$T$GT$6offset17h0d62b7cbced53ff4E>
  10abc4:	48 89 44 24 78       	mov    %rax,0x78(%rsp)
  10abc9:	48 8b b4 24 60 01 00 	mov    0x160(%rsp),%rsi
  10abd0:	00 
  10abd1:	48 8b bc 24 00 01 00 	mov    0x100(%rsp),%rdi
  10abd8:	00 
  10abd9:	e8 e2 a3 ff ff       	callq  104fc0 <_ZN4core3ptr31_$LT$impl$u20$$BP$mut$u20$T$GT$6offset17hd699195ba756a29fE>
  10abde:	48 89 44 24 70       	mov    %rax,0x70(%rsp)
  10abe3:	48 8b 44 24 78       	mov    0x78(%rsp),%rax
  10abe8:	66 8b 08             	mov    (%rax),%cx
  10abeb:	48 8b 54 24 70       	mov    0x70(%rsp),%rdx
  10abf0:	66 89 0a             	mov    %cx,(%rdx)
  10abf3:	eb 00                	jmp    10abf5 <_ZN4core3fmt3num52_$LT$impl$u20$core..fmt..Display$u20$for$u20$u32$GT$3fmt17hba040a675ed7e801E+0x435>
  10abf5:	48 83 bc 24 58 01 00 	cmpq   $0xa,0x158(%rsp)
  10abfc:	00 0a 
  10abfe:	7d 1e                	jge    10ac1e <_ZN4core3fmt3num52_$LT$impl$u20$core..fmt..Display$u20$for$u20$u32$GT$3fmt17hba040a675ed7e801E+0x45e>
  10ac00:	48 8b 84 24 60 01 00 	mov    0x160(%rsp),%rax
  10ac07:	00 
  10ac08:	48 ff c8             	dec    %rax
  10ac0b:	0f 90 c1             	seto   %cl
  10ac0e:	f6 c1 01             	test   $0x1,%cl
  10ac11:	48 89 44 24 68       	mov    %rax,0x68(%rsp)
  10ac16:	0f 85 ec 01 00 00    	jne    10ae08 <_ZN4core3fmt3num52_$LT$impl$u20$core..fmt..Display$u20$for$u20$u32$GT$3fmt17hba040a675ed7e801E+0x648>
  10ac1c:	eb 13                	jmp    10ac31 <_ZN4core3fmt3num52_$LT$impl$u20$core..fmt..Display$u20$for$u20$u32$GT$3fmt17hba040a675ed7e801E+0x471>
  10ac1e:	48 8b 84 24 58 01 00 	mov    0x158(%rsp),%rax
  10ac25:	00 
  10ac26:	48 c1 e0 01          	shl    $0x1,%rax
  10ac2a:	48 89 44 24 60       	mov    %rax,0x60(%rsp)
  10ac2f:	eb 53                	jmp    10ac84 <_ZN4core3fmt3num52_$LT$impl$u20$core..fmt..Display$u20$for$u20$u32$GT$3fmt17hba040a675ed7e801E+0x4c4>
  10ac31:	48 8b 44 24 68       	mov    0x68(%rsp),%rax
  10ac36:	48 89 84 24 60 01 00 	mov    %rax,0x160(%rsp)
  10ac3d:	00 
  10ac3e:	48 8b 8c 24 58 01 00 	mov    0x158(%rsp),%rcx
  10ac45:	00 
  10ac46:	88 ca                	mov    %cl,%dl
  10ac48:	80 c2 30             	add    $0x30,%dl
  10ac4b:	40 0f 92 c6          	setb   %sil
  10ac4f:	40 f6 c6 01          	test   $0x1,%sil
  10ac53:	88 54 24 5f          	mov    %dl,0x5f(%rsp)
  10ac57:	0f 85 b7 01 00 00    	jne    10ae14 <_ZN4core3fmt3num52_$LT$impl$u20$core..fmt..Display$u20$for$u20$u32$GT$3fmt17hba040a675ed7e801E+0x654>
  10ac5d:	48 8b b4 24 60 01 00 	mov    0x160(%rsp),%rsi
  10ac64:	00 
  10ac65:	48 8b bc 24 00 01 00 	mov    0x100(%rsp),%rdi
  10ac6c:	00 
  10ac6d:	e8 4e a3 ff ff       	callq  104fc0 <_ZN4core3ptr31_$LT$impl$u20$$BP$mut$u20$T$GT$6offset17hd699195ba756a29fE>
  10ac72:	48 89 44 24 50       	mov    %rax,0x50(%rsp)
  10ac77:	48 8b 44 24 50       	mov    0x50(%rsp),%rax
  10ac7c:	8a 4c 24 5f          	mov    0x5f(%rsp),%cl
  10ac80:	88 08                	mov    %cl,(%rax)
  10ac82:	eb 6d                	jmp    10acf1 <_ZN4core3fmt3num52_$LT$impl$u20$core..fmt..Display$u20$for$u20$u32$GT$3fmt17hba040a675ed7e801E+0x531>
  10ac84:	48 8b 84 24 60 01 00 	mov    0x160(%rsp),%rax
  10ac8b:	00 
  10ac8c:	48 83 e8 02          	sub    $0x2,%rax
  10ac90:	0f 90 c1             	seto   %cl
  10ac93:	f6 c1 01             	test   $0x1,%cl
  10ac96:	48 89 44 24 48       	mov    %rax,0x48(%rsp)
  10ac9b:	0f 85 5b 01 00 00    	jne    10adfc <_ZN4core3fmt3num52_$LT$impl$u20$core..fmt..Display$u20$for$u20$u32$GT$3fmt17hba040a675ed7e801E+0x63c>
  10aca1:	48 8b 44 24 48       	mov    0x48(%rsp),%rax
  10aca6:	48 89 84 24 60 01 00 	mov    %rax,0x160(%rsp)
  10acad:	00 
  10acae:	48 8b bc 24 f8 00 00 	mov    0xf8(%rsp),%rdi
  10acb5:	00 
  10acb6:	48 8b 74 24 60       	mov    0x60(%rsp),%rsi
  10acbb:	e8 d0 a1 ff ff       	callq  104e90 <_ZN4core3ptr33_$LT$impl$u20$$BP$const$u20$T$GT$6offset17h0d62b7cbced53ff4E>
  10acc0:	48 89 44 24 40       	mov    %rax,0x40(%rsp)
  10acc5:	48 8b b4 24 60 01 00 	mov    0x160(%rsp),%rsi
  10accc:	00 
  10accd:	48 8b bc 24 00 01 00 	mov    0x100(%rsp),%rdi
  10acd4:	00 
  10acd5:	e8 e6 a2 ff ff       	callq  104fc0 <_ZN4core3ptr31_$LT$impl$u20$$BP$mut$u20$T$GT$6offset17hd699195ba756a29fE>
  10acda:	48 89 44 24 38       	mov    %rax,0x38(%rsp)
  10acdf:	48 8b 44 24 40       	mov    0x40(%rsp),%rax
  10ace4:	66 8b 08             	mov    (%rax),%cx
  10ace7:	48 8b 54 24 38       	mov    0x38(%rsp),%rdx
  10acec:	66 89 0a             	mov    %cx,(%rdx)
  10acef:	eb 00                	jmp    10acf1 <_ZN4core3fmt3num52_$LT$impl$u20$core..fmt..Display$u20$for$u20$u32$GT$3fmt17hba040a675ed7e801E+0x531>
  10acf1:	48 8b b4 24 60 01 00 	mov    0x160(%rsp),%rsi
  10acf8:	00 
  10acf9:	48 8b bc 24 00 01 00 	mov    0x100(%rsp),%rdi
  10ad00:	00 
  10ad01:	e8 ba a2 ff ff       	callq  104fc0 <_ZN4core3ptr31_$LT$impl$u20$$BP$mut$u20$T$GT$6offset17hd699195ba756a29fE>
  10ad06:	48 89 44 24 30       	mov    %rax,0x30(%rsp)
  10ad0b:	b8 14 00 00 00       	mov    $0x14,%eax
  10ad10:	89 c6                	mov    %eax,%esi
  10ad12:	48 8d 8c 24 68 01 00 	lea    0x168(%rsp),%rcx
  10ad19:	00 
  10ad1a:	48 89 cf             	mov    %rcx,%rdi
  10ad1d:	e8 ee ca ff ff       	callq  107810 <_ZN53_$LT$$u5b$T$u5d$$u20$as$u20$core..slice..SliceExt$GT$3len17he17f44d354df8341E>
  10ad22:	48 89 44 24 28       	mov    %rax,0x28(%rsp)
  10ad27:	48 8b 44 24 28       	mov    0x28(%rsp),%rax
  10ad2c:	48 2b 84 24 60 01 00 	sub    0x160(%rsp),%rax
  10ad33:	00 
  10ad34:	0f 92 c1             	setb   %cl
  10ad37:	f6 c1 01             	test   $0x1,%cl
  10ad3a:	48 89 44 24 20       	mov    %rax,0x20(%rsp)
  10ad3f:	0f 85 db 00 00 00    	jne    10ae20 <_ZN4core3fmt3num52_$LT$impl$u20$core..fmt..Display$u20$for$u20$u32$GT$3fmt17hba040a675ed7e801E+0x660>
  10ad45:	48 8b 7c 24 30       	mov    0x30(%rsp),%rdi
  10ad4a:	48 8b 74 24 20       	mov    0x20(%rsp),%rsi
  10ad4f:	e8 dc d6 ff ff       	callq  108430 <_ZN4core5slice14from_raw_parts17h5f9d4399cfe98556E>
  10ad54:	48 89 44 24 18       	mov    %rax,0x18(%rsp)
  10ad59:	48 89 54 24 10       	mov    %rdx,0x10(%rsp)
  10ad5e:	48 8b 44 24 18       	mov    0x18(%rsp),%rax
  10ad63:	48 89 84 24 88 01 00 	mov    %rax,0x188(%rsp)
  10ad6a:	00 
  10ad6b:	48 8b 4c 24 10       	mov    0x10(%rsp),%rcx
  10ad70:	48 89 8c 24 90 01 00 	mov    %rcx,0x190(%rsp)
  10ad77:	00 
  10ad78:	4c 8b 84 24 88 01 00 	mov    0x188(%rsp),%r8
  10ad7f:	00 
  10ad80:	48 89 4c 24 08       	mov    %rcx,0x8(%rsp)
  10ad85:	4c 89 04 24          	mov    %r8,(%rsp)
  10ad89:	8a 84 24 17 01 00 00 	mov    0x117(%rsp),%al
  10ad90:	24 01                	and    $0x1,%al
  10ad92:	0f b6 f0             	movzbl %al,%esi
  10ad95:	48 8d 15 fd 4a 00 00 	lea    0x4afd(%rip),%rdx        # 10f899 <ref14129>
  10ad9c:	31 c9                	xor    %ecx,%ecx
  10ad9e:	48 8b bc 24 18 01 00 	mov    0x118(%rsp),%rdi
  10ada5:	00 
  10ada6:	4c 8b 04 24          	mov    (%rsp),%r8
  10adaa:	4c 8b 4c 24 08       	mov    0x8(%rsp),%r9
  10adaf:	e8 5c 1c 00 00       	callq  10ca10 <_ZN4core3fmt9Formatter12pad_integral17h3ecbf5df15337ae3E>
  10adb4:	88 84 24 2f 01 00 00 	mov    %al,0x12f(%rsp)
  10adbb:	8a 84 24 2f 01 00 00 	mov    0x12f(%rsp),%al
  10adc2:	88 84 24 30 01 00 00 	mov    %al,0x130(%rsp)
  10adc9:	8a 84 24 30 01 00 00 	mov    0x130(%rsp),%al
  10add0:	48 81 c4 98 01 00 00 	add    $0x198,%rsp
  10add7:	c3                   	retq   
  10add8:	48 8d 3d 89 5d 00 00 	lea    0x5d89(%rip),%rdi        # 110b68 <panic_loc14738>
  10addf:	e8 ac a6 ff ff       	callq  105490 <_ZN4core9panicking5panic17h585bd70cda921012E>
  10ade4:	48 8d 3d a5 5d 00 00 	lea    0x5da5(%rip),%rdi        # 110b90 <panic_loc14739>
  10adeb:	e8 a0 a6 ff ff       	callq  105490 <_ZN4core9panicking5panic17h585bd70cda921012E>
  10adf0:	48 8d 3d c1 5d 00 00 	lea    0x5dc1(%rip),%rdi        # 110bb8 <panic_loc14740>
  10adf7:	e8 94 a6 ff ff       	callq  105490 <_ZN4core9panicking5panic17h585bd70cda921012E>
  10adfc:	48 8d 3d dd 5d 00 00 	lea    0x5ddd(%rip),%rdi        # 110be0 <panic_loc14741>
  10ae03:	e8 88 a6 ff ff       	callq  105490 <_ZN4core9panicking5panic17h585bd70cda921012E>
  10ae08:	48 8d 3d f9 5d 00 00 	lea    0x5df9(%rip),%rdi        # 110c08 <panic_loc14742>
  10ae0f:	e8 7c a6 ff ff       	callq  105490 <_ZN4core9panicking5panic17h585bd70cda921012E>
  10ae14:	48 8d 3d 15 5e 00 00 	lea    0x5e15(%rip),%rdi        # 110c30 <panic_loc14743>
  10ae1b:	e8 70 a6 ff ff       	callq  105490 <_ZN4core9panicking5panic17h585bd70cda921012E>
  10ae20:	48 8d 3d 31 5e 00 00 	lea    0x5e31(%rip),%rdi        # 110c58 <panic_loc14744>
  10ae27:	e8 64 a6 ff ff       	callq  105490 <_ZN4core9panicking5panic17h585bd70cda921012E>
  10ae2c:	48 8d 3d 4d 5e 00 00 	lea    0x5e4d(%rip),%rdi        # 110c80 <panic_loc14745>
  10ae33:	e8 58 a6 ff ff       	callq  105490 <_ZN4core9panicking5panic17h585bd70cda921012E>
  10ae38:	48 8d 3d 69 5e 00 00 	lea    0x5e69(%rip),%rdi        # 110ca8 <panic_loc14746>
  10ae3f:	e8 4c a6 ff ff       	callq  105490 <_ZN4core9panicking5panic17h585bd70cda921012E>
  10ae44:	48 8d 3d 85 5e 00 00 	lea    0x5e85(%rip),%rdi        # 110cd0 <panic_loc14747>
  10ae4b:	e8 40 a6 ff ff       	callq  105490 <_ZN4core9panicking5panic17h585bd70cda921012E>
  10ae50:	48 8d 3d a1 5e 00 00 	lea    0x5ea1(%rip),%rdi        # 110cf8 <panic_loc14748>
  10ae57:	e8 34 a6 ff ff       	callq  105490 <_ZN4core9panicking5panic17h585bd70cda921012E>
  10ae5c:	0f 1f 40 00          	nopl   0x0(%rax)

000000000010ae60 <_ZN4core3fmt3num54_$LT$impl$u20$core..fmt..Display$u20$for$u20$usize$GT$3fmt17h163484b597e27a9bE>:
  10ae60:	48 81 ec a8 01 00 00 	sub    $0x1a8,%rsp
  10ae67:	48 89 bc 24 28 01 00 	mov    %rdi,0x128(%rsp)
  10ae6e:	00 
  10ae6f:	48 89 b4 24 20 01 00 	mov    %rsi,0x120(%rsp)
  10ae76:	00 
  10ae77:	48 8b 84 24 28 01 00 	mov    0x128(%rsp),%rax
  10ae7e:	00 
  10ae7f:	48 83 38 00          	cmpq   $0x0,(%rax)
  10ae83:	0f 93 c1             	setae  %cl
  10ae86:	f6 c1 01             	test   $0x1,%cl
  10ae89:	88 8c 24 1f 01 00 00 	mov    %cl,0x11f(%rsp)
  10ae90:	75 02                	jne    10ae94 <_ZN4core3fmt3num54_$LT$impl$u20$core..fmt..Display$u20$for$u20$usize$GT$3fmt17h163484b597e27a9bE+0x34>
  10ae92:	eb 17                	jmp    10aeab <_ZN4core3fmt3num54_$LT$impl$u20$core..fmt..Display$u20$for$u20$usize$GT$3fmt17h163484b597e27a9bE+0x4b>
  10ae94:	48 8b bc 24 28 01 00 	mov    0x128(%rsp),%rdi
  10ae9b:	00 
  10ae9c:	e8 3f ea ff ff       	callq  1098e0 <_ZN45_$LT$usize$u20$as$u20$core..fmt..num..Int$GT$6to_u6417h524de838d113c16cE>
  10aea1:	48 89 84 24 88 01 00 	mov    %rax,0x188(%rsp)
  10aea8:	00 
  10aea9:	eb 38                	jmp    10aee3 <_ZN4core3fmt3num54_$LT$impl$u20$core..fmt..Display$u20$for$u20$usize$GT$3fmt17h163484b597e27a9bE+0x83>
  10aeab:	48 8b bc 24 28 01 00 	mov    0x128(%rsp),%rdi
  10aeb2:	00 
  10aeb3:	e8 28 ea ff ff       	callq  1098e0 <_ZN45_$LT$usize$u20$as$u20$core..fmt..num..Int$GT$6to_u6417h524de838d113c16cE>
  10aeb8:	48 89 84 24 10 01 00 	mov    %rax,0x110(%rsp)
  10aebf:	00 
  10aec0:	b8 01 00 00 00       	mov    $0x1,%eax
  10aec5:	89 c6                	mov    %eax,%esi
  10aec7:	48 8b 8c 24 10 01 00 	mov    0x110(%rsp),%rcx
  10aece:	00 
  10aecf:	48 83 f1 ff          	xor    $0xffffffffffffffff,%rcx
  10aed3:	48 89 cf             	mov    %rcx,%rdi
  10aed6:	e8 f5 9c ff ff       	callq  104bd0 <_ZN4core3num21_$LT$impl$u20$u64$GT$12wrapping_add17h8eb4ef31a4a29a8cE>
  10aedb:	48 89 84 24 88 01 00 	mov    %rax,0x188(%rsp)
  10aee2:	00 
  10aee3:	48 8d bc 24 74 01 00 	lea    0x174(%rsp),%rdi
  10aeea:	00 
  10aeeb:	e8 00 9e ff ff       	callq  104cf0 <_ZN4core3mem13uninitialized17h4344f60e5097a3ffE>
  10aef0:	b8 14 00 00 00       	mov    $0x14,%eax
  10aef5:	89 c6                	mov    %eax,%esi
  10aef7:	48 8d 8c 24 74 01 00 	lea    0x174(%rsp),%rcx
  10aefe:	00 
  10aeff:	48 89 cf             	mov    %rcx,%rdi
  10af02:	e8 09 c9 ff ff       	callq  107810 <_ZN53_$LT$$u5b$T$u5d$$u20$as$u20$core..slice..SliceExt$GT$3len17he17f44d354df8341E>
  10af07:	48 89 84 24 08 01 00 	mov    %rax,0x108(%rsp)
  10af0e:	00 
  10af0f:	b8 14 00 00 00       	mov    $0x14,%eax
  10af14:	89 c6                	mov    %eax,%esi
  10af16:	48 8d 8c 24 74 01 00 	lea    0x174(%rsp),%rcx
  10af1d:	00 
  10af1e:	48 8b 94 24 08 01 00 	mov    0x108(%rsp),%rdx
  10af25:	00 
  10af26:	48 89 94 24 68 01 00 	mov    %rdx,0x168(%rsp)
  10af2d:	00 
  10af2e:	48 89 cf             	mov    %rcx,%rdi
  10af31:	e8 4a ca ff ff       	callq  107980 <_ZN53_$LT$$u5b$T$u5d$$u20$as$u20$core..slice..SliceExt$GT$10as_mut_ptr17h0e56edd2ac4af6b0E>
  10af36:	48 89 84 24 00 01 00 	mov    %rax,0x100(%rsp)
  10af3d:	00 
  10af3e:	48 8d 3d b8 4d 00 00 	lea    0x4db8(%rip),%rdi        # 10fcfd <byte_str14737>
  10af45:	b8 c8 00 00 00       	mov    $0xc8,%eax
  10af4a:	89 c6                	mov    %eax,%esi
  10af4c:	e8 bf c7 ff ff       	callq  107710 <_ZN53_$LT$$u5b$T$u5d$$u20$as$u20$core..slice..SliceExt$GT$6as_ptr17h7ebcf49c904fbf2fE>
  10af51:	48 89 84 24 f8 00 00 	mov    %rax,0xf8(%rsp)
  10af58:	00 
  10af59:	e8 b2 9c ff ff       	callq  104c10 <_ZN4core3num23_$LT$impl$u20$usize$GT$9max_value17hfbfe9015056267ffE>
  10af5e:	48 89 84 24 f0 00 00 	mov    %rax,0xf0(%rsp)
  10af65:	00 
  10af66:	48 8b 84 24 f0 00 00 	mov    0xf0(%rsp),%rax
  10af6d:	00 
  10af6e:	48 3d 10 27 00 00    	cmp    $0x2710,%rax
  10af74:	73 05                	jae    10af7b <_ZN4core3fmt3num54_$LT$impl$u20$core..fmt..Display$u20$for$u20$usize$GT$3fmt17h163484b597e27a9bE+0x11b>
  10af76:	e9 da 01 00 00       	jmpq   10b155 <_ZN4core3fmt3num54_$LT$impl$u20$core..fmt..Display$u20$for$u20$usize$GT$3fmt17h163484b597e27a9bE+0x2f5>
  10af7b:	48 81 bc 24 88 01 00 	cmpq   $0x2710,0x188(%rsp)
  10af82:	00 10 27 00 00 
  10af87:	73 05                	jae    10af8e <_ZN4core3fmt3num54_$LT$impl$u20$core..fmt..Display$u20$for$u20$usize$GT$3fmt17h163484b597e27a9bE+0x12e>
  10af89:	e9 c7 01 00 00       	jmpq   10b155 <_ZN4core3fmt3num54_$LT$impl$u20$core..fmt..Display$u20$for$u20$usize$GT$3fmt17h163484b597e27a9bE+0x2f5>
  10af8e:	48 8b 84 24 88 01 00 	mov    0x188(%rsp),%rax
  10af95:	00 
  10af96:	48 89 84 24 e8 00 00 	mov    %rax,0xe8(%rsp)
  10af9d:	00 
  10af9e:	b8 10 27 00 00       	mov    $0x2710,%eax
  10afa3:	89 c1                	mov    %eax,%ecx
  10afa5:	48 8b 84 24 e8 00 00 	mov    0xe8(%rsp),%rax
  10afac:	00 
  10afad:	31 d2                	xor    %edx,%edx
  10afaf:	48 f7 f1             	div    %rcx
  10afb2:	48 89 94 24 e0 00 00 	mov    %rdx,0xe0(%rsp)
  10afb9:	00 
  10afba:	b8 10 27 00 00       	mov    $0x2710,%eax
  10afbf:	89 c1                	mov    %eax,%ecx
  10afc1:	48 8b 84 24 88 01 00 	mov    0x188(%rsp),%rax
  10afc8:	00 
  10afc9:	31 d2                	xor    %edx,%edx
  10afcb:	48 f7 f1             	div    %rcx
  10afce:	48 89 84 24 88 01 00 	mov    %rax,0x188(%rsp)
  10afd5:	00 
  10afd6:	48 b8 00 00 00 00 00 	movabs $0x8000000000000000,%rax
  10afdd:	00 00 80 
  10afe0:	48 8b 8c 24 e0 00 00 	mov    0xe0(%rsp),%rcx
  10afe7:	00 
  10afe8:	48 39 c1             	cmp    %rax,%rcx
  10afeb:	0f 94 c2             	sete   %dl
  10afee:	80 e2 00             	and    $0x0,%dl
  10aff1:	f6 c2 01             	test   $0x1,%dl
  10aff4:	0f 85 c7 04 00 00    	jne    10b4c1 <_ZN4core3fmt3num54_$LT$impl$u20$core..fmt..Display$u20$for$u20$usize$GT$3fmt17h163484b597e27a9bE+0x661>
  10affa:	b8 64 00 00 00       	mov    $0x64,%eax
  10afff:	89 c1                	mov    %eax,%ecx
  10b001:	48 8b 84 24 e0 00 00 	mov    0xe0(%rsp),%rax
  10b008:	00 
  10b009:	48 99                	cqto   
  10b00b:	48 f7 f9             	idiv   %rcx
  10b00e:	48 c1 e0 01          	shl    $0x1,%rax
  10b012:	48 89 84 24 d8 00 00 	mov    %rax,0xd8(%rsp)
  10b019:	00 
  10b01a:	eb 00                	jmp    10b01c <_ZN4core3fmt3num54_$LT$impl$u20$core..fmt..Display$u20$for$u20$usize$GT$3fmt17h163484b597e27a9bE+0x1bc>
  10b01c:	48 b8 00 00 00 00 00 	movabs $0x8000000000000000,%rax
  10b023:	00 00 80 
  10b026:	48 8b 8c 24 e0 00 00 	mov    0xe0(%rsp),%rcx
  10b02d:	00 
  10b02e:	48 39 c1             	cmp    %rax,%rcx
  10b031:	0f 94 c2             	sete   %dl
  10b034:	80 e2 00             	and    $0x0,%dl
  10b037:	f6 c2 01             	test   $0x1,%dl
  10b03a:	0f 85 8d 04 00 00    	jne    10b4cd <_ZN4core3fmt3num54_$LT$impl$u20$core..fmt..Display$u20$for$u20$usize$GT$3fmt17h163484b597e27a9bE+0x66d>
  10b040:	b8 64 00 00 00       	mov    $0x64,%eax
  10b045:	89 c1                	mov    %eax,%ecx
  10b047:	48 8b 84 24 e0 00 00 	mov    0xe0(%rsp),%rax
  10b04e:	00 
  10b04f:	48 99                	cqto   
  10b051:	48 f7 f9             	idiv   %rcx
  10b054:	48 c1 e2 01          	shl    $0x1,%rdx
  10b058:	48 89 94 24 d0 00 00 	mov    %rdx,0xd0(%rsp)
  10b05f:	00 
  10b060:	48 8b 84 24 68 01 00 	mov    0x168(%rsp),%rax
  10b067:	00 
  10b068:	48 83 e8 04          	sub    $0x4,%rax
  10b06c:	0f 90 c1             	seto   %cl
  10b06f:	f6 c1 01             	test   $0x1,%cl
  10b072:	48 89 84 24 c8 00 00 	mov    %rax,0xc8(%rsp)
  10b079:	00 
  10b07a:	0f 85 59 04 00 00    	jne    10b4d9 <_ZN4core3fmt3num54_$LT$impl$u20$core..fmt..Display$u20$for$u20$usize$GT$3fmt17h163484b597e27a9bE+0x679>
  10b080:	48 8b 84 24 c8 00 00 	mov    0xc8(%rsp),%rax
  10b087:	00 
  10b088:	48 89 84 24 68 01 00 	mov    %rax,0x168(%rsp)
  10b08f:	00 
  10b090:	48 8b bc 24 f8 00 00 	mov    0xf8(%rsp),%rdi
  10b097:	00 
  10b098:	48 8b b4 24 d8 00 00 	mov    0xd8(%rsp),%rsi
  10b09f:	00 
  10b0a0:	e8 eb 9d ff ff       	callq  104e90 <_ZN4core3ptr33_$LT$impl$u20$$BP$const$u20$T$GT$6offset17h0d62b7cbced53ff4E>
  10b0a5:	48 89 84 24 c0 00 00 	mov    %rax,0xc0(%rsp)
  10b0ac:	00 
  10b0ad:	48 8b b4 24 68 01 00 	mov    0x168(%rsp),%rsi
  10b0b4:	00 
  10b0b5:	48 8b bc 24 00 01 00 	mov    0x100(%rsp),%rdi
  10b0bc:	00 
  10b0bd:	e8 fe 9e ff ff       	callq  104fc0 <_ZN4core3ptr31_$LT$impl$u20$$BP$mut$u20$T$GT$6offset17hd699195ba756a29fE>
  10b0c2:	48 89 84 24 b8 00 00 	mov    %rax,0xb8(%rsp)
  10b0c9:	00 
  10b0ca:	48 8b 84 24 c0 00 00 	mov    0xc0(%rsp),%rax
  10b0d1:	00 
  10b0d2:	66 8b 08             	mov    (%rax),%cx
  10b0d5:	48 8b 94 24 b8 00 00 	mov    0xb8(%rsp),%rdx
  10b0dc:	00 
  10b0dd:	66 89 0a             	mov    %cx,(%rdx)
  10b0e0:	48 8b bc 24 f8 00 00 	mov    0xf8(%rsp),%rdi
  10b0e7:	00 
  10b0e8:	48 8b b4 24 d0 00 00 	mov    0xd0(%rsp),%rsi
  10b0ef:	00 
  10b0f0:	e8 9b 9d ff ff       	callq  104e90 <_ZN4core3ptr33_$LT$impl$u20$$BP$const$u20$T$GT$6offset17h0d62b7cbced53ff4E>
  10b0f5:	48 89 84 24 b0 00 00 	mov    %rax,0xb0(%rsp)
  10b0fc:	00 
  10b0fd:	48 8b 84 24 68 01 00 	mov    0x168(%rsp),%rax
  10b104:	00 
  10b105:	48 83 c0 02          	add    $0x2,%rax
  10b109:	0f 90 c1             	seto   %cl
  10b10c:	f6 c1 01             	test   $0x1,%cl
  10b10f:	48 89 84 24 a8 00 00 	mov    %rax,0xa8(%rsp)
  10b116:	00 
  10b117:	0f 85 c8 03 00 00    	jne    10b4e5 <_ZN4core3fmt3num54_$LT$impl$u20$core..fmt..Display$u20$for$u20$usize$GT$3fmt17h163484b597e27a9bE+0x685>
  10b11d:	48 8b bc 24 00 01 00 	mov    0x100(%rsp),%rdi
  10b124:	00 
  10b125:	48 8b b4 24 a8 00 00 	mov    0xa8(%rsp),%rsi
  10b12c:	00 
  10b12d:	e8 8e 9e ff ff       	callq  104fc0 <_ZN4core3ptr31_$LT$impl$u20$$BP$mut$u20$T$GT$6offset17hd699195ba756a29fE>
  10b132:	48 89 84 24 a0 00 00 	mov    %rax,0xa0(%rsp)
  10b139:	00 
  10b13a:	48 8b 84 24 b0 00 00 	mov    0xb0(%rsp),%rax
  10b141:	00 
  10b142:	66 8b 08             	mov    (%rax),%cx
  10b145:	48 8b 94 24 a0 00 00 	mov    0xa0(%rsp),%rdx
  10b14c:	00 
  10b14d:	66 89 0a             	mov    %cx,(%rdx)
  10b150:	e9 26 fe ff ff       	jmpq   10af7b <_ZN4core3fmt3num54_$LT$impl$u20$core..fmt..Display$u20$for$u20$usize$GT$3fmt17h163484b597e27a9bE+0x11b>
  10b155:	48 8b 84 24 88 01 00 	mov    0x188(%rsp),%rax
  10b15c:	00 
  10b15d:	48 89 84 24 60 01 00 	mov    %rax,0x160(%rsp)
  10b164:	00 
  10b165:	48 83 bc 24 60 01 00 	cmpq   $0x64,0x160(%rsp)
  10b16c:	00 64 
  10b16e:	7c 12                	jl     10b182 <_ZN4core3fmt3num54_$LT$impl$u20$core..fmt..Display$u20$for$u20$usize$GT$3fmt17h163484b597e27a9bE+0x322>
  10b170:	48 8b 84 24 60 01 00 	mov    0x160(%rsp),%rax
  10b177:	00 
  10b178:	48 89 84 24 98 00 00 	mov    %rax,0x98(%rsp)
  10b17f:	00 
  10b180:	eb 05                	jmp    10b187 <_ZN4core3fmt3num54_$LT$impl$u20$core..fmt..Display$u20$for$u20$usize$GT$3fmt17h163484b597e27a9bE+0x327>
  10b182:	e9 01 01 00 00       	jmpq   10b288 <_ZN4core3fmt3num54_$LT$impl$u20$core..fmt..Display$u20$for$u20$usize$GT$3fmt17h163484b597e27a9bE+0x428>
  10b187:	48 b8 00 00 00 00 00 	movabs $0x8000000000000000,%rax
  10b18e:	00 00 80 
  10b191:	48 8b 8c 24 98 00 00 	mov    0x98(%rsp),%rcx
  10b198:	00 
  10b199:	48 39 c1             	cmp    %rax,%rcx
  10b19c:	0f 94 c2             	sete   %dl
  10b19f:	80 e2 00             	and    $0x0,%dl
  10b1a2:	f6 c2 01             	test   $0x1,%dl
  10b1a5:	0f 85 c2 02 00 00    	jne    10b46d <_ZN4core3fmt3num54_$LT$impl$u20$core..fmt..Display$u20$for$u20$usize$GT$3fmt17h163484b597e27a9bE+0x60d>
  10b1ab:	b8 64 00 00 00       	mov    $0x64,%eax
  10b1b0:	89 c1                	mov    %eax,%ecx
  10b1b2:	48 8b 84 24 98 00 00 	mov    0x98(%rsp),%rax
  10b1b9:	00 
  10b1ba:	48 99                	cqto   
  10b1bc:	48 f7 f9             	idiv   %rcx
  10b1bf:	48 c1 e2 01          	shl    $0x1,%rdx
  10b1c3:	48 89 94 24 90 00 00 	mov    %rdx,0x90(%rsp)
  10b1ca:	00 
  10b1cb:	eb 00                	jmp    10b1cd <_ZN4core3fmt3num54_$LT$impl$u20$core..fmt..Display$u20$for$u20$usize$GT$3fmt17h163484b597e27a9bE+0x36d>
  10b1cd:	48 b8 00 00 00 00 00 	movabs $0x8000000000000000,%rax
  10b1d4:	00 00 80 
  10b1d7:	48 39 84 24 60 01 00 	cmp    %rax,0x160(%rsp)
  10b1de:	00 
  10b1df:	0f 94 c1             	sete   %cl
  10b1e2:	80 e1 00             	and    $0x0,%cl
  10b1e5:	f6 c1 01             	test   $0x1,%cl
  10b1e8:	0f 85 8b 02 00 00    	jne    10b479 <_ZN4core3fmt3num54_$LT$impl$u20$core..fmt..Display$u20$for$u20$usize$GT$3fmt17h163484b597e27a9bE+0x619>
  10b1ee:	b8 64 00 00 00       	mov    $0x64,%eax
  10b1f3:	89 c1                	mov    %eax,%ecx
  10b1f5:	48 8b 84 24 60 01 00 	mov    0x160(%rsp),%rax
  10b1fc:	00 
  10b1fd:	48 99                	cqto   
  10b1ff:	48 f7 f9             	idiv   %rcx
  10b202:	48 89 84 24 60 01 00 	mov    %rax,0x160(%rsp)
  10b209:	00 
  10b20a:	48 8b 84 24 68 01 00 	mov    0x168(%rsp),%rax
  10b211:	00 
  10b212:	48 83 e8 02          	sub    $0x2,%rax
  10b216:	40 0f 90 c6          	seto   %sil
  10b21a:	40 f6 c6 01          	test   $0x1,%sil
  10b21e:	48 89 84 24 88 00 00 	mov    %rax,0x88(%rsp)
  10b225:	00 
  10b226:	0f 85 59 02 00 00    	jne    10b485 <_ZN4core3fmt3num54_$LT$impl$u20$core..fmt..Display$u20$for$u20$usize$GT$3fmt17h163484b597e27a9bE+0x625>
  10b22c:	48 8b 84 24 88 00 00 	mov    0x88(%rsp),%rax
  10b233:	00 
  10b234:	48 89 84 24 68 01 00 	mov    %rax,0x168(%rsp)
  10b23b:	00 
  10b23c:	48 8b bc 24 f8 00 00 	mov    0xf8(%rsp),%rdi
  10b243:	00 
  10b244:	48 8b b4 24 90 00 00 	mov    0x90(%rsp),%rsi
  10b24b:	00 
  10b24c:	e8 3f 9c ff ff       	callq  104e90 <_ZN4core3ptr33_$LT$impl$u20$$BP$const$u20$T$GT$6offset17h0d62b7cbced53ff4E>
  10b251:	48 89 84 24 80 00 00 	mov    %rax,0x80(%rsp)
  10b258:	00 
  10b259:	48 8b b4 24 68 01 00 	mov    0x168(%rsp),%rsi
  10b260:	00 
  10b261:	48 8b bc 24 00 01 00 	mov    0x100(%rsp),%rdi
  10b268:	00 
  10b269:	e8 52 9d ff ff       	callq  104fc0 <_ZN4core3ptr31_$LT$impl$u20$$BP$mut$u20$T$GT$6offset17hd699195ba756a29fE>
  10b26e:	48 89 44 24 78       	mov    %rax,0x78(%rsp)
  10b273:	48 8b 84 24 80 00 00 	mov    0x80(%rsp),%rax
  10b27a:	00 
  10b27b:	66 8b 08             	mov    (%rax),%cx
  10b27e:	48 8b 54 24 78       	mov    0x78(%rsp),%rdx
  10b283:	66 89 0a             	mov    %cx,(%rdx)
  10b286:	eb 00                	jmp    10b288 <_ZN4core3fmt3num54_$LT$impl$u20$core..fmt..Display$u20$for$u20$usize$GT$3fmt17h163484b597e27a9bE+0x428>
  10b288:	48 83 bc 24 60 01 00 	cmpq   $0xa,0x160(%rsp)
  10b28f:	00 0a 
  10b291:	7d 1e                	jge    10b2b1 <_ZN4core3fmt3num54_$LT$impl$u20$core..fmt..Display$u20$for$u20$usize$GT$3fmt17h163484b597e27a9bE+0x451>
  10b293:	48 8b 84 24 68 01 00 	mov    0x168(%rsp),%rax
  10b29a:	00 
  10b29b:	48 ff c8             	dec    %rax
  10b29e:	0f 90 c1             	seto   %cl
  10b2a1:	f6 c1 01             	test   $0x1,%cl
  10b2a4:	48 89 44 24 70       	mov    %rax,0x70(%rsp)
  10b2a9:	0f 85 ee 01 00 00    	jne    10b49d <_ZN4core3fmt3num54_$LT$impl$u20$core..fmt..Display$u20$for$u20$usize$GT$3fmt17h163484b597e27a9bE+0x63d>
  10b2af:	eb 13                	jmp    10b2c4 <_ZN4core3fmt3num54_$LT$impl$u20$core..fmt..Display$u20$for$u20$usize$GT$3fmt17h163484b597e27a9bE+0x464>
  10b2b1:	48 8b 84 24 60 01 00 	mov    0x160(%rsp),%rax
  10b2b8:	00 
  10b2b9:	48 c1 e0 01          	shl    $0x1,%rax
  10b2bd:	48 89 44 24 68       	mov    %rax,0x68(%rsp)
  10b2c2:	eb 53                	jmp    10b317 <_ZN4core3fmt3num54_$LT$impl$u20$core..fmt..Display$u20$for$u20$usize$GT$3fmt17h163484b597e27a9bE+0x4b7>
  10b2c4:	48 8b 44 24 70       	mov    0x70(%rsp),%rax
  10b2c9:	48 89 84 24 68 01 00 	mov    %rax,0x168(%rsp)
  10b2d0:	00 
  10b2d1:	48 8b 8c 24 60 01 00 	mov    0x160(%rsp),%rcx
  10b2d8:	00 
  10b2d9:	88 ca                	mov    %cl,%dl
  10b2db:	80 c2 30             	add    $0x30,%dl
  10b2de:	40 0f 92 c6          	setb   %sil
  10b2e2:	40 f6 c6 01          	test   $0x1,%sil
  10b2e6:	88 54 24 67          	mov    %dl,0x67(%rsp)
  10b2ea:	0f 85 b9 01 00 00    	jne    10b4a9 <_ZN4core3fmt3num54_$LT$impl$u20$core..fmt..Display$u20$for$u20$usize$GT$3fmt17h163484b597e27a9bE+0x649>
  10b2f0:	48 8b b4 24 68 01 00 	mov    0x168(%rsp),%rsi
  10b2f7:	00 
  10b2f8:	48 8b bc 24 00 01 00 	mov    0x100(%rsp),%rdi
  10b2ff:	00 
  10b300:	e8 bb 9c ff ff       	callq  104fc0 <_ZN4core3ptr31_$LT$impl$u20$$BP$mut$u20$T$GT$6offset17hd699195ba756a29fE>
  10b305:	48 89 44 24 58       	mov    %rax,0x58(%rsp)
  10b30a:	48 8b 44 24 58       	mov    0x58(%rsp),%rax
  10b30f:	8a 4c 24 67          	mov    0x67(%rsp),%cl
  10b313:	88 08                	mov    %cl,(%rax)
  10b315:	eb 6d                	jmp    10b384 <_ZN4core3fmt3num54_$LT$impl$u20$core..fmt..Display$u20$for$u20$usize$GT$3fmt17h163484b597e27a9bE+0x524>
  10b317:	48 8b 84 24 68 01 00 	mov    0x168(%rsp),%rax
  10b31e:	00 
  10b31f:	48 83 e8 02          	sub    $0x2,%rax
  10b323:	0f 90 c1             	seto   %cl
  10b326:	f6 c1 01             	test   $0x1,%cl
  10b329:	48 89 44 24 50       	mov    %rax,0x50(%rsp)
  10b32e:	0f 85 5d 01 00 00    	jne    10b491 <_ZN4core3fmt3num54_$LT$impl$u20$core..fmt..Display$u20$for$u20$usize$GT$3fmt17h163484b597e27a9bE+0x631>
  10b334:	48 8b 44 24 50       	mov    0x50(%rsp),%rax
  10b339:	48 89 84 24 68 01 00 	mov    %rax,0x168(%rsp)
  10b340:	00 
  10b341:	48 8b bc 24 f8 00 00 	mov    0xf8(%rsp),%rdi
  10b348:	00 
  10b349:	48 8b 74 24 68       	mov    0x68(%rsp),%rsi
  10b34e:	e8 3d 9b ff ff       	callq  104e90 <_ZN4core3ptr33_$LT$impl$u20$$BP$const$u20$T$GT$6offset17h0d62b7cbced53ff4E>
  10b353:	48 89 44 24 48       	mov    %rax,0x48(%rsp)
  10b358:	48 8b b4 24 68 01 00 	mov    0x168(%rsp),%rsi
  10b35f:	00 
  10b360:	48 8b bc 24 00 01 00 	mov    0x100(%rsp),%rdi
  10b367:	00 
  10b368:	e8 53 9c ff ff       	callq  104fc0 <_ZN4core3ptr31_$LT$impl$u20$$BP$mut$u20$T$GT$6offset17hd699195ba756a29fE>
  10b36d:	48 89 44 24 40       	mov    %rax,0x40(%rsp)
  10b372:	48 8b 44 24 48       	mov    0x48(%rsp),%rax
  10b377:	66 8b 08             	mov    (%rax),%cx
  10b37a:	48 8b 54 24 40       	mov    0x40(%rsp),%rdx
  10b37f:	66 89 0a             	mov    %cx,(%rdx)
  10b382:	eb 00                	jmp    10b384 <_ZN4core3fmt3num54_$LT$impl$u20$core..fmt..Display$u20$for$u20$usize$GT$3fmt17h163484b597e27a9bE+0x524>
  10b384:	48 8b b4 24 68 01 00 	mov    0x168(%rsp),%rsi
  10b38b:	00 
  10b38c:	48 8b bc 24 00 01 00 	mov    0x100(%rsp),%rdi
  10b393:	00 
  10b394:	e8 27 9c ff ff       	callq  104fc0 <_ZN4core3ptr31_$LT$impl$u20$$BP$mut$u20$T$GT$6offset17hd699195ba756a29fE>
  10b399:	48 89 44 24 38       	mov    %rax,0x38(%rsp)
  10b39e:	b8 14 00 00 00       	mov    $0x14,%eax
  10b3a3:	89 c6                	mov    %eax,%esi
  10b3a5:	48 8d 8c 24 74 01 00 	lea    0x174(%rsp),%rcx
  10b3ac:	00 
  10b3ad:	48 89 cf             	mov    %rcx,%rdi
  10b3b0:	e8 5b c4 ff ff       	callq  107810 <_ZN53_$LT$$u5b$T$u5d$$u20$as$u20$core..slice..SliceExt$GT$3len17he17f44d354df8341E>
  10b3b5:	48 89 44 24 30       	mov    %rax,0x30(%rsp)
  10b3ba:	48 8b 44 24 30       	mov    0x30(%rsp),%rax
  10b3bf:	48 2b 84 24 68 01 00 	sub    0x168(%rsp),%rax
  10b3c6:	00 
  10b3c7:	0f 92 c1             	setb   %cl
  10b3ca:	f6 c1 01             	test   $0x1,%cl
  10b3cd:	48 89 44 24 28       	mov    %rax,0x28(%rsp)
  10b3d2:	0f 85 dd 00 00 00    	jne    10b4b5 <_ZN4core3fmt3num54_$LT$impl$u20$core..fmt..Display$u20$for$u20$usize$GT$3fmt17h163484b597e27a9bE+0x655>
  10b3d8:	48 8b 7c 24 38       	mov    0x38(%rsp),%rdi
  10b3dd:	48 8b 74 24 28       	mov    0x28(%rsp),%rsi
  10b3e2:	e8 49 d0 ff ff       	callq  108430 <_ZN4core5slice14from_raw_parts17h5f9d4399cfe98556E>
  10b3e7:	48 89 44 24 20       	mov    %rax,0x20(%rsp)
  10b3ec:	48 89 54 24 18       	mov    %rdx,0x18(%rsp)
  10b3f1:	48 8b 44 24 20       	mov    0x20(%rsp),%rax
  10b3f6:	48 89 84 24 98 01 00 	mov    %rax,0x198(%rsp)
  10b3fd:	00 
  10b3fe:	48 8b 4c 24 18       	mov    0x18(%rsp),%rcx
  10b403:	48 89 8c 24 a0 01 00 	mov    %rcx,0x1a0(%rsp)
  10b40a:	00 
  10b40b:	4c 8b 84 24 98 01 00 	mov    0x198(%rsp),%r8
  10b412:	00 
  10b413:	48 89 4c 24 10       	mov    %rcx,0x10(%rsp)
  10b418:	4c 89 44 24 08       	mov    %r8,0x8(%rsp)
  10b41d:	8a 84 24 1f 01 00 00 	mov    0x11f(%rsp),%al
  10b424:	24 01                	and    $0x1,%al
  10b426:	0f b6 f0             	movzbl %al,%esi
  10b429:	48 8d 15 69 44 00 00 	lea    0x4469(%rip),%rdx        # 10f899 <ref14129>
  10b430:	31 c9                	xor    %ecx,%ecx
  10b432:	48 8b bc 24 20 01 00 	mov    0x120(%rsp),%rdi
  10b439:	00 
  10b43a:	4c 8b 44 24 08       	mov    0x8(%rsp),%r8
  10b43f:	4c 8b 4c 24 10       	mov    0x10(%rsp),%r9
  10b444:	e8 c7 15 00 00       	callq  10ca10 <_ZN4core3fmt9Formatter12pad_integral17h3ecbf5df15337ae3E>
  10b449:	88 84 24 37 01 00 00 	mov    %al,0x137(%rsp)
  10b450:	8a 84 24 37 01 00 00 	mov    0x137(%rsp),%al
  10b457:	88 84 24 38 01 00 00 	mov    %al,0x138(%rsp)
  10b45e:	8a 84 24 38 01 00 00 	mov    0x138(%rsp),%al
  10b465:	48 81 c4 a8 01 00 00 	add    $0x1a8,%rsp
  10b46c:	c3                   	retq   
  10b46d:	48 8d 3d f4 56 00 00 	lea    0x56f4(%rip),%rdi        # 110b68 <panic_loc14738>
  10b474:	e8 17 a0 ff ff       	callq  105490 <_ZN4core9panicking5panic17h585bd70cda921012E>
  10b479:	48 8d 3d 10 57 00 00 	lea    0x5710(%rip),%rdi        # 110b90 <panic_loc14739>
  10b480:	e8 0b a0 ff ff       	callq  105490 <_ZN4core9panicking5panic17h585bd70cda921012E>
  10b485:	48 8d 3d 2c 57 00 00 	lea    0x572c(%rip),%rdi        # 110bb8 <panic_loc14740>
  10b48c:	e8 ff 9f ff ff       	callq  105490 <_ZN4core9panicking5panic17h585bd70cda921012E>
  10b491:	48 8d 3d 48 57 00 00 	lea    0x5748(%rip),%rdi        # 110be0 <panic_loc14741>
  10b498:	e8 f3 9f ff ff       	callq  105490 <_ZN4core9panicking5panic17h585bd70cda921012E>
  10b49d:	48 8d 3d 64 57 00 00 	lea    0x5764(%rip),%rdi        # 110c08 <panic_loc14742>
  10b4a4:	e8 e7 9f ff ff       	callq  105490 <_ZN4core9panicking5panic17h585bd70cda921012E>
  10b4a9:	48 8d 3d 80 57 00 00 	lea    0x5780(%rip),%rdi        # 110c30 <panic_loc14743>
  10b4b0:	e8 db 9f ff ff       	callq  105490 <_ZN4core9panicking5panic17h585bd70cda921012E>
  10b4b5:	48 8d 3d 9c 57 00 00 	lea    0x579c(%rip),%rdi        # 110c58 <panic_loc14744>
  10b4bc:	e8 cf 9f ff ff       	callq  105490 <_ZN4core9panicking5panic17h585bd70cda921012E>
  10b4c1:	48 8d 3d b8 57 00 00 	lea    0x57b8(%rip),%rdi        # 110c80 <panic_loc14745>
  10b4c8:	e8 c3 9f ff ff       	callq  105490 <_ZN4core9panicking5panic17h585bd70cda921012E>
  10b4cd:	48 8d 3d d4 57 00 00 	lea    0x57d4(%rip),%rdi        # 110ca8 <panic_loc14746>
  10b4d4:	e8 b7 9f ff ff       	callq  105490 <_ZN4core9panicking5panic17h585bd70cda921012E>
  10b4d9:	48 8d 3d f0 57 00 00 	lea    0x57f0(%rip),%rdi        # 110cd0 <panic_loc14747>
  10b4e0:	e8 ab 9f ff ff       	callq  105490 <_ZN4core9panicking5panic17h585bd70cda921012E>
  10b4e5:	48 8d 3d 0c 58 00 00 	lea    0x580c(%rip),%rdi        # 110cf8 <panic_loc14748>
  10b4ec:	e8 9f 9f ff ff       	callq  105490 <_ZN4core9panicking5panic17h585bd70cda921012E>
  10b4f1:	66 2e 0f 1f 84 00 00 	nopw   %cs:0x0(%rax,%rax,1)
  10b4f8:	00 00 00 
  10b4fb:	0f 1f 44 00 00       	nopl   0x0(%rax,%rax,1)

000000000010b500 <_ZN4core3fmt8builders10PadAdapter3new17h337c583503d0cab8E>:
  10b500:	48 83 ec 18          	sub    $0x18,%rsp
  10b504:	48 89 f8             	mov    %rdi,%rax
  10b507:	48 89 44 24 10       	mov    %rax,0x10(%rsp)
  10b50c:	48 89 74 24 08       	mov    %rsi,0x8(%rsp)
  10b511:	48 89 3c 24          	mov    %rdi,(%rsp)
  10b515:	eb 00                	jmp    10b517 <_ZN4core3fmt8builders10PadAdapter3new17h337c583503d0cab8E+0x17>
  10b517:	48 8b 04 24          	mov    (%rsp),%rax
  10b51b:	48 8b 4c 24 08       	mov    0x8(%rsp),%rcx
  10b520:	48 89 08             	mov    %rcx,(%rax)
  10b523:	c6 40 08 00          	movb   $0x0,0x8(%rax)
  10b527:	48 8b 44 24 10       	mov    0x10(%rsp),%rax
  10b52c:	48 83 c4 18          	add    $0x18,%rsp
  10b530:	c3                   	retq   
  10b531:	66 2e 0f 1f 84 00 00 	nopw   %cs:0x0(%rax,%rax,1)
  10b538:	00 00 00 
  10b53b:	0f 1f 44 00 00       	nopl   0x0(%rax,%rax,1)

000000000010b540 <_ZN96_$LT$core..fmt..builders..PadAdapter$LT$$u27$a$C$$u20$$u27$b$GT$$u20$as$u20$core..fmt..Write$GT$9write_str17ha5d5b4ae7a810749E>:
  10b540:	48 81 ec 08 01 00 00 	sub    $0x108,%rsp
  10b547:	48 89 74 24 68       	mov    %rsi,0x68(%rsp)
  10b54c:	48 89 7c 24 60       	mov    %rdi,0x60(%rsp)
  10b551:	48 89 54 24 58       	mov    %rdx,0x58(%rsp)
  10b556:	48 8b 44 24 68       	mov    0x68(%rsp),%rax
  10b55b:	48 89 84 24 f0 00 00 	mov    %rax,0xf0(%rsp)
  10b562:	00 
  10b563:	48 8b 4c 24 58       	mov    0x58(%rsp),%rcx
  10b568:	48 89 8c 24 f8 00 00 	mov    %rcx,0xf8(%rsp)
  10b56f:	00 
  10b570:	48 8b bc 24 f0 00 00 	mov    0xf0(%rsp),%rdi
  10b577:	00 
  10b578:	48 8b b4 24 f8 00 00 	mov    0xf8(%rsp),%rsi
  10b57f:	00 
  10b580:	e8 8b e2 ff ff       	callq  109810 <_ZN41_$LT$str$u20$as$u20$core..str..StrExt$GT$8is_empty17h8aa10b8d7e914423E>
  10b585:	88 44 24 57          	mov    %al,0x57(%rsp)
  10b589:	eb 0a                	jmp    10b595 <_ZN96_$LT$core..fmt..builders..PadAdapter$LT$$u27$a$C$$u20$$u27$b$GT$$u20$as$u20$core..fmt..Write$GT$9write_str17ha5d5b4ae7a810749E+0x55>
  10b58b:	c6 84 24 90 00 00 00 	movb   $0x0,0x90(%rsp)
  10b592:	00 
  10b593:	eb 7c                	jmp    10b611 <_ZN96_$LT$core..fmt..builders..PadAdapter$LT$$u27$a$C$$u20$$u27$b$GT$$u20$as$u20$core..fmt..Write$GT$9write_str17ha5d5b4ae7a810749E+0xd1>
  10b595:	8a 44 24 57          	mov    0x57(%rsp),%al
  10b599:	34 ff                	xor    $0xff,%al
  10b59b:	a8 01                	test   $0x1,%al
  10b59d:	75 02                	jne    10b5a1 <_ZN96_$LT$core..fmt..builders..PadAdapter$LT$$u27$a$C$$u20$$u27$b$GT$$u20$as$u20$core..fmt..Write$GT$9write_str17ha5d5b4ae7a810749E+0x61>
  10b59f:	eb ea                	jmp    10b58b <_ZN96_$LT$core..fmt..builders..PadAdapter$LT$$u27$a$C$$u20$$u27$b$GT$$u20$as$u20$core..fmt..Write$GT$9write_str17ha5d5b4ae7a810749E+0x4b>
  10b5a1:	48 8b 44 24 60       	mov    0x60(%rsp),%rax
  10b5a6:	f6 40 08 01          	testb  $0x1,0x8(%rax)
  10b5aa:	74 32                	je     10b5de <_ZN96_$LT$core..fmt..builders..PadAdapter$LT$$u27$a$C$$u20$$u27$b$GT$$u20$as$u20$core..fmt..Write$GT$9write_str17ha5d5b4ae7a810749E+0x9e>
  10b5ac:	48 8d 35 12 48 00 00 	lea    0x4812(%rip),%rsi        # 10fdc5 <str14749>
  10b5b3:	b8 04 00 00 00       	mov    $0x4,%eax
  10b5b8:	89 c2                	mov    %eax,%edx
  10b5ba:	48 8b 4c 24 60       	mov    0x60(%rsp),%rcx
  10b5bf:	48 8b 39             	mov    (%rcx),%rdi
  10b5c2:	e8 09 2e 00 00       	callq  10e3d0 <_ZN4core3fmt9Formatter9write_str17he56f8161327f9d8fE>
  10b5c7:	88 84 24 8f 00 00 00 	mov    %al,0x8f(%rsp)
  10b5ce:	8a 84 24 8f 00 00 00 	mov    0x8f(%rsp),%al
  10b5d5:	88 84 24 c8 00 00 00 	mov    %al,0xc8(%rsp)
  10b5dc:	eb 02                	jmp    10b5e0 <_ZN96_$LT$core..fmt..builders..PadAdapter$LT$$u27$a$C$$u20$$u27$b$GT$$u20$as$u20$core..fmt..Write$GT$9write_str17ha5d5b4ae7a810749E+0xa0>
  10b5de:	eb 40                	jmp    10b620 <_ZN96_$LT$core..fmt..builders..PadAdapter$LT$$u27$a$C$$u20$$u27$b$GT$$u20$as$u20$core..fmt..Write$GT$9write_str17ha5d5b4ae7a810749E+0xe0>
  10b5e0:	8a 84 24 c8 00 00 00 	mov    0xc8(%rsp),%al
  10b5e7:	84 c0                	test   %al,%al
  10b5e9:	88 44 24 56          	mov    %al,0x56(%rsp)
  10b5ed:	74 13                	je     10b602 <_ZN96_$LT$core..fmt..builders..PadAdapter$LT$$u27$a$C$$u20$$u27$b$GT$$u20$as$u20$core..fmt..Write$GT$9write_str17ha5d5b4ae7a810749E+0xc2>
  10b5ef:	eb 00                	jmp    10b5f1 <_ZN96_$LT$core..fmt..builders..PadAdapter$LT$$u27$a$C$$u20$$u27$b$GT$$u20$as$u20$core..fmt..Write$GT$9write_str17ha5d5b4ae7a810749E+0xb1>
  10b5f1:	8a 44 24 56          	mov    0x56(%rsp),%al
  10b5f5:	2c 01                	sub    $0x1,%al
  10b5f7:	88 44 24 55          	mov    %al,0x55(%rsp)
  10b5fb:	74 07                	je     10b604 <_ZN96_$LT$core..fmt..builders..PadAdapter$LT$$u27$a$C$$u20$$u27$b$GT$$u20$as$u20$core..fmt..Write$GT$9write_str17ha5d5b4ae7a810749E+0xc4>
  10b5fd:	e9 c7 01 00 00       	jmpq   10b7c9 <_ZN96_$LT$core..fmt..builders..PadAdapter$LT$$u27$a$C$$u20$$u27$b$GT$$u20$as$u20$core..fmt..Write$GT$9write_str17ha5d5b4ae7a810749E+0x289>
  10b602:	eb 1c                	jmp    10b620 <_ZN96_$LT$core..fmt..builders..PadAdapter$LT$$u27$a$C$$u20$$u27$b$GT$$u20$as$u20$core..fmt..Write$GT$9write_str17ha5d5b4ae7a810749E+0xe0>
  10b604:	e8 d7 9b ff ff       	callq  1051e0 <_ZN50_$LT$T$u20$as$u20$core..convert..From$LT$T$GT$$GT$4from17hde9d3f996ad54071E>
  10b609:	c6 84 24 90 00 00 00 	movb   $0x1,0x90(%rsp)
  10b610:	01 
  10b611:	8a 84 24 90 00 00 00 	mov    0x90(%rsp),%al
  10b618:	48 81 c4 08 01 00 00 	add    $0x108,%rsp
  10b61f:	c3                   	retq   
  10b620:	48 8d bc 24 b8 00 00 	lea    0xb8(%rsp),%rdi
  10b627:	00 
  10b628:	b9 0a 00 00 00       	mov    $0xa,%ecx
  10b62d:	48 8b b4 24 f0 00 00 	mov    0xf0(%rsp),%rsi
  10b634:	00 
  10b635:	48 8b 94 24 f8 00 00 	mov    0xf8(%rsp),%rdx
  10b63c:	00 
  10b63d:	e8 ee e0 ff ff       	callq  109730 <_ZN41_$LT$str$u20$as$u20$core..str..StrExt$GT$4find17h4c72c5b87135b8c0E>
  10b642:	48 8b 84 24 b8 00 00 	mov    0xb8(%rsp),%rax
  10b649:	00 
  10b64a:	48 85 c0             	test   %rax,%rax
  10b64d:	48 89 44 24 48       	mov    %rax,0x48(%rsp)
  10b652:	74 17                	je     10b66b <_ZN96_$LT$core..fmt..builders..PadAdapter$LT$$u27$a$C$$u20$$u27$b$GT$$u20$as$u20$core..fmt..Write$GT$9write_str17ha5d5b4ae7a810749E+0x12b>
  10b654:	eb 00                	jmp    10b656 <_ZN96_$LT$core..fmt..builders..PadAdapter$LT$$u27$a$C$$u20$$u27$b$GT$$u20$as$u20$core..fmt..Write$GT$9write_str17ha5d5b4ae7a810749E+0x116>
  10b656:	48 8b 44 24 48       	mov    0x48(%rsp),%rax
  10b65b:	48 83 e8 01          	sub    $0x1,%rax
  10b65f:	48 89 44 24 40       	mov    %rax,0x40(%rsp)
  10b664:	74 2d                	je     10b693 <_ZN96_$LT$core..fmt..builders..PadAdapter$LT$$u27$a$C$$u20$$u27$b$GT$$u20$as$u20$core..fmt..Write$GT$9write_str17ha5d5b4ae7a810749E+0x153>
  10b666:	e9 5e 01 00 00       	jmpq   10b7c9 <_ZN96_$LT$core..fmt..builders..PadAdapter$LT$$u27$a$C$$u20$$u27$b$GT$$u20$as$u20$core..fmt..Write$GT$9write_str17ha5d5b4ae7a810749E+0x289>
  10b66b:	48 8b 44 24 60       	mov    0x60(%rsp),%rax
  10b670:	c6 40 08 00          	movb   $0x0,0x8(%rax)
  10b674:	48 8b bc 24 f0 00 00 	mov    0xf0(%rsp),%rdi
  10b67b:	00 
  10b67c:	48 8b b4 24 f8 00 00 	mov    0xf8(%rsp),%rsi
  10b683:	00 
  10b684:	e8 37 e1 ff ff       	callq  1097c0 <_ZN41_$LT$str$u20$as$u20$core..str..StrExt$GT$3len17h84c1f589e95b2d96E>
  10b689:	48 89 84 24 e8 00 00 	mov    %rax,0xe8(%rsp)
  10b690:	00 
  10b691:	eb 28                	jmp    10b6bb <_ZN96_$LT$core..fmt..builders..PadAdapter$LT$$u27$a$C$$u20$$u27$b$GT$$u20$as$u20$core..fmt..Write$GT$9write_str17ha5d5b4ae7a810749E+0x17b>
  10b693:	48 8b 84 24 c0 00 00 	mov    0xc0(%rsp),%rax
  10b69a:	00 
  10b69b:	48 8b 4c 24 60       	mov    0x60(%rsp),%rcx
  10b6a0:	c6 41 08 01          	movb   $0x1,0x8(%rcx)
  10b6a4:	48 83 c0 01          	add    $0x1,%rax
  10b6a8:	0f 92 c2             	setb   %dl
  10b6ab:	f6 c2 01             	test   $0x1,%dl
  10b6ae:	48 89 44 24 38       	mov    %rax,0x38(%rsp)
  10b6b3:	0f 85 10 01 00 00    	jne    10b7c9 <_ZN96_$LT$core..fmt..builders..PadAdapter$LT$$u27$a$C$$u20$$u27$b$GT$$u20$as$u20$core..fmt..Write$GT$9write_str17ha5d5b4ae7a810749E+0x289>
  10b6b9:	eb 51                	jmp    10b70c <_ZN96_$LT$core..fmt..builders..PadAdapter$LT$$u27$a$C$$u20$$u27$b$GT$$u20$as$u20$core..fmt..Write$GT$9write_str17ha5d5b4ae7a810749E+0x1cc>
  10b6bb:	48 8b 44 24 60       	mov    0x60(%rsp),%rax
  10b6c0:	48 8b 38             	mov    (%rax),%rdi
  10b6c3:	48 8b 8c 24 f0 00 00 	mov    0xf0(%rsp),%rcx
  10b6ca:	00 
  10b6cb:	48 8b b4 24 f8 00 00 	mov    0xf8(%rsp),%rsi
  10b6d2:	00 
  10b6d3:	48 8b 94 24 e8 00 00 	mov    0xe8(%rsp),%rdx
  10b6da:	00 
  10b6db:	48 89 94 24 a8 00 00 	mov    %rdx,0xa8(%rsp)
  10b6e2:	00 
  10b6e3:	48 89 94 24 80 00 00 	mov    %rdx,0x80(%rsp)
  10b6ea:	00 
  10b6eb:	48 8b 94 24 80 00 00 	mov    0x80(%rsp),%rdx
  10b6f2:	00 
  10b6f3:	48 89 7c 24 30       	mov    %rdi,0x30(%rsp)
  10b6f8:	48 89 cf             	mov    %rcx,%rdi
  10b6fb:	e8 a0 d5 ff ff       	callq  108ca0 <_ZN4core3str6traits89_$LT$impl$u20$core..ops..Index$LT$core..ops..RangeTo$LT$usize$GT$$GT$$u20$for$u20$str$GT$5index17h7349beb06180649aE>
  10b700:	48 89 44 24 28       	mov    %rax,0x28(%rsp)
  10b705:	48 89 54 24 20       	mov    %rdx,0x20(%rsp)
  10b70a:	eb 0f                	jmp    10b71b <_ZN96_$LT$core..fmt..builders..PadAdapter$LT$$u27$a$C$$u20$$u27$b$GT$$u20$as$u20$core..fmt..Write$GT$9write_str17ha5d5b4ae7a810749E+0x1db>
  10b70c:	48 8b 44 24 38       	mov    0x38(%rsp),%rax
  10b711:	48 89 84 24 e8 00 00 	mov    %rax,0xe8(%rsp)
  10b718:	00 
  10b719:	eb a0                	jmp    10b6bb <_ZN96_$LT$core..fmt..builders..PadAdapter$LT$$u27$a$C$$u20$$u27$b$GT$$u20$as$u20$core..fmt..Write$GT$9write_str17ha5d5b4ae7a810749E+0x17b>
  10b71b:	48 8b 7c 24 30       	mov    0x30(%rsp),%rdi
  10b720:	48 8b 74 24 28       	mov    0x28(%rsp),%rsi
  10b725:	48 8b 54 24 20       	mov    0x20(%rsp),%rdx
  10b72a:	e8 a1 2c 00 00       	callq  10e3d0 <_ZN4core3fmt9Formatter9write_str17he56f8161327f9d8fE>
  10b72f:	88 44 24 7f          	mov    %al,0x7f(%rsp)
  10b733:	8a 44 24 7f          	mov    0x7f(%rsp),%al
  10b737:	88 84 24 b0 00 00 00 	mov    %al,0xb0(%rsp)
  10b73e:	8a 84 24 b0 00 00 00 	mov    0xb0(%rsp),%al
  10b745:	84 c0                	test   %al,%al
  10b747:	88 44 24 1f          	mov    %al,0x1f(%rsp)
  10b74b:	74 10                	je     10b75d <_ZN96_$LT$core..fmt..builders..PadAdapter$LT$$u27$a$C$$u20$$u27$b$GT$$u20$as$u20$core..fmt..Write$GT$9write_str17ha5d5b4ae7a810749E+0x21d>
  10b74d:	eb 00                	jmp    10b74f <_ZN96_$LT$core..fmt..builders..PadAdapter$LT$$u27$a$C$$u20$$u27$b$GT$$u20$as$u20$core..fmt..Write$GT$9write_str17ha5d5b4ae7a810749E+0x20f>
  10b74f:	8a 44 24 1f          	mov    0x1f(%rsp),%al
  10b753:	2c 01                	sub    $0x1,%al
  10b755:	88 44 24 1e          	mov    %al,0x1e(%rsp)
  10b759:	74 3d                	je     10b798 <_ZN96_$LT$core..fmt..builders..PadAdapter$LT$$u27$a$C$$u20$$u27$b$GT$$u20$as$u20$core..fmt..Write$GT$9write_str17ha5d5b4ae7a810749E+0x258>
  10b75b:	eb 6c                	jmp    10b7c9 <_ZN96_$LT$core..fmt..builders..PadAdapter$LT$$u27$a$C$$u20$$u27$b$GT$$u20$as$u20$core..fmt..Write$GT$9write_str17ha5d5b4ae7a810749E+0x289>
  10b75d:	48 8b bc 24 f0 00 00 	mov    0xf0(%rsp),%rdi
  10b764:	00 
  10b765:	48 8b b4 24 f8 00 00 	mov    0xf8(%rsp),%rsi
  10b76c:	00 
  10b76d:	48 8b 84 24 e8 00 00 	mov    0xe8(%rsp),%rax
  10b774:	00 
  10b775:	48 89 84 24 a0 00 00 	mov    %rax,0xa0(%rsp)
  10b77c:	00 
  10b77d:	48 89 44 24 70       	mov    %rax,0x70(%rsp)
  10b782:	48 8b 54 24 70       	mov    0x70(%rsp),%rdx
  10b787:	e8 b4 d5 ff ff       	callq  108d40 <_ZN4core3str6traits91_$LT$impl$u20$core..ops..Index$LT$core..ops..RangeFrom$LT$usize$GT$$GT$$u20$for$u20$str$GT$5index17h3ae3e889dddd2dbbE>
  10b78c:	48 89 44 24 10       	mov    %rax,0x10(%rsp)
  10b791:	48 89 54 24 08       	mov    %rdx,0x8(%rsp)
  10b796:	eb 12                	jmp    10b7aa <_ZN96_$LT$core..fmt..builders..PadAdapter$LT$$u27$a$C$$u20$$u27$b$GT$$u20$as$u20$core..fmt..Write$GT$9write_str17ha5d5b4ae7a810749E+0x26a>
  10b798:	e8 43 9a ff ff       	callq  1051e0 <_ZN50_$LT$T$u20$as$u20$core..convert..From$LT$T$GT$$GT$4from17hde9d3f996ad54071E>
  10b79d:	c6 84 24 90 00 00 00 	movb   $0x1,0x90(%rsp)
  10b7a4:	01 
  10b7a5:	e9 67 fe ff ff       	jmpq   10b611 <_ZN96_$LT$core..fmt..builders..PadAdapter$LT$$u27$a$C$$u20$$u27$b$GT$$u20$as$u20$core..fmt..Write$GT$9write_str17ha5d5b4ae7a810749E+0xd1>
  10b7aa:	48 8b 44 24 10       	mov    0x10(%rsp),%rax
  10b7af:	48 89 84 24 f0 00 00 	mov    %rax,0xf0(%rsp)
  10b7b6:	00 
  10b7b7:	48 8b 4c 24 08       	mov    0x8(%rsp),%rcx
  10b7bc:	48 89 8c 24 f8 00 00 	mov    %rcx,0xf8(%rsp)
  10b7c3:	00 
  10b7c4:	e9 a7 fd ff ff       	jmpq   10b570 <_ZN96_$LT$core..fmt..builders..PadAdapter$LT$$u27$a$C$$u20$$u27$b$GT$$u20$as$u20$core..fmt..Write$GT$9write_str17ha5d5b4ae7a810749E+0x30>
  10b7c9:	48 8d 3d 50 55 00 00 	lea    0x5550(%rip),%rdi        # 110d20 <panic_loc14752>
  10b7d0:	e8 bb 9c ff ff       	callq  105490 <_ZN4core9panicking5panic17h585bd70cda921012E>
  10b7d5:	66 2e 0f 1f 84 00 00 	nopw   %cs:0x0(%rax,%rax,1)
  10b7dc:	00 00 00 
  10b7df:	90                   	nop

000000000010b7e0 <_ZN4core3fmt8builders15debug_tuple_new17hf61ac9313bea5f96E>:
  10b7e0:	48 83 ec 48          	sub    $0x48,%rsp
  10b7e4:	48 89 f8             	mov    %rdi,%rax
  10b7e7:	48 89 44 24 28       	mov    %rax,0x28(%rsp)
  10b7ec:	48 89 4c 24 20       	mov    %rcx,0x20(%rsp)
  10b7f1:	48 89 54 24 18       	mov    %rdx,0x18(%rsp)
  10b7f6:	48 89 74 24 10       	mov    %rsi,0x10(%rsp)
  10b7fb:	48 89 7c 24 08       	mov    %rdi,0x8(%rsp)
  10b800:	48 8b 7c 24 10       	mov    0x10(%rsp),%rdi
  10b805:	48 8b 74 24 18       	mov    0x18(%rsp),%rsi
  10b80a:	48 8b 54 24 20       	mov    0x20(%rsp),%rdx
  10b80f:	e8 bc 2b 00 00       	callq  10e3d0 <_ZN4core3fmt9Formatter9write_str17he56f8161327f9d8fE>
  10b814:	88 44 24 37          	mov    %al,0x37(%rsp)
  10b818:	8a 44 24 37          	mov    0x37(%rsp),%al
  10b81c:	88 44 24 40          	mov    %al,0x40(%rsp)
  10b820:	8a 44 24 40          	mov    0x40(%rsp),%al
  10b824:	88 44 24 38          	mov    %al,0x38(%rsp)
  10b828:	48 8b 7c 24 18       	mov    0x18(%rsp),%rdi
  10b82d:	48 8b 74 24 20       	mov    0x20(%rsp),%rsi
  10b832:	e8 d9 df ff ff       	callq  109810 <_ZN41_$LT$str$u20$as$u20$core..str..StrExt$GT$8is_empty17h8aa10b8d7e914423E>
  10b837:	88 44 24 07          	mov    %al,0x7(%rsp)
  10b83b:	48 8b 44 24 08       	mov    0x8(%rsp),%rax
  10b840:	48 8b 4c 24 10       	mov    0x10(%rsp),%rcx
  10b845:	48 89 08             	mov    %rcx,(%rax)
  10b848:	8a 54 24 38          	mov    0x38(%rsp),%dl
  10b84c:	88 50 08             	mov    %dl,0x8(%rax)
  10b84f:	48 c7 40 10 00 00 00 	movq   $0x0,0x10(%rax)
  10b856:	00 
  10b857:	8a 54 24 07          	mov    0x7(%rsp),%dl
  10b85b:	80 e2 01             	and    $0x1,%dl
  10b85e:	88 50 18             	mov    %dl,0x18(%rax)
  10b861:	48 8b 44 24 28       	mov    0x28(%rsp),%rax
  10b866:	48 83 c4 48          	add    $0x48,%rsp
  10b86a:	c3                   	retq   
  10b86b:	0f 1f 44 00 00       	nopl   0x0(%rax,%rax,1)

000000000010b870 <_ZN4core3fmt8builders10DebugTuple5field17h30749d60af604012E>:
  10b870:	48 81 ec 88 00 00 00 	sub    $0x88,%rsp
  10b877:	48 89 74 24 20       	mov    %rsi,0x20(%rsp)
  10b87c:	48 89 7c 24 18       	mov    %rdi,0x18(%rsp)
  10b881:	48 89 54 24 10       	mov    %rdx,0x10(%rsp)
  10b886:	48 8d 74 24 30       	lea    0x30(%rsp),%rsi
  10b88b:	48 8b 44 24 18       	mov    0x18(%rsp),%rax
  10b890:	48 89 44 24 78       	mov    %rax,0x78(%rsp)
  10b895:	48 8b 4c 24 20       	mov    0x20(%rsp),%rcx
  10b89a:	48 89 4c 24 68       	mov    %rcx,0x68(%rsp)
  10b89f:	48 8b 54 24 10       	mov    0x10(%rsp),%rdx
  10b8a4:	48 89 54 24 70       	mov    %rdx,0x70(%rsp)
  10b8a9:	48 8b 7c 24 78       	mov    0x78(%rsp),%rdi
  10b8ae:	44 8a 47 08          	mov    0x8(%rdi),%r8b
  10b8b2:	44 88 44 24 58       	mov    %r8b,0x58(%rsp)
  10b8b7:	48 8d 7c 24 78       	lea    0x78(%rsp),%rdi
  10b8bc:	48 89 7c 24 48       	mov    %rdi,0x48(%rsp)
  10b8c1:	48 8d 7c 24 68       	lea    0x68(%rsp),%rdi
  10b8c6:	48 89 7c 24 50       	mov    %rdi,0x50(%rsp)
  10b8cb:	44 8a 44 24 58       	mov    0x58(%rsp),%r8b
  10b8d0:	44 88 44 24 40       	mov    %r8b,0x40(%rsp)
  10b8d5:	44 8a 44 24 40       	mov    0x40(%rsp),%r8b
  10b8da:	48 8b 7c 24 48       	mov    0x48(%rsp),%rdi
  10b8df:	4c 8b 4c 24 50       	mov    0x50(%rsp),%r9
  10b8e4:	48 89 7c 24 30       	mov    %rdi,0x30(%rsp)
  10b8e9:	4c 89 4c 24 38       	mov    %r9,0x38(%rsp)
  10b8ee:	41 0f b6 f8          	movzbl %r8b,%edi
  10b8f2:	e8 49 b6 ff ff       	callq  106f40 <_ZN47_$LT$core..result..Result$LT$T$C$$u20$E$GT$$GT$8and_then17h4b09678357bc344aE>
  10b8f7:	88 44 24 2f          	mov    %al,0x2f(%rsp)
  10b8fb:	8a 44 24 2f          	mov    0x2f(%rsp),%al
  10b8ff:	88 44 24 60          	mov    %al,0x60(%rsp)
  10b903:	48 8b 44 24 78       	mov    0x78(%rsp),%rax
  10b908:	8a 4c 24 60          	mov    0x60(%rsp),%cl
  10b90c:	88 48 08             	mov    %cl,0x8(%rax)
  10b90f:	48 8b 44 24 78       	mov    0x78(%rsp),%rax
  10b914:	48 8b 40 10          	mov    0x10(%rax),%rax
  10b918:	48 83 c0 01          	add    $0x1,%rax
  10b91c:	0f 92 c1             	setb   %cl
  10b91f:	f6 c1 01             	test   $0x1,%cl
  10b922:	48 89 44 24 08       	mov    %rax,0x8(%rsp)
  10b927:	75 1b                	jne    10b944 <_ZN4core3fmt8builders10DebugTuple5field17h30749d60af604012E+0xd4>
  10b929:	48 8b 44 24 78       	mov    0x78(%rsp),%rax
  10b92e:	48 8b 4c 24 08       	mov    0x8(%rsp),%rcx
  10b933:	48 89 48 10          	mov    %rcx,0x10(%rax)
  10b937:	48 8b 44 24 78       	mov    0x78(%rsp),%rax
  10b93c:	48 81 c4 88 00 00 00 	add    $0x88,%rsp
  10b943:	c3                   	retq   
  10b944:	48 8d 3d 2d 54 00 00 	lea    0x542d(%rip),%rdi        # 110d78 <panic_loc14765>
  10b94b:	e8 40 9b ff ff       	callq  105490 <_ZN4core9panicking5panic17h585bd70cda921012E>

000000000010b950 <_ZN4core3fmt8builders10DebugTuple6finish17h2b52c52c2c1530a3E>:
  10b950:	48 83 ec 68          	sub    $0x68,%rsp
  10b954:	48 89 7c 24 08       	mov    %rdi,0x8(%rsp)
  10b959:	48 8b 44 24 08       	mov    0x8(%rsp),%rax
  10b95e:	48 89 44 24 58       	mov    %rax,0x58(%rsp)
  10b963:	48 8b 4c 24 58       	mov    0x58(%rsp),%rcx
  10b968:	48 83 79 10 00       	cmpq   $0x0,0x10(%rcx)
  10b96d:	76 43                	jbe    10b9b2 <_ZN4core3fmt8builders10DebugTuple6finish17h2b52c52c2c1530a3E+0x62>
  10b96f:	48 8b 44 24 58       	mov    0x58(%rsp),%rax
  10b974:	8a 48 08             	mov    0x8(%rax),%cl
  10b977:	88 4c 24 40          	mov    %cl,0x40(%rsp)
  10b97b:	48 8d 44 24 58       	lea    0x58(%rsp),%rax
  10b980:	48 89 44 24 38       	mov    %rax,0x38(%rsp)
  10b985:	8a 4c 24 40          	mov    0x40(%rsp),%cl
  10b989:	88 4c 24 20          	mov    %cl,0x20(%rsp)
  10b98d:	48 8b 44 24 38       	mov    0x38(%rsp),%rax
  10b992:	48 89 44 24 18       	mov    %rax,0x18(%rsp)
  10b997:	48 8b 74 24 18       	mov    0x18(%rsp),%rsi
  10b99c:	0f b6 f9             	movzbl %cl,%edi
  10b99f:	e8 ac b6 ff ff       	callq  107050 <_ZN47_$LT$core..result..Result$LT$T$C$$u20$E$GT$$GT$8and_then17h834c58a6853855acE>
  10b9a4:	88 44 24 17          	mov    %al,0x17(%rsp)
  10b9a8:	8a 44 24 17          	mov    0x17(%rsp),%al
  10b9ac:	88 44 24 48          	mov    %al,0x48(%rsp)
  10b9b0:	eb 02                	jmp    10b9b4 <_ZN4core3fmt8builders10DebugTuple6finish17h2b52c52c2c1530a3E+0x64>
  10b9b2:	eb 0c                	jmp    10b9c0 <_ZN4core3fmt8builders10DebugTuple6finish17h2b52c52c2c1530a3E+0x70>
  10b9b4:	48 8b 44 24 58       	mov    0x58(%rsp),%rax
  10b9b9:	8a 4c 24 48          	mov    0x48(%rsp),%cl
  10b9bd:	88 48 08             	mov    %cl,0x8(%rax)
  10b9c0:	48 8b 44 24 58       	mov    0x58(%rsp),%rax
  10b9c5:	8a 48 08             	mov    0x8(%rax),%cl
  10b9c8:	88 4c 24 30          	mov    %cl,0x30(%rsp)
  10b9cc:	88 4c 24 28          	mov    %cl,0x28(%rsp)
  10b9d0:	8a 44 24 28          	mov    0x28(%rsp),%al
  10b9d4:	48 83 c4 68          	add    $0x68,%rsp
  10b9d8:	c3                   	retq   
  10b9d9:	0f 1f 80 00 00 00 00 	nopl   0x0(%rax)

000000000010b9e0 <_ZN4core3fmt8builders10DebugTuple9is_pretty17hfab0ceeeee73d23eE>:
  10b9e0:	48 83 ec 18          	sub    $0x18,%rsp
  10b9e4:	48 89 7c 24 08       	mov    %rdi,0x8(%rsp)
  10b9e9:	48 8b 44 24 08       	mov    0x8(%rsp),%rax
  10b9ee:	48 8b 38             	mov    (%rax),%rdi
  10b9f1:	e8 da 2a 00 00       	callq  10e4d0 <_ZN4core3fmt9Formatter5flags17h02343ed7c1878824E>
  10b9f6:	89 44 24 04          	mov    %eax,0x4(%rsp)
  10b9fa:	b8 01 00 00 00       	mov    $0x1,%eax
  10b9ff:	c6 44 24 16 02       	movb   $0x2,0x16(%rsp)
  10ba04:	0f b6 4c 24 16       	movzbl 0x16(%rsp),%ecx
  10ba09:	89 ca                	mov    %ecx,%edx
  10ba0b:	48 89 d6             	mov    %rdx,%rsi
  10ba0e:	48 83 e6 e0          	and    $0xffffffffffffffe0,%rsi
  10ba12:	48 83 fe 00          	cmp    $0x0,%rsi
  10ba16:	40 0f 95 c7          	setne  %dil
  10ba1a:	89 d1                	mov    %edx,%ecx
  10ba1c:	83 e1 1f             	and    $0x1f,%ecx
  10ba1f:	d3 e0                	shl    %cl,%eax
  10ba21:	40 f6 c7 01          	test   $0x1,%dil
  10ba25:	89 04 24             	mov    %eax,(%rsp)
  10ba28:	75 1a                	jne    10ba44 <_ZN4core3fmt8builders10DebugTuple9is_pretty17hfab0ceeeee73d23eE+0x64>
  10ba2a:	8b 44 24 04          	mov    0x4(%rsp),%eax
  10ba2e:	8b 0c 24             	mov    (%rsp),%ecx
  10ba31:	21 c8                	and    %ecx,%eax
  10ba33:	83 f8 00             	cmp    $0x0,%eax
  10ba36:	0f 95 c2             	setne  %dl
  10ba39:	80 e2 01             	and    $0x1,%dl
  10ba3c:	0f b6 c2             	movzbl %dl,%eax
  10ba3f:	48 83 c4 18          	add    $0x18,%rsp
  10ba43:	c3                   	retq   
  10ba44:	48 8d 3d a5 53 00 00 	lea    0x53a5(%rip),%rdi        # 110df0 <panic_loc14770>
  10ba4b:	e8 40 9a ff ff       	callq  105490 <_ZN4core9panicking5panic17h585bd70cda921012E>

000000000010ba50 <_ZN53_$LT$core..fmt..Error$u20$as$u20$core..fmt..Debug$GT$3fmt17h493687bd3a737fd3E>:
  10ba50:	48 83 ec 48          	sub    $0x48,%rsp
  10ba54:	48 89 7c 24 08       	mov    %rdi,0x8(%rsp)
  10ba59:	48 89 34 24          	mov    %rsi,(%rsp)
  10ba5d:	eb 00                	jmp    10ba5f <_ZN53_$LT$core..fmt..Error$u20$as$u20$core..fmt..Debug$GT$3fmt17h493687bd3a737fd3E+0xf>
  10ba5f:	48 8d 7c 24 20       	lea    0x20(%rsp),%rdi
  10ba64:	48 8d 15 0e 44 00 00 	lea    0x440e(%rip),%rdx        # 10fe79 <str14784>
  10ba6b:	b8 05 00 00 00       	mov    $0x5,%eax
  10ba70:	89 c1                	mov    %eax,%ecx
  10ba72:	48 8b 34 24          	mov    (%rsp),%rsi
  10ba76:	e8 c5 2b 00 00       	callq  10e640 <_ZN4core3fmt9Formatter11debug_tuple17h524ead03f4ecc241E>
  10ba7b:	eb 09                	jmp    10ba86 <_ZN53_$LT$core..fmt..Error$u20$as$u20$core..fmt..Debug$GT$3fmt17h493687bd3a737fd3E+0x36>
  10ba7d:	8a 44 24 18          	mov    0x18(%rsp),%al
  10ba81:	48 83 c4 48          	add    $0x48,%rsp
  10ba85:	c3                   	retq   
  10ba86:	48 8d 7c 24 20       	lea    0x20(%rsp),%rdi
  10ba8b:	e8 c0 fe ff ff       	callq  10b950 <_ZN4core3fmt8builders10DebugTuple6finish17h2b52c52c2c1530a3E>
  10ba90:	88 44 24 17          	mov    %al,0x17(%rsp)
  10ba94:	8a 44 24 17          	mov    0x17(%rsp),%al
  10ba98:	88 44 24 18          	mov    %al,0x18(%rsp)
  10ba9c:	eb df                	jmp    10ba7d <_ZN53_$LT$core..fmt..Error$u20$as$u20$core..fmt..Debug$GT$3fmt17h493687bd3a737fd3E+0x2d>
  10ba9e:	66 90                	xchg   %ax,%ax

000000000010baa0 <_ZN4core3fmt5Write10write_char17hac0dbae38a3d41f2E>:
  10baa0:	48 83 ec 68          	sub    $0x68,%rsp
  10baa4:	48 89 7c 24 28       	mov    %rdi,0x28(%rsp)
  10baa9:	89 74 24 24          	mov    %esi,0x24(%rsp)
  10baad:	48 8d 7c 24 40       	lea    0x40(%rsp),%rdi
  10bab2:	8b 74 24 24          	mov    0x24(%rsp),%esi
  10bab6:	e8 55 97 ff ff       	callq  105210 <_ZN44_$LT$char$u20$as$u20$core..char..CharExt$GT$11encode_utf817h7df4fc3325f57883E>
  10babb:	48 8d 7c 24 40       	lea    0x40(%rsp),%rdi
  10bac0:	e8 7b 99 ff ff       	callq  105440 <_ZN4core4char10EncodeUtf88as_slice17h087b7807397e0642E>
  10bac5:	48 89 44 24 18       	mov    %rax,0x18(%rsp)
  10baca:	48 89 54 24 10       	mov    %rdx,0x10(%rsp)
  10bacf:	48 8b 44 24 18       	mov    0x18(%rsp),%rax
  10bad4:	48 89 44 24 58       	mov    %rax,0x58(%rsp)
  10bad9:	48 8b 4c 24 10       	mov    0x10(%rsp),%rcx
  10bade:	48 89 4c 24 60       	mov    %rcx,0x60(%rsp)
  10bae3:	48 8b 74 24 58       	mov    0x58(%rsp),%rsi
  10bae8:	48 89 4c 24 08       	mov    %rcx,0x8(%rsp)
  10baed:	48 89 34 24          	mov    %rsi,(%rsp)
  10baf1:	48 8b 7c 24 28       	mov    0x28(%rsp),%rdi
  10baf6:	48 8b 34 24          	mov    (%rsp),%rsi
  10bafa:	48 8b 54 24 08       	mov    0x8(%rsp),%rdx
  10baff:	e8 3c fa ff ff       	callq  10b540 <_ZN96_$LT$core..fmt..builders..PadAdapter$LT$$u27$a$C$$u20$$u27$b$GT$$u20$as$u20$core..fmt..Write$GT$9write_str17ha5d5b4ae7a810749E>
  10bb04:	88 44 24 37          	mov    %al,0x37(%rsp)
  10bb08:	8a 44 24 37          	mov    0x37(%rsp),%al
  10bb0c:	88 44 24 38          	mov    %al,0x38(%rsp)
  10bb10:	8a 44 24 38          	mov    0x38(%rsp),%al
  10bb14:	48 83 c4 68          	add    $0x68,%rsp
  10bb18:	c3                   	retq   
  10bb19:	0f 1f 80 00 00 00 00 	nopl   0x0(%rax)

000000000010bb20 <_ZN4core3fmt5Write9write_fmt17he5d6c112fcb6a39eE>:
  10bb20:	48 81 ec c8 00 00 00 	sub    $0xc8,%rsp
  10bb27:	48 89 7c 24 40       	mov    %rdi,0x40(%rsp)
  10bb2c:	48 89 74 24 38       	mov    %rsi,0x38(%rsp)
  10bb31:	48 8d 35 e0 52 00 00 	lea    0x52e0(%rip),%rsi        # 110e18 <vtable14785>
  10bb38:	48 8d 44 24 58       	lea    0x58(%rsp),%rax
  10bb3d:	b9 30 00 00 00       	mov    $0x30,%ecx
  10bb42:	89 ca                	mov    %ecx,%edx
  10bb44:	48 8d bc 24 90 00 00 	lea    0x90(%rsp),%rdi
  10bb4b:	00 
  10bb4c:	4c 8d 84 24 88 00 00 	lea    0x88(%rsp),%r8
  10bb53:	00 
  10bb54:	4c 8b 4c 24 38       	mov    0x38(%rsp),%r9
  10bb59:	49 89 fa             	mov    %rdi,%r10
  10bb5c:	48 89 7c 24 30       	mov    %rdi,0x30(%rsp)
  10bb61:	4c 89 d7             	mov    %r10,%rdi
  10bb64:	48 89 74 24 28       	mov    %rsi,0x28(%rsp)
  10bb69:	4c 89 ce             	mov    %r9,%rsi
  10bb6c:	48 89 54 24 20       	mov    %rdx,0x20(%rsp)
  10bb71:	4c 89 44 24 18       	mov    %r8,0x18(%rsp)
  10bb76:	48 89 44 24 10       	mov    %rax,0x10(%rsp)
  10bb7b:	e8 d0 85 ff ff       	callq  104150 <memcpy>
  10bb80:	48 8b 44 24 40       	mov    0x40(%rsp),%rax
  10bb85:	48 89 84 24 88 00 00 	mov    %rax,0x88(%rsp)
  10bb8c:	00 
  10bb8d:	48 8b 54 24 18       	mov    0x18(%rsp),%rdx
  10bb92:	48 8b 74 24 30       	mov    0x30(%rsp),%rsi
  10bb97:	48 8b 7c 24 10       	mov    0x10(%rsp),%rdi
  10bb9c:	4c 8b 44 24 20       	mov    0x20(%rsp),%r8
  10bba1:	48 89 54 24 08       	mov    %rdx,0x8(%rsp)
  10bba6:	4c 89 c2             	mov    %r8,%rdx
  10bba9:	e8 a2 85 ff ff       	callq  104150 <memcpy>
  10bbae:	48 8b 7c 24 08       	mov    0x8(%rsp),%rdi
  10bbb3:	48 8b 74 24 28       	mov    0x28(%rsp),%rsi
  10bbb8:	48 8b 54 24 10       	mov    0x10(%rsp),%rdx
  10bbbd:	e8 7e 05 00 00       	callq  10c140 <_ZN4core3fmt5write17hdcfad2ffcde93598E>
  10bbc2:	88 44 24 4f          	mov    %al,0x4f(%rsp)
  10bbc6:	8a 44 24 4f          	mov    0x4f(%rsp),%al
  10bbca:	88 44 24 50          	mov    %al,0x50(%rsp)
  10bbce:	8a 44 24 50          	mov    0x50(%rsp),%al
  10bbd2:	48 81 c4 c8 00 00 00 	add    $0xc8,%rsp
  10bbd9:	c3                   	retq   
  10bbda:	66 0f 1f 44 00 00    	nopw   0x0(%rax,%rax,1)

000000000010bbe0 <_ZN96_$LT$core..fmt..Write..write_fmt..Adapter$LT$$u27$a$C$$u20$T$GT$$u20$as$u20$core..fmt..Write$GT$9write_str17h4bf1544098cc4dd0E>:
  10bbe0:	48 83 ec 38          	sub    $0x38,%rsp
  10bbe4:	48 89 74 24 18       	mov    %rsi,0x18(%rsp)
  10bbe9:	48 89 7c 24 10       	mov    %rdi,0x10(%rsp)
  10bbee:	48 89 54 24 08       	mov    %rdx,0x8(%rsp)
  10bbf3:	48 8b 44 24 10       	mov    0x10(%rsp),%rax
  10bbf8:	48 8b 38             	mov    (%rax),%rdi
  10bbfb:	48 8b 74 24 18       	mov    0x18(%rsp),%rsi
  10bc00:	48 8b 54 24 08       	mov    0x8(%rsp),%rdx
  10bc05:	e8 36 f9 ff ff       	callq  10b540 <_ZN96_$LT$core..fmt..builders..PadAdapter$LT$$u27$a$C$$u20$$u27$b$GT$$u20$as$u20$core..fmt..Write$GT$9write_str17ha5d5b4ae7a810749E>
  10bc0a:	88 44 24 27          	mov    %al,0x27(%rsp)
  10bc0e:	8a 44 24 27          	mov    0x27(%rsp),%al
  10bc12:	88 44 24 28          	mov    %al,0x28(%rsp)
  10bc16:	8a 44 24 28          	mov    0x28(%rsp),%al
  10bc1a:	48 83 c4 38          	add    $0x38,%rsp
  10bc1e:	c3                   	retq   
  10bc1f:	90                   	nop

000000000010bc20 <_ZN96_$LT$core..fmt..Write..write_fmt..Adapter$LT$$u27$a$C$$u20$T$GT$$u20$as$u20$core..fmt..Write$GT$10write_char17h12da255bd98ba75bE>:
  10bc20:	48 83 ec 28          	sub    $0x28,%rsp
  10bc24:	48 89 7c 24 08       	mov    %rdi,0x8(%rsp)
  10bc29:	89 74 24 04          	mov    %esi,0x4(%rsp)
  10bc2d:	48 8b 44 24 08       	mov    0x8(%rsp),%rax
  10bc32:	48 8b 38             	mov    (%rax),%rdi
  10bc35:	8b 74 24 04          	mov    0x4(%rsp),%esi
  10bc39:	e8 62 fe ff ff       	callq  10baa0 <_ZN4core3fmt5Write10write_char17hac0dbae38a3d41f2E>
  10bc3e:	88 44 24 17          	mov    %al,0x17(%rsp)
  10bc42:	8a 44 24 17          	mov    0x17(%rsp),%al
  10bc46:	88 44 24 18          	mov    %al,0x18(%rsp)
  10bc4a:	8a 44 24 18          	mov    0x18(%rsp),%al
  10bc4e:	48 83 c4 28          	add    $0x28,%rsp
  10bc52:	c3                   	retq   
  10bc53:	66 2e 0f 1f 84 00 00 	nopw   %cs:0x0(%rax,%rax,1)
  10bc5a:	00 00 00 
  10bc5d:	0f 1f 00             	nopl   (%rax)

000000000010bc60 <_ZN96_$LT$core..fmt..Write..write_fmt..Adapter$LT$$u27$a$C$$u20$T$GT$$u20$as$u20$core..fmt..Write$GT$9write_fmt17ha560a8c5e159f470E>:
  10bc60:	48 81 ec b8 00 00 00 	sub    $0xb8,%rsp
  10bc67:	48 89 7c 24 38       	mov    %rdi,0x38(%rsp)
  10bc6c:	48 89 74 24 30       	mov    %rsi,0x30(%rsp)
  10bc71:	48 8d 44 24 50       	lea    0x50(%rsp),%rax
  10bc76:	b9 30 00 00 00       	mov    $0x30,%ecx
  10bc7b:	89 ca                	mov    %ecx,%edx
  10bc7d:	48 8d b4 24 80 00 00 	lea    0x80(%rsp),%rsi
  10bc84:	00 
  10bc85:	48 8b 7c 24 30       	mov    0x30(%rsp),%rdi
  10bc8a:	49 89 f0             	mov    %rsi,%r8
  10bc8d:	48 89 7c 24 28       	mov    %rdi,0x28(%rsp)
  10bc92:	4c 89 c7             	mov    %r8,%rdi
  10bc95:	4c 8b 44 24 28       	mov    0x28(%rsp),%r8
  10bc9a:	48 89 74 24 20       	mov    %rsi,0x20(%rsp)
  10bc9f:	4c 89 c6             	mov    %r8,%rsi
  10bca2:	48 89 54 24 18       	mov    %rdx,0x18(%rsp)
  10bca7:	48 89 44 24 10       	mov    %rax,0x10(%rsp)
  10bcac:	e8 9f 84 ff ff       	callq  104150 <memcpy>
  10bcb1:	48 8b 44 24 38       	mov    0x38(%rsp),%rax
  10bcb6:	48 8b 38             	mov    (%rax),%rdi
  10bcb9:	48 8b 54 24 20       	mov    0x20(%rsp),%rdx
  10bcbe:	48 8b 74 24 10       	mov    0x10(%rsp),%rsi
  10bcc3:	48 89 7c 24 08       	mov    %rdi,0x8(%rsp)
  10bcc8:	48 89 f7             	mov    %rsi,%rdi
  10bccb:	48 89 d6             	mov    %rdx,%rsi
  10bcce:	48 8b 54 24 18       	mov    0x18(%rsp),%rdx
  10bcd3:	e8 78 84 ff ff       	callq  104150 <memcpy>
  10bcd8:	48 8b 7c 24 08       	mov    0x8(%rsp),%rdi
  10bcdd:	48 8b 74 24 10       	mov    0x10(%rsp),%rsi
  10bce2:	e8 39 fe ff ff       	callq  10bb20 <_ZN4core3fmt5Write9write_fmt17he5d6c112fcb6a39eE>
  10bce7:	88 44 24 47          	mov    %al,0x47(%rsp)
  10bceb:	8a 44 24 47          	mov    0x47(%rsp),%al
  10bcef:	88 44 24 48          	mov    %al,0x48(%rsp)
  10bcf3:	8a 44 24 48          	mov    0x48(%rsp),%al
  10bcf7:	48 81 c4 b8 00 00 00 	add    $0xb8,%rsp
  10bcfe:	c3                   	retq   
  10bcff:	90                   	nop

000000000010bd00 <_ZN4core3fmt10ArgumentV110show_usize17h0e9daf226c6514e0E>:
  10bd00:	48 83 ec 28          	sub    $0x28,%rsp
  10bd04:	48 89 7c 24 08       	mov    %rdi,0x8(%rsp)
  10bd09:	48 89 34 24          	mov    %rsi,(%rsp)
  10bd0d:	48 8b 7c 24 08       	mov    0x8(%rsp),%rdi
  10bd12:	48 8b 34 24          	mov    (%rsp),%rsi
  10bd16:	e8 45 f1 ff ff       	callq  10ae60 <_ZN4core3fmt3num54_$LT$impl$u20$core..fmt..Display$u20$for$u20$usize$GT$3fmt17h163484b597e27a9bE>
  10bd1b:	88 44 24 17          	mov    %al,0x17(%rsp)
  10bd1f:	8a 44 24 17          	mov    0x17(%rsp),%al
  10bd23:	88 44 24 18          	mov    %al,0x18(%rsp)
  10bd27:	8a 44 24 18          	mov    0x18(%rsp),%al
  10bd2b:	48 83 c4 28          	add    $0x28,%rsp
  10bd2f:	c3                   	retq   

000000000010bd30 <_ZN4core3fmt10ArgumentV13new17h1102d95c259e7ad3E>:
  10bd30:	48 83 ec 40          	sub    $0x40,%rsp
  10bd34:	48 89 f8             	mov    %rdi,%rax
  10bd37:	48 89 44 24 28       	mov    %rax,0x28(%rsp)
  10bd3c:	48 89 54 24 20       	mov    %rdx,0x20(%rsp)
  10bd41:	48 89 74 24 18       	mov    %rsi,0x18(%rsp)
  10bd46:	48 89 7c 24 10       	mov    %rdi,0x10(%rsp)
  10bd4b:	48 8b 44 24 20       	mov    0x20(%rsp),%rax
  10bd50:	48 89 44 24 38       	mov    %rax,0x38(%rsp)
  10bd55:	48 8b 4c 24 38       	mov    0x38(%rsp),%rcx
  10bd5a:	48 89 4c 24 08       	mov    %rcx,0x8(%rsp)
  10bd5f:	48 8b 44 24 18       	mov    0x18(%rsp),%rax
  10bd64:	48 89 44 24 30       	mov    %rax,0x30(%rsp)
  10bd69:	48 8b 4c 24 30       	mov    0x30(%rsp),%rcx
  10bd6e:	48 89 0c 24          	mov    %rcx,(%rsp)
  10bd72:	48 8b 44 24 10       	mov    0x10(%rsp),%rax
  10bd77:	48 8b 0c 24          	mov    (%rsp),%rcx
  10bd7b:	48 89 08             	mov    %rcx,(%rax)
  10bd7e:	48 8b 54 24 08       	mov    0x8(%rsp),%rdx
  10bd83:	48 89 50 08          	mov    %rdx,0x8(%rax)
  10bd87:	48 8b 44 24 28       	mov    0x28(%rsp),%rax
  10bd8c:	48 83 c4 40          	add    $0x40,%rsp
  10bd90:	c3                   	retq   
  10bd91:	66 2e 0f 1f 84 00 00 	nopw   %cs:0x0(%rax,%rax,1)
  10bd98:	00 00 00 
  10bd9b:	0f 1f 44 00 00       	nopl   0x0(%rax,%rax,1)

000000000010bda0 <_ZN4core3fmt10ArgumentV13new17h710935a10de9157aE>:
  10bda0:	48 83 ec 40          	sub    $0x40,%rsp
  10bda4:	48 89 f8             	mov    %rdi,%rax
  10bda7:	48 89 44 24 28       	mov    %rax,0x28(%rsp)
  10bdac:	48 89 54 24 20       	mov    %rdx,0x20(%rsp)
  10bdb1:	48 89 74 24 18       	mov    %rsi,0x18(%rsp)
  10bdb6:	48 89 7c 24 10       	mov    %rdi,0x10(%rsp)
  10bdbb:	48 8b 44 24 20       	mov    0x20(%rsp),%rax
  10bdc0:	48 89 44 24 38       	mov    %rax,0x38(%rsp)
  10bdc5:	48 8b 4c 24 38       	mov    0x38(%rsp),%rcx
  10bdca:	48 89 4c 24 08       	mov    %rcx,0x8(%rsp)
  10bdcf:	48 8b 44 24 18       	mov    0x18(%rsp),%rax
  10bdd4:	48 89 44 24 30       	mov    %rax,0x30(%rsp)
  10bdd9:	48 8b 4c 24 30       	mov    0x30(%rsp),%rcx
  10bdde:	48 89 0c 24          	mov    %rcx,(%rsp)
  10bde2:	48 8b 44 24 10       	mov    0x10(%rsp),%rax
  10bde7:	48 8b 0c 24          	mov    (%rsp),%rcx
  10bdeb:	48 89 08             	mov    %rcx,(%rax)
  10bdee:	48 8b 54 24 08       	mov    0x8(%rsp),%rdx
  10bdf3:	48 89 50 08          	mov    %rdx,0x8(%rax)
  10bdf7:	48 8b 44 24 28       	mov    0x28(%rsp),%rax
  10bdfc:	48 83 c4 40          	add    $0x40,%rsp
  10be00:	c3                   	retq   
  10be01:	66 2e 0f 1f 84 00 00 	nopw   %cs:0x0(%rax,%rax,1)
  10be08:	00 00 00 
  10be0b:	0f 1f 44 00 00       	nopl   0x0(%rax,%rax,1)

000000000010be10 <_ZN4core3fmt10ArgumentV13new17h7efc0801b002f9b9E>:
  10be10:	48 83 ec 40          	sub    $0x40,%rsp
  10be14:	48 89 f8             	mov    %rdi,%rax
  10be17:	48 89 44 24 28       	mov    %rax,0x28(%rsp)
  10be1c:	48 89 54 24 20       	mov    %rdx,0x20(%rsp)
  10be21:	48 89 74 24 18       	mov    %rsi,0x18(%rsp)
  10be26:	48 89 7c 24 10       	mov    %rdi,0x10(%rsp)
  10be2b:	48 8b 44 24 20       	mov    0x20(%rsp),%rax
  10be30:	48 89 44 24 38       	mov    %rax,0x38(%rsp)
  10be35:	48 8b 4c 24 38       	mov    0x38(%rsp),%rcx
  10be3a:	48 89 4c 24 08       	mov    %rcx,0x8(%rsp)
  10be3f:	48 8b 44 24 18       	mov    0x18(%rsp),%rax
  10be44:	48 89 44 24 30       	mov    %rax,0x30(%rsp)
  10be49:	48 8b 4c 24 30       	mov    0x30(%rsp),%rcx
  10be4e:	48 89 0c 24          	mov    %rcx,(%rsp)
  10be52:	48 8b 44 24 10       	mov    0x10(%rsp),%rax
  10be57:	48 8b 0c 24          	mov    (%rsp),%rcx
  10be5b:	48 89 08             	mov    %rcx,(%rax)
  10be5e:	48 8b 54 24 08       	mov    0x8(%rsp),%rdx
  10be63:	48 89 50 08          	mov    %rdx,0x8(%rax)
  10be67:	48 8b 44 24 28       	mov    0x28(%rsp),%rax
  10be6c:	48 83 c4 40          	add    $0x40,%rsp
  10be70:	c3                   	retq   
  10be71:	66 2e 0f 1f 84 00 00 	nopw   %cs:0x0(%rax,%rax,1)
  10be78:	00 00 00 
  10be7b:	0f 1f 44 00 00       	nopl   0x0(%rax,%rax,1)

000000000010be80 <_ZN4core3fmt10ArgumentV13new17h8c23c88fe7a7422cE>:
  10be80:	48 83 ec 40          	sub    $0x40,%rsp
  10be84:	48 89 f8             	mov    %rdi,%rax
  10be87:	48 89 44 24 28       	mov    %rax,0x28(%rsp)
  10be8c:	48 89 54 24 20       	mov    %rdx,0x20(%rsp)
  10be91:	48 89 74 24 18       	mov    %rsi,0x18(%rsp)
  10be96:	48 89 7c 24 10       	mov    %rdi,0x10(%rsp)
  10be9b:	48 8b 44 24 20       	mov    0x20(%rsp),%rax
  10bea0:	48 89 44 24 38       	mov    %rax,0x38(%rsp)
  10bea5:	48 8b 4c 24 38       	mov    0x38(%rsp),%rcx
  10beaa:	48 89 4c 24 08       	mov    %rcx,0x8(%rsp)
  10beaf:	48 8b 44 24 18       	mov    0x18(%rsp),%rax
  10beb4:	48 89 44 24 30       	mov    %rax,0x30(%rsp)
  10beb9:	48 8b 4c 24 30       	mov    0x30(%rsp),%rcx
  10bebe:	48 89 0c 24          	mov    %rcx,(%rsp)
  10bec2:	48 8b 44 24 10       	mov    0x10(%rsp),%rax
  10bec7:	48 8b 0c 24          	mov    (%rsp),%rcx
  10becb:	48 89 08             	mov    %rcx,(%rax)
  10bece:	48 8b 54 24 08       	mov    0x8(%rsp),%rdx
  10bed3:	48 89 50 08          	mov    %rdx,0x8(%rax)
  10bed7:	48 8b 44 24 28       	mov    0x28(%rsp),%rax
  10bedc:	48 83 c4 40          	add    $0x40,%rsp
  10bee0:	c3                   	retq   
  10bee1:	66 2e 0f 1f 84 00 00 	nopw   %cs:0x0(%rax,%rax,1)
  10bee8:	00 00 00 
  10beeb:	0f 1f 44 00 00       	nopl   0x0(%rax,%rax,1)

000000000010bef0 <_ZN4core3fmt10ArgumentV13new17h917fc33d290e20e0E>:
  10bef0:	48 83 ec 40          	sub    $0x40,%rsp
  10bef4:	48 89 f8             	mov    %rdi,%rax
  10bef7:	48 89 44 24 28       	mov    %rax,0x28(%rsp)
  10befc:	48 89 54 24 20       	mov    %rdx,0x20(%rsp)
  10bf01:	48 89 74 24 18       	mov    %rsi,0x18(%rsp)
  10bf06:	48 89 7c 24 10       	mov    %rdi,0x10(%rsp)
  10bf0b:	48 8b 44 24 20       	mov    0x20(%rsp),%rax
  10bf10:	48 89 44 24 38       	mov    %rax,0x38(%rsp)
  10bf15:	48 8b 4c 24 38       	mov    0x38(%rsp),%rcx
  10bf1a:	48 89 4c 24 08       	mov    %rcx,0x8(%rsp)
  10bf1f:	48 8b 44 24 18       	mov    0x18(%rsp),%rax
  10bf24:	48 89 44 24 30       	mov    %rax,0x30(%rsp)
  10bf29:	48 8b 4c 24 30       	mov    0x30(%rsp),%rcx
  10bf2e:	48 89 0c 24          	mov    %rcx,(%rsp)
  10bf32:	48 8b 44 24 10       	mov    0x10(%rsp),%rax
  10bf37:	48 8b 0c 24          	mov    (%rsp),%rcx
  10bf3b:	48 89 08             	mov    %rcx,(%rax)
  10bf3e:	48 8b 54 24 08       	mov    0x8(%rsp),%rdx
  10bf43:	48 89 50 08          	mov    %rdx,0x8(%rax)
  10bf47:	48 8b 44 24 28       	mov    0x28(%rsp),%rax
  10bf4c:	48 83 c4 40          	add    $0x40,%rsp
  10bf50:	c3                   	retq   
  10bf51:	66 2e 0f 1f 84 00 00 	nopw   %cs:0x0(%rax,%rax,1)
  10bf58:	00 00 00 
  10bf5b:	0f 1f 44 00 00       	nopl   0x0(%rax,%rax,1)

000000000010bf60 <_ZN4core3fmt10ArgumentV18as_usize17h12d44cbb975a4941E>:
  10bf60:	48 83 ec 18          	sub    $0x18,%rsp
  10bf64:	48 89 f8             	mov    %rdi,%rax
  10bf67:	48 89 44 24 10       	mov    %rax,0x10(%rsp)
  10bf6c:	48 89 74 24 08       	mov    %rsi,0x8(%rsp)
  10bf71:	48 89 3c 24          	mov    %rdi,(%rsp)
  10bf75:	eb 00                	jmp    10bf77 <_ZN4core3fmt10ArgumentV18as_usize17h12d44cbb975a4941E+0x17>
  10bf77:	48 8d 05 82 fd ff ff 	lea    -0x27e(%rip),%rax        # 10bd00 <_ZN4core3fmt10ArgumentV110show_usize17h0e9daf226c6514e0E>
  10bf7e:	48 8b 4c 24 08       	mov    0x8(%rsp),%rcx
  10bf83:	48 8b 51 08          	mov    0x8(%rcx),%rdx
  10bf87:	48 39 c2             	cmp    %rax,%rdx
  10bf8a:	75 1c                	jne    10bfa8 <_ZN4core3fmt10ArgumentV18as_usize17h12d44cbb975a4941E+0x48>
  10bf8c:	48 8b 44 24 08       	mov    0x8(%rsp),%rax
  10bf91:	48 8b 08             	mov    (%rax),%rcx
  10bf94:	48 8b 09             	mov    (%rcx),%rcx
  10bf97:	48 8b 14 24          	mov    (%rsp),%rdx
  10bf9b:	48 c7 02 01 00 00 00 	movq   $0x1,(%rdx)
  10bfa2:	48 89 4a 08          	mov    %rcx,0x8(%rdx)
  10bfa6:	eb 0b                	jmp    10bfb3 <_ZN4core3fmt10ArgumentV18as_usize17h12d44cbb975a4941E+0x53>
  10bfa8:	48 8b 04 24          	mov    (%rsp),%rax
  10bfac:	48 c7 00 00 00 00 00 	movq   $0x0,(%rax)
  10bfb3:	48 8b 44 24 10       	mov    0x10(%rsp),%rax
  10bfb8:	48 83 c4 18          	add    $0x18,%rsp
  10bfbc:	c3                   	retq   
  10bfbd:	0f 1f 00             	nopl   (%rax)

000000000010bfc0 <_ZN4core3fmt9Arguments6new_v117h2ee48eb28c0cff0aE>:
  10bfc0:	48 83 ec 40          	sub    $0x40,%rsp
  10bfc4:	48 89 f8             	mov    %rdi,%rax
  10bfc7:	48 89 44 24 28       	mov    %rax,0x28(%rsp)
  10bfcc:	4c 89 44 24 20       	mov    %r8,0x20(%rsp)
  10bfd1:	48 89 4c 24 18       	mov    %rcx,0x18(%rsp)
  10bfd6:	48 89 54 24 10       	mov    %rdx,0x10(%rsp)
  10bfdb:	48 89 74 24 08       	mov    %rsi,0x8(%rsp)
  10bfe0:	48 89 3c 24          	mov    %rdi,(%rsp)
  10bfe4:	48 c7 44 24 30 00 00 	movq   $0x0,0x30(%rsp)
  10bfeb:	00 00 
  10bfed:	48 8b 04 24          	mov    (%rsp),%rax
  10bff1:	48 8b 4c 24 08       	mov    0x8(%rsp),%rcx
  10bff6:	48 89 08             	mov    %rcx,(%rax)
  10bff9:	48 8b 54 24 10       	mov    0x10(%rsp),%rdx
  10bffe:	48 89 50 08          	mov    %rdx,0x8(%rax)
  10c002:	48 8b 74 24 30       	mov    0x30(%rsp),%rsi
  10c007:	48 89 70 10          	mov    %rsi,0x10(%rax)
  10c00b:	48 8b 74 24 38       	mov    0x38(%rsp),%rsi
  10c010:	48 89 70 18          	mov    %rsi,0x18(%rax)
  10c014:	48 8b 74 24 18       	mov    0x18(%rsp),%rsi
  10c019:	48 89 70 20          	mov    %rsi,0x20(%rax)
  10c01d:	48 8b 7c 24 20       	mov    0x20(%rsp),%rdi
  10c022:	48 89 78 28          	mov    %rdi,0x28(%rax)
  10c026:	48 8b 44 24 28       	mov    0x28(%rsp),%rax
  10c02b:	48 83 c4 40          	add    $0x40,%rsp
  10c02f:	c3                   	retq   

000000000010c030 <_ZN4core3fmt9Arguments16new_v1_formatted17hc5fd76bd8502e45fE>:
  10c030:	48 83 ec 50          	sub    $0x50,%rsp
  10c034:	48 89 f8             	mov    %rdi,%rax
  10c037:	4c 8b 54 24 58       	mov    0x58(%rsp),%r10
  10c03c:	4c 89 54 24 38       	mov    %r10,0x38(%rsp)
  10c041:	4c 89 4c 24 30       	mov    %r9,0x30(%rsp)
  10c046:	4c 89 44 24 28       	mov    %r8,0x28(%rsp)
  10c04b:	48 89 4c 24 20       	mov    %rcx,0x20(%rsp)
  10c050:	48 89 54 24 18       	mov    %rdx,0x18(%rsp)
  10c055:	48 89 74 24 10       	mov    %rsi,0x10(%rsp)
  10c05a:	48 89 44 24 08       	mov    %rax,0x8(%rsp)
  10c05f:	48 89 3c 24          	mov    %rdi,(%rsp)
  10c063:	48 8b 44 24 30       	mov    0x30(%rsp),%rax
  10c068:	48 89 44 24 40       	mov    %rax,0x40(%rsp)
  10c06d:	48 8b 4c 24 38       	mov    0x38(%rsp),%rcx
  10c072:	48 89 4c 24 48       	mov    %rcx,0x48(%rsp)
  10c077:	48 8b 14 24          	mov    (%rsp),%rdx
  10c07b:	48 8b 74 24 10       	mov    0x10(%rsp),%rsi
  10c080:	48 89 32             	mov    %rsi,(%rdx)
  10c083:	48 8b 7c 24 18       	mov    0x18(%rsp),%rdi
  10c088:	48 89 7a 08          	mov    %rdi,0x8(%rdx)
  10c08c:	4c 8b 44 24 40       	mov    0x40(%rsp),%r8
  10c091:	4c 89 42 10          	mov    %r8,0x10(%rdx)
  10c095:	4c 8b 44 24 48       	mov    0x48(%rsp),%r8
  10c09a:	4c 89 42 18          	mov    %r8,0x18(%rdx)
  10c09e:	4c 8b 44 24 20       	mov    0x20(%rsp),%r8
  10c0a3:	4c 89 42 20          	mov    %r8,0x20(%rdx)
  10c0a7:	4c 8b 4c 24 28       	mov    0x28(%rsp),%r9
  10c0ac:	4c 89 4a 28          	mov    %r9,0x28(%rdx)
  10c0b0:	48 8b 44 24 08       	mov    0x8(%rsp),%rax
  10c0b5:	48 83 c4 50          	add    $0x50,%rsp
  10c0b9:	c3                   	retq   
  10c0ba:	66 0f 1f 44 00 00    	nopw   0x0(%rax,%rax,1)

000000000010c0c0 <_ZN73_$LT$core..fmt..Arguments$LT$$u27$a$GT$$u20$as$u20$core..fmt..Display$GT$3fmt17h4158d1739e290565E>:
  10c0c0:	48 83 ec 78          	sub    $0x78,%rsp
  10c0c4:	48 89 7c 24 28       	mov    %rdi,0x28(%rsp)
  10c0c9:	48 89 74 24 20       	mov    %rsi,0x20(%rsp)
  10c0ce:	48 8d 44 24 40       	lea    0x40(%rsp),%rax
  10c0d3:	b9 30 00 00 00       	mov    $0x30,%ecx
  10c0d8:	89 ca                	mov    %ecx,%edx
  10c0da:	48 8b 74 24 20       	mov    0x20(%rsp),%rsi
  10c0df:	48 8b 7e 30          	mov    0x30(%rsi),%rdi
  10c0e3:	48 8b 76 38          	mov    0x38(%rsi),%rsi
  10c0e7:	4c 8b 44 24 28       	mov    0x28(%rsp),%r8
  10c0ec:	49 89 c1             	mov    %rax,%r9
  10c0ef:	48 89 7c 24 18       	mov    %rdi,0x18(%rsp)
  10c0f4:	4c 89 cf             	mov    %r9,%rdi
  10c0f7:	48 89 74 24 10       	mov    %rsi,0x10(%rsp)
  10c0fc:	4c 89 c6             	mov    %r8,%rsi
  10c0ff:	48 89 44 24 08       	mov    %rax,0x8(%rsp)
  10c104:	e8 47 80 ff ff       	callq  104150 <memcpy>
  10c109:	48 8b 7c 24 18       	mov    0x18(%rsp),%rdi
  10c10e:	48 8b 74 24 10       	mov    0x10(%rsp),%rsi
  10c113:	48 8b 54 24 08       	mov    0x8(%rsp),%rdx
  10c118:	e8 23 00 00 00       	callq  10c140 <_ZN4core3fmt5write17hdcfad2ffcde93598E>
  10c11d:	88 44 24 37          	mov    %al,0x37(%rsp)
  10c121:	8a 44 24 37          	mov    0x37(%rsp),%al
  10c125:	88 44 24 38          	mov    %al,0x38(%rsp)
  10c129:	8a 44 24 38          	mov    0x38(%rsp),%al
  10c12d:	48 83 c4 78          	add    $0x78,%rsp
  10c131:	c3                   	retq   
  10c132:	66 2e 0f 1f 84 00 00 	nopw   %cs:0x0(%rax,%rax,1)
  10c139:	00 00 00 
  10c13c:	0f 1f 40 00          	nopl   0x0(%rax)

000000000010c140 <_ZN4core3fmt5write17hdcfad2ffcde93598E>:
  10c140:	48 81 ec a8 02 00 00 	sub    $0x2a8,%rsp
  10c147:	48 89 b4 24 80 00 00 	mov    %rsi,0x80(%rsp)
  10c14e:	00 
  10c14f:	48 89 7c 24 78       	mov    %rdi,0x78(%rsp)
  10c154:	48 89 54 24 70       	mov    %rdx,0x70(%rsp)
  10c159:	48 8d bc 24 88 01 00 	lea    0x188(%rsp),%rdi
  10c160:	00 
  10c161:	b8 30 00 00 00       	mov    $0x30,%eax
  10c166:	89 c2                	mov    %eax,%edx
  10c168:	48 8d 8c 24 70 02 00 	lea    0x270(%rsp),%rcx
  10c16f:	00 
  10c170:	48 8b 74 24 70       	mov    0x70(%rsp),%rsi
  10c175:	48 89 7c 24 68       	mov    %rdi,0x68(%rsp)
  10c17a:	48 89 cf             	mov    %rcx,%rdi
  10c17d:	e8 ce 7f ff ff       	callq  104150 <memcpy>
  10c182:	48 c7 84 24 b0 01 00 	movq   $0x0,0x1b0(%rsp)
  10c189:	00 00 00 00 00 
  10c18e:	48 c7 84 24 a0 01 00 	movq   $0x0,0x1a0(%rsp)
  10c195:	00 00 00 00 00 
  10c19a:	c6 84 24 9f 01 00 00 	movb   $0x3,0x19f(%rsp)
  10c1a1:	03 
  10c1a2:	48 8b 8c 24 90 02 00 	mov    0x290(%rsp),%rcx
  10c1a9:	00 
  10c1aa:	48 8b 94 24 98 02 00 	mov    0x298(%rsp),%rdx
  10c1b1:	00 
  10c1b2:	48 8b b4 24 90 02 00 	mov    0x290(%rsp),%rsi
  10c1b9:	00 
  10c1ba:	48 8b bc 24 98 02 00 	mov    0x298(%rsp),%rdi
  10c1c1:	00 
  10c1c2:	4c 8b 44 24 68       	mov    0x68(%rsp),%r8
  10c1c7:	48 89 7c 24 60       	mov    %rdi,0x60(%rsp)
  10c1cc:	4c 89 c7             	mov    %r8,%rdi
  10c1cf:	4c 8b 4c 24 60       	mov    0x60(%rsp),%r9
  10c1d4:	48 89 54 24 58       	mov    %rdx,0x58(%rsp)
  10c1d9:	4c 89 ca             	mov    %r9,%rdx
  10c1dc:	48 89 4c 24 50       	mov    %rcx,0x50(%rsp)
  10c1e1:	e8 1a b3 ff ff       	callq  107500 <_ZN53_$LT$$u5b$T$u5d$$u20$as$u20$core..slice..SliceExt$GT$4iter17hf2e1c1245f33a86bE>
  10c1e6:	48 8d bc 24 00 02 00 	lea    0x200(%rsp),%rdi
  10c1ed:	00 
  10c1ee:	c7 84 24 10 02 00 00 	movl   $0x0,0x210(%rsp)
  10c1f5:	00 00 00 00 
  10c1f9:	c7 84 24 14 02 00 00 	movl   $0x20,0x214(%rsp)
  10c200:	20 00 00 00 
  10c204:	8a 84 24 9f 01 00 00 	mov    0x19f(%rsp),%al
  10c20b:	88 84 24 18 02 00 00 	mov    %al,0x218(%rsp)
  10c212:	48 8b 8c 24 b0 01 00 	mov    0x1b0(%rsp),%rcx
  10c219:	00 
  10c21a:	48 89 8c 24 20 02 00 	mov    %rcx,0x220(%rsp)
  10c221:	00 
  10c222:	48 8b 8c 24 b8 01 00 	mov    0x1b8(%rsp),%rcx
  10c229:	00 
  10c22a:	48 89 8c 24 28 02 00 	mov    %rcx,0x228(%rsp)
  10c231:	00 
  10c232:	48 8b 8c 24 a0 01 00 	mov    0x1a0(%rsp),%rcx
  10c239:	00 
  10c23a:	48 89 8c 24 30 02 00 	mov    %rcx,0x230(%rsp)
  10c241:	00 
  10c242:	48 8b 8c 24 a8 01 00 	mov    0x1a8(%rsp),%rcx
  10c249:	00 
  10c24a:	48 89 8c 24 38 02 00 	mov    %rcx,0x238(%rsp)
  10c251:	00 
  10c252:	48 8b 4c 24 78       	mov    0x78(%rsp),%rcx
  10c257:	48 89 8c 24 40 02 00 	mov    %rcx,0x240(%rsp)
  10c25e:	00 
  10c25f:	48 8b 94 24 80 00 00 	mov    0x80(%rsp),%rdx
  10c266:	00 
  10c267:	48 89 94 24 48 02 00 	mov    %rdx,0x248(%rsp)
  10c26e:	00 
  10c26f:	48 8b b4 24 88 01 00 	mov    0x188(%rsp),%rsi
  10c276:	00 
  10c277:	48 89 b4 24 50 02 00 	mov    %rsi,0x250(%rsp)
  10c27e:	00 
  10c27f:	48 8b b4 24 90 01 00 	mov    0x190(%rsp),%rsi
  10c286:	00 
  10c287:	48 89 b4 24 58 02 00 	mov    %rsi,0x258(%rsp)
  10c28e:	00 
  10c28f:	48 8b 74 24 50       	mov    0x50(%rsp),%rsi
  10c294:	48 89 b4 24 60 02 00 	mov    %rsi,0x260(%rsp)
  10c29b:	00 
  10c29c:	4c 8b 44 24 58       	mov    0x58(%rsp),%r8
  10c2a1:	4c 89 84 24 68 02 00 	mov    %r8,0x268(%rsp)
  10c2a8:	00 
  10c2a9:	48 8b b4 24 70 02 00 	mov    0x270(%rsp),%rsi
  10c2b0:	00 
  10c2b1:	48 8b 94 24 78 02 00 	mov    0x278(%rsp),%rdx
  10c2b8:	00 
  10c2b9:	e8 92 ae ff ff       	callq  107150 <_ZN53_$LT$$u5b$T$u5d$$u20$as$u20$core..slice..SliceExt$GT$4iter17h1744d97bd59928b9E>
  10c2be:	48 8b 84 24 80 02 00 	mov    0x280(%rsp),%rax
  10c2c5:	00 
  10c2c6:	48 85 c0             	test   %rax,%rax
  10c2c9:	0f 95 c1             	setne  %cl
  10c2cc:	88 4c 24 4f          	mov    %cl,0x4f(%rsp)
  10c2d0:	75 31                	jne    10c303 <_ZN4core3fmt5write17hdcfad2ffcde93598E+0x1c3>
  10c2d2:	eb 00                	jmp    10c2d4 <_ZN4core3fmt5write17hdcfad2ffcde93598E+0x194>
  10c2d4:	8a 44 24 4f          	mov    0x4f(%rsp),%al
  10c2d8:	f6 d0                	not    %al
  10c2da:	a8 01                	test   $0x1,%al
  10c2dc:	0f 84 6b 04 00 00    	je     10c74d <_ZN4core3fmt5write17hdcfad2ffcde93598E+0x60d>
  10c2e2:	eb 00                	jmp    10c2e4 <_ZN4core3fmt5write17hdcfad2ffcde93598E+0x1a4>
  10c2e4:	48 8d bc 24 40 01 00 	lea    0x140(%rsp),%rdi
  10c2eb:	00 
  10c2ec:	48 8b b4 24 90 02 00 	mov    0x290(%rsp),%rsi
  10c2f3:	00 
  10c2f4:	48 8b 94 24 98 02 00 	mov    0x298(%rsp),%rdx
  10c2fb:	00 
  10c2fc:	e8 ff b1 ff ff       	callq  107500 <_ZN53_$LT$$u5b$T$u5d$$u20$as$u20$core..slice..SliceExt$GT$4iter17hf2e1c1245f33a86bE>
  10c301:	eb 3c                	jmp    10c33f <_ZN4core3fmt5write17hdcfad2ffcde93598E+0x1ff>
  10c303:	48 8d bc 24 d8 00 00 	lea    0xd8(%rsp),%rdi
  10c30a:	00 
  10c30b:	48 8b b4 24 80 02 00 	mov    0x280(%rsp),%rsi
  10c312:	00 
  10c313:	48 8b 94 24 88 02 00 	mov    0x288(%rsp),%rdx
  10c31a:	00 
  10c31b:	e8 a0 b0 ff ff       	callq  1073c0 <_ZN53_$LT$$u5b$T$u5d$$u20$as$u20$core..slice..SliceExt$GT$4iter17h8c73e78d716c4ce3E>
  10c320:	e9 df 01 00 00       	jmpq   10c504 <_ZN4core3fmt5write17hdcfad2ffcde93598E+0x3c4>
  10c325:	48 8d bc 24 00 02 00 	lea    0x200(%rsp),%rdi
  10c32c:	00 
  10c32d:	e8 8e ba ff ff       	callq  107dc0 <_ZN91_$LT$core..slice..Iter$LT$$u27$a$C$$u20$T$GT$$u20$as$u20$core..iter..iterator..Iterator$GT$4next17h3e0d8cf56d30f487E>
  10c332:	48 89 84 24 a8 00 00 	mov    %rax,0xa8(%rsp)
  10c339:	00 
  10c33a:	e9 71 03 00 00       	jmpq   10c6b0 <_ZN4core3fmt5write17hdcfad2ffcde93598E+0x570>
  10c33f:	48 8d bc 24 00 02 00 	lea    0x200(%rsp),%rdi
  10c346:	00 
  10c347:	e8 54 97 ff ff       	callq  105aa0 <_ZN4core4iter8iterator8Iterator6by_ref17h37c68ef4e1d76fc5E>
  10c34c:	48 89 44 24 40       	mov    %rax,0x40(%rsp)
  10c351:	48 8d bc 24 50 01 00 	lea    0x150(%rsp),%rdi
  10c358:	00 
  10c359:	48 8d b4 24 40 01 00 	lea    0x140(%rsp),%rsi
  10c360:	00 
  10c361:	48 8b 54 24 40       	mov    0x40(%rsp),%rdx
  10c366:	e8 c5 95 ff ff       	callq  105930 <_ZN4core4iter8iterator8Iterator3zip17h106d4af228f04a3cE>
  10c36b:	48 8d bc 24 68 01 00 	lea    0x168(%rsp),%rdi
  10c372:	00 
  10c373:	48 8d b4 24 50 01 00 	lea    0x150(%rsp),%rsi
  10c37a:	00 
  10c37b:	e8 20 9a ff ff       	callq  105da0 <_ZN54_$LT$I$u20$as$u20$core..iter..traits..IntoIterator$GT$9into_iter17h149e0cf04d4a682eE>
  10c380:	48 8b 84 24 68 01 00 	mov    0x168(%rsp),%rax
  10c387:	00 
  10c388:	48 89 84 24 e0 01 00 	mov    %rax,0x1e0(%rsp)
  10c38f:	00 
  10c390:	48 8b 84 24 70 01 00 	mov    0x170(%rsp),%rax
  10c397:	00 
  10c398:	48 89 84 24 e8 01 00 	mov    %rax,0x1e8(%rsp)
  10c39f:	00 
  10c3a0:	48 8b 84 24 78 01 00 	mov    0x178(%rsp),%rax
  10c3a7:	00 
  10c3a8:	48 89 84 24 f0 01 00 	mov    %rax,0x1f0(%rsp)
  10c3af:	00 
  10c3b0:	48 8d bc 24 28 01 00 	lea    0x128(%rsp),%rdi
  10c3b7:	00 
  10c3b8:	48 8d b4 24 e0 01 00 	lea    0x1e0(%rsp),%rsi
  10c3bf:	00 
  10c3c0:	e8 1b 9e ff ff       	callq  1061e0 <_ZN84_$LT$core..iter..Zip$LT$A$C$$u20$B$GT$$u20$as$u20$core..iter..iterator..Iterator$GT$4next17h7ee1d0e7e7755a60E>
  10c3c5:	eb 12                	jmp    10c3d9 <_ZN4core3fmt5write17hdcfad2ffcde93598E+0x299>
  10c3c7:	48 8d bc 24 e0 01 00 	lea    0x1e0(%rsp),%rdi
  10c3ce:	00 
  10c3cf:	e8 7c 87 ff ff       	callq  104b50 <_ZN4drop17hc05115ff0d33e6eeE>
  10c3d4:	e9 26 01 00 00       	jmpq   10c4ff <_ZN4core3fmt5write17hdcfad2ffcde93598E+0x3bf>
  10c3d9:	48 8b 84 24 28 01 00 	mov    0x128(%rsp),%rax
  10c3e0:	00 
  10c3e1:	48 85 c0             	test   %rax,%rax
  10c3e4:	0f 95 c1             	setne  %cl
  10c3e7:	88 4c 24 3f          	mov    %cl,0x3f(%rsp)
  10c3eb:	75 0f                	jne    10c3fc <_ZN4core3fmt5write17hdcfad2ffcde93598E+0x2bc>
  10c3ed:	eb 00                	jmp    10c3ef <_ZN4core3fmt5write17hdcfad2ffcde93598E+0x2af>
  10c3ef:	8a 44 24 3f          	mov    0x3f(%rsp),%al
  10c3f3:	a8 01                	test   $0x1,%al
  10c3f5:	74 d0                	je     10c3c7 <_ZN4core3fmt5write17hdcfad2ffcde93598E+0x287>
  10c3f7:	e9 51 03 00 00       	jmpq   10c74d <_ZN4core3fmt5write17hdcfad2ffcde93598E+0x60d>
  10c3fc:	48 8b 84 24 28 01 00 	mov    0x128(%rsp),%rax
  10c403:	00 
  10c404:	48 8b 8c 24 30 01 00 	mov    0x130(%rsp),%rcx
  10c40b:	00 
  10c40c:	48 8b bc 24 40 02 00 	mov    0x240(%rsp),%rdi
  10c413:	00 
  10c414:	48 8b 94 24 48 02 00 	mov    0x248(%rsp),%rdx
  10c41b:	00 
  10c41c:	48 8b 31             	mov    (%rcx),%rsi
  10c41f:	48 8b 49 08          	mov    0x8(%rcx),%rcx
  10c423:	48 89 54 24 30       	mov    %rdx,0x30(%rsp)
  10c428:	48 89 ca             	mov    %rcx,%rdx
  10c42b:	48 8b 4c 24 30       	mov    0x30(%rsp),%rcx
  10c430:	48 89 44 24 28       	mov    %rax,0x28(%rsp)
  10c435:	ff 51 18             	callq  *0x18(%rcx)
  10c438:	88 84 24 8d 00 00 00 	mov    %al,0x8d(%rsp)
  10c43f:	8a 84 24 8d 00 00 00 	mov    0x8d(%rsp),%al
  10c446:	88 84 24 20 01 00 00 	mov    %al,0x120(%rsp)
  10c44d:	8a 84 24 20 01 00 00 	mov    0x120(%rsp),%al
  10c454:	84 c0                	test   %al,%al
  10c456:	88 44 24 27          	mov    %al,0x27(%rsp)
  10c45a:	74 13                	je     10c46f <_ZN4core3fmt5write17hdcfad2ffcde93598E+0x32f>
  10c45c:	eb 00                	jmp    10c45e <_ZN4core3fmt5write17hdcfad2ffcde93598E+0x31e>
  10c45e:	8a 44 24 27          	mov    0x27(%rsp),%al
  10c462:	2c 01                	sub    $0x1,%al
  10c464:	88 44 24 26          	mov    %al,0x26(%rsp)
  10c468:	74 32                	je     10c49c <_ZN4core3fmt5write17hdcfad2ffcde93598E+0x35c>
  10c46a:	e9 de 02 00 00       	jmpq   10c74d <_ZN4core3fmt5write17hdcfad2ffcde93598E+0x60d>
  10c46f:	48 8d b4 24 10 02 00 	lea    0x210(%rsp),%rsi
  10c476:	00 
  10c477:	48 8b 44 24 28       	mov    0x28(%rsp),%rax
  10c47c:	48 8b 48 08          	mov    0x8(%rax),%rcx
  10c480:	48 8b 38             	mov    (%rax),%rdi
  10c483:	ff d1                	callq  *%rcx
  10c485:	88 84 24 8c 00 00 00 	mov    %al,0x8c(%rsp)
  10c48c:	8a 84 24 8c 00 00 00 	mov    0x8c(%rsp),%al
  10c493:	88 84 24 18 01 00 00 	mov    %al,0x118(%rsp)
  10c49a:	eb 2d                	jmp    10c4c9 <_ZN4core3fmt5write17hdcfad2ffcde93598E+0x389>
  10c49c:	e8 3f 8d ff ff       	callq  1051e0 <_ZN50_$LT$T$u20$as$u20$core..convert..From$LT$T$GT$$GT$4from17hde9d3f996ad54071E>
  10c4a1:	c6 84 24 90 00 00 00 	movb   $0x1,0x90(%rsp)
  10c4a8:	01 
  10c4a9:	eb 0f                	jmp    10c4ba <_ZN4core3fmt5write17hdcfad2ffcde93598E+0x37a>
  10c4ab:	8a 84 24 90 00 00 00 	mov    0x90(%rsp),%al
  10c4b2:	48 81 c4 a8 02 00 00 	add    $0x2a8,%rsp
  10c4b9:	c3                   	retq   
  10c4ba:	48 8d bc 24 e0 01 00 	lea    0x1e0(%rsp),%rdi
  10c4c1:	00 
  10c4c2:	e8 89 86 ff ff       	callq  104b50 <_ZN4drop17hc05115ff0d33e6eeE>
  10c4c7:	eb e2                	jmp    10c4ab <_ZN4core3fmt5write17hdcfad2ffcde93598E+0x36b>
  10c4c9:	8a 84 24 18 01 00 00 	mov    0x118(%rsp),%al
  10c4d0:	84 c0                	test   %al,%al
  10c4d2:	88 44 24 25          	mov    %al,0x25(%rsp)
  10c4d6:	74 13                	je     10c4eb <_ZN4core3fmt5write17hdcfad2ffcde93598E+0x3ab>
  10c4d8:	eb 00                	jmp    10c4da <_ZN4core3fmt5write17hdcfad2ffcde93598E+0x39a>
  10c4da:	8a 44 24 25          	mov    0x25(%rsp),%al
  10c4de:	2c 01                	sub    $0x1,%al
  10c4e0:	88 44 24 24          	mov    %al,0x24(%rsp)
  10c4e4:	74 0a                	je     10c4f0 <_ZN4core3fmt5write17hdcfad2ffcde93598E+0x3b0>
  10c4e6:	e9 62 02 00 00       	jmpq   10c74d <_ZN4core3fmt5write17hdcfad2ffcde93598E+0x60d>
  10c4eb:	e9 c0 fe ff ff       	jmpq   10c3b0 <_ZN4core3fmt5write17hdcfad2ffcde93598E+0x270>
  10c4f0:	e8 eb 8c ff ff       	callq  1051e0 <_ZN50_$LT$T$u20$as$u20$core..convert..From$LT$T$GT$$GT$4from17hde9d3f996ad54071E>
  10c4f5:	c6 84 24 90 00 00 00 	movb   $0x1,0x90(%rsp)
  10c4fc:	01 
  10c4fd:	eb bb                	jmp    10c4ba <_ZN4core3fmt5write17hdcfad2ffcde93598E+0x37a>
  10c4ff:	e9 21 fe ff ff       	jmpq   10c325 <_ZN4core3fmt5write17hdcfad2ffcde93598E+0x1e5>
  10c504:	48 8d bc 24 00 02 00 	lea    0x200(%rsp),%rdi
  10c50b:	00 
  10c50c:	e8 8f 95 ff ff       	callq  105aa0 <_ZN4core4iter8iterator8Iterator6by_ref17h37c68ef4e1d76fc5E>
  10c511:	48 89 44 24 18       	mov    %rax,0x18(%rsp)
  10c516:	48 8d bc 24 e8 00 00 	lea    0xe8(%rsp),%rdi
  10c51d:	00 
  10c51e:	48 8d b4 24 d8 00 00 	lea    0xd8(%rsp),%rsi
  10c525:	00 
  10c526:	48 8b 54 24 18       	mov    0x18(%rsp),%rdx
  10c52b:	e8 70 94 ff ff       	callq  1059a0 <_ZN4core4iter8iterator8Iterator3zip17h4840f3b3d71020abE>
  10c530:	48 8d bc 24 00 01 00 	lea    0x100(%rsp),%rdi
  10c537:	00 
  10c538:	48 8d b4 24 e8 00 00 	lea    0xe8(%rsp),%rsi
  10c53f:	00 
  10c540:	e8 3b 99 ff ff       	callq  105e80 <_ZN54_$LT$I$u20$as$u20$core..iter..traits..IntoIterator$GT$9into_iter17h8ddcf0364584f8a4E>
  10c545:	48 8b 84 24 00 01 00 	mov    0x100(%rsp),%rax
  10c54c:	00 
  10c54d:	48 89 84 24 c0 01 00 	mov    %rax,0x1c0(%rsp)
  10c554:	00 
  10c555:	48 8b 84 24 08 01 00 	mov    0x108(%rsp),%rax
  10c55c:	00 
  10c55d:	48 89 84 24 c8 01 00 	mov    %rax,0x1c8(%rsp)
  10c564:	00 
  10c565:	48 8b 84 24 10 01 00 	mov    0x110(%rsp),%rax
  10c56c:	00 
  10c56d:	48 89 84 24 d0 01 00 	mov    %rax,0x1d0(%rsp)
  10c574:	00 
  10c575:	48 8d bc 24 c8 00 00 	lea    0xc8(%rsp),%rdi
  10c57c:	00 
  10c57d:	48 8d b4 24 c0 01 00 	lea    0x1c0(%rsp),%rsi
  10c584:	00 
  10c585:	e8 86 9c ff ff       	callq  106210 <_ZN84_$LT$core..iter..Zip$LT$A$C$$u20$B$GT$$u20$as$u20$core..iter..iterator..Iterator$GT$4next17ha50eb2b00398c3dcE>
  10c58a:	eb 12                	jmp    10c59e <_ZN4core3fmt5write17hdcfad2ffcde93598E+0x45e>
  10c58c:	48 8d bc 24 c0 01 00 	lea    0x1c0(%rsp),%rdi
  10c593:	00 
  10c594:	e8 97 85 ff ff       	callq  104b30 <_ZN4drop17h4330df09c4c43b19E>
  10c599:	e9 0d 01 00 00       	jmpq   10c6ab <_ZN4core3fmt5write17hdcfad2ffcde93598E+0x56b>
  10c59e:	48 8b 84 24 c8 00 00 	mov    0xc8(%rsp),%rax
  10c5a5:	00 
  10c5a6:	48 85 c0             	test   %rax,%rax
  10c5a9:	0f 95 c1             	setne  %cl
  10c5ac:	88 4c 24 17          	mov    %cl,0x17(%rsp)
  10c5b0:	75 0f                	jne    10c5c1 <_ZN4core3fmt5write17hdcfad2ffcde93598E+0x481>
  10c5b2:	eb 00                	jmp    10c5b4 <_ZN4core3fmt5write17hdcfad2ffcde93598E+0x474>
  10c5b4:	8a 44 24 17          	mov    0x17(%rsp),%al
  10c5b8:	a8 01                	test   $0x1,%al
  10c5ba:	74 d0                	je     10c58c <_ZN4core3fmt5write17hdcfad2ffcde93598E+0x44c>
  10c5bc:	e9 8c 01 00 00       	jmpq   10c74d <_ZN4core3fmt5write17hdcfad2ffcde93598E+0x60d>
  10c5c1:	48 8b b4 24 c8 00 00 	mov    0xc8(%rsp),%rsi
  10c5c8:	00 
  10c5c9:	48 8b 84 24 d0 00 00 	mov    0xd0(%rsp),%rax
  10c5d0:	00 
  10c5d1:	48 8b bc 24 40 02 00 	mov    0x240(%rsp),%rdi
  10c5d8:	00 
  10c5d9:	48 8b 8c 24 48 02 00 	mov    0x248(%rsp),%rcx
  10c5e0:	00 
  10c5e1:	48 8b 10             	mov    (%rax),%rdx
  10c5e4:	48 8b 40 08          	mov    0x8(%rax),%rax
  10c5e8:	48 89 74 24 08       	mov    %rsi,0x8(%rsp)
  10c5ed:	48 89 d6             	mov    %rdx,%rsi
  10c5f0:	48 89 c2             	mov    %rax,%rdx
  10c5f3:	ff 51 18             	callq  *0x18(%rcx)
  10c5f6:	88 84 24 8f 00 00 00 	mov    %al,0x8f(%rsp)
  10c5fd:	8a 84 24 8f 00 00 00 	mov    0x8f(%rsp),%al
  10c604:	88 84 24 c0 00 00 00 	mov    %al,0xc0(%rsp)
  10c60b:	8a 84 24 c0 00 00 00 	mov    0xc0(%rsp),%al
  10c612:	84 c0                	test   %al,%al
  10c614:	88 44 24 07          	mov    %al,0x7(%rsp)
  10c618:	74 13                	je     10c62d <_ZN4core3fmt5write17hdcfad2ffcde93598E+0x4ed>
  10c61a:	eb 00                	jmp    10c61c <_ZN4core3fmt5write17hdcfad2ffcde93598E+0x4dc>
  10c61c:	8a 44 24 07          	mov    0x7(%rsp),%al
  10c620:	2c 01                	sub    $0x1,%al
  10c622:	88 44 24 06          	mov    %al,0x6(%rsp)
  10c626:	74 2e                	je     10c656 <_ZN4core3fmt5write17hdcfad2ffcde93598E+0x516>
  10c628:	e9 20 01 00 00       	jmpq   10c74d <_ZN4core3fmt5write17hdcfad2ffcde93598E+0x60d>
  10c62d:	48 8d bc 24 10 02 00 	lea    0x210(%rsp),%rdi
  10c634:	00 
  10c635:	48 8b 74 24 08       	mov    0x8(%rsp),%rsi
  10c63a:	e8 11 01 00 00       	callq  10c750 <_ZN4core3fmt9Formatter3run17h53eb6fa1333418d8E>
  10c63f:	88 84 24 8e 00 00 00 	mov    %al,0x8e(%rsp)
  10c646:	8a 84 24 8e 00 00 00 	mov    0x8e(%rsp),%al
  10c64d:	88 84 24 b8 00 00 00 	mov    %al,0xb8(%rsp)
  10c654:	eb 1f                	jmp    10c675 <_ZN4core3fmt5write17hdcfad2ffcde93598E+0x535>
  10c656:	e8 85 8b ff ff       	callq  1051e0 <_ZN50_$LT$T$u20$as$u20$core..convert..From$LT$T$GT$$GT$4from17hde9d3f996ad54071E>
  10c65b:	c6 84 24 90 00 00 00 	movb   $0x1,0x90(%rsp)
  10c662:	01 
  10c663:	48 8d bc 24 c0 01 00 	lea    0x1c0(%rsp),%rdi
  10c66a:	00 
  10c66b:	e8 c0 84 ff ff       	callq  104b30 <_ZN4drop17h4330df09c4c43b19E>
  10c670:	e9 36 fe ff ff       	jmpq   10c4ab <_ZN4core3fmt5write17hdcfad2ffcde93598E+0x36b>
  10c675:	8a 84 24 b8 00 00 00 	mov    0xb8(%rsp),%al
  10c67c:	84 c0                	test   %al,%al
  10c67e:	88 44 24 05          	mov    %al,0x5(%rsp)
  10c682:	74 13                	je     10c697 <_ZN4core3fmt5write17hdcfad2ffcde93598E+0x557>
  10c684:	eb 00                	jmp    10c686 <_ZN4core3fmt5write17hdcfad2ffcde93598E+0x546>
  10c686:	8a 44 24 05          	mov    0x5(%rsp),%al
  10c68a:	2c 01                	sub    $0x1,%al
  10c68c:	88 44 24 04          	mov    %al,0x4(%rsp)
  10c690:	74 0a                	je     10c69c <_ZN4core3fmt5write17hdcfad2ffcde93598E+0x55c>
  10c692:	e9 b6 00 00 00       	jmpq   10c74d <_ZN4core3fmt5write17hdcfad2ffcde93598E+0x60d>
  10c697:	e9 d9 fe ff ff       	jmpq   10c575 <_ZN4core3fmt5write17hdcfad2ffcde93598E+0x435>
  10c69c:	e8 3f 8b ff ff       	callq  1051e0 <_ZN50_$LT$T$u20$as$u20$core..convert..From$LT$T$GT$$GT$4from17hde9d3f996ad54071E>
  10c6a1:	c6 84 24 90 00 00 00 	movb   $0x1,0x90(%rsp)
  10c6a8:	01 
  10c6a9:	eb b8                	jmp    10c663 <_ZN4core3fmt5write17hdcfad2ffcde93598E+0x523>
  10c6ab:	e9 75 fc ff ff       	jmpq   10c325 <_ZN4core3fmt5write17hdcfad2ffcde93598E+0x1e5>
  10c6b0:	48 8b 84 24 a8 00 00 	mov    0xa8(%rsp),%rax
  10c6b7:	00 
  10c6b8:	48 85 c0             	test   %rax,%rax
  10c6bb:	0f 95 c1             	setne  %cl
  10c6be:	88 4c 24 03          	mov    %cl,0x3(%rsp)
  10c6c2:	75 10                	jne    10c6d4 <_ZN4core3fmt5write17hdcfad2ffcde93598E+0x594>
  10c6c4:	eb 00                	jmp    10c6c6 <_ZN4core3fmt5write17hdcfad2ffcde93598E+0x586>
  10c6c6:	8a 44 24 03          	mov    0x3(%rsp),%al
  10c6ca:	f6 d0                	not    %al
  10c6cc:	a8 01                	test   $0x1,%al
  10c6ce:	74 7d                	je     10c74d <_ZN4core3fmt5write17hdcfad2ffcde93598E+0x60d>
  10c6d0:	eb 00                	jmp    10c6d2 <_ZN4core3fmt5write17hdcfad2ffcde93598E+0x592>
  10c6d2:	eb 39                	jmp    10c70d <_ZN4core3fmt5write17hdcfad2ffcde93598E+0x5cd>
  10c6d4:	48 8b 84 24 a8 00 00 	mov    0xa8(%rsp),%rax
  10c6db:	00 
  10c6dc:	48 8b bc 24 40 02 00 	mov    0x240(%rsp),%rdi
  10c6e3:	00 
  10c6e4:	48 8b 8c 24 48 02 00 	mov    0x248(%rsp),%rcx
  10c6eb:	00 
  10c6ec:	48 8b 30             	mov    (%rax),%rsi
  10c6ef:	48 8b 50 08          	mov    0x8(%rax),%rdx
  10c6f3:	ff 51 18             	callq  *0x18(%rcx)
  10c6f6:	88 84 24 8b 00 00 00 	mov    %al,0x8b(%rsp)
  10c6fd:	8a 84 24 8b 00 00 00 	mov    0x8b(%rsp),%al
  10c704:	88 84 24 a0 00 00 00 	mov    %al,0xa0(%rsp)
  10c70b:	eb 0d                	jmp    10c71a <_ZN4core3fmt5write17hdcfad2ffcde93598E+0x5da>
  10c70d:	c6 84 24 90 00 00 00 	movb   $0x0,0x90(%rsp)
  10c714:	00 
  10c715:	e9 91 fd ff ff       	jmpq   10c4ab <_ZN4core3fmt5write17hdcfad2ffcde93598E+0x36b>
  10c71a:	8a 84 24 a0 00 00 00 	mov    0xa0(%rsp),%al
  10c721:	84 c0                	test   %al,%al
  10c723:	88 44 24 02          	mov    %al,0x2(%rsp)
  10c727:	74 10                	je     10c739 <_ZN4core3fmt5write17hdcfad2ffcde93598E+0x5f9>
  10c729:	eb 00                	jmp    10c72b <_ZN4core3fmt5write17hdcfad2ffcde93598E+0x5eb>
  10c72b:	8a 44 24 02          	mov    0x2(%rsp),%al
  10c72f:	2c 01                	sub    $0x1,%al
  10c731:	88 44 24 01          	mov    %al,0x1(%rsp)
  10c735:	74 04                	je     10c73b <_ZN4core3fmt5write17hdcfad2ffcde93598E+0x5fb>
  10c737:	eb 14                	jmp    10c74d <_ZN4core3fmt5write17hdcfad2ffcde93598E+0x60d>
  10c739:	eb d2                	jmp    10c70d <_ZN4core3fmt5write17hdcfad2ffcde93598E+0x5cd>
  10c73b:	e8 a0 8a ff ff       	callq  1051e0 <_ZN50_$LT$T$u20$as$u20$core..convert..From$LT$T$GT$$GT$4from17hde9d3f996ad54071E>
  10c740:	c6 84 24 90 00 00 00 	movb   $0x1,0x90(%rsp)
  10c747:	01 
  10c748:	e9 5e fd ff ff       	jmpq   10c4ab <_ZN4core3fmt5write17hdcfad2ffcde93598E+0x36b>
  10c74d:	0f 1f 00             	nopl   (%rax)

000000000010c750 <_ZN4core3fmt9Formatter3run17h53eb6fa1333418d8E>:
  10c750:	48 81 ec 98 00 00 00 	sub    $0x98,%rsp
  10c757:	48 89 7c 24 38       	mov    %rdi,0x38(%rsp)
  10c75c:	48 89 74 24 30       	mov    %rsi,0x30(%rsp)
  10c761:	48 8d 7c 24 68       	lea    0x68(%rsp),%rdi
  10c766:	48 8b 44 24 30       	mov    0x30(%rsp),%rax
  10c76b:	8b 48 10             	mov    0x10(%rax),%ecx
  10c76e:	48 8b 54 24 38       	mov    0x38(%rsp),%rdx
  10c773:	89 4a 04             	mov    %ecx,0x4(%rdx)
  10c776:	40 8a 70 14          	mov    0x14(%rax),%sil
  10c77a:	40 88 74 24 7f       	mov    %sil,0x7f(%rsp)
  10c77f:	40 8a 74 24 7f       	mov    0x7f(%rsp),%sil
  10c784:	40 88 72 08          	mov    %sil,0x8(%rdx)
  10c788:	8b 48 18             	mov    0x18(%rax),%ecx
  10c78b:	89 0a                	mov    %ecx,(%rdx)
  10c78d:	48 83 c0 10          	add    $0x10,%rax
  10c791:	48 83 c0 20          	add    $0x20,%rax
  10c795:	48 89 d6             	mov    %rdx,%rsi
  10c798:	48 89 c2             	mov    %rax,%rdx
  10c79b:	e8 60 01 00 00       	callq  10c900 <_ZN4core3fmt9Formatter8getcount17h0369d2ea977ba558E>
  10c7a0:	48 8d 7c 24 58       	lea    0x58(%rsp),%rdi
  10c7a5:	48 8b 44 24 68       	mov    0x68(%rsp),%rax
  10c7aa:	48 8b 4c 24 38       	mov    0x38(%rsp),%rcx
  10c7af:	48 89 41 10          	mov    %rax,0x10(%rcx)
  10c7b3:	48 8b 44 24 70       	mov    0x70(%rsp),%rax
  10c7b8:	48 89 41 18          	mov    %rax,0x18(%rcx)
  10c7bc:	48 8b 44 24 30       	mov    0x30(%rsp),%rax
  10c7c1:	48 83 c0 10          	add    $0x10,%rax
  10c7c5:	48 83 c0 10          	add    $0x10,%rax
  10c7c9:	48 89 ce             	mov    %rcx,%rsi
  10c7cc:	48 89 c2             	mov    %rax,%rdx
  10c7cf:	e8 2c 01 00 00       	callq  10c900 <_ZN4core3fmt9Formatter8getcount17h0369d2ea977ba558E>
  10c7d4:	48 8b 44 24 58       	mov    0x58(%rsp),%rax
  10c7d9:	48 8b 4c 24 60       	mov    0x60(%rsp),%rcx
  10c7de:	48 8b 54 24 38       	mov    0x38(%rsp),%rdx
  10c7e3:	48 89 4a 28          	mov    %rcx,0x28(%rdx)
  10c7e7:	48 89 42 20          	mov    %rax,0x20(%rdx)
  10c7eb:	48 8b 44 24 30       	mov    0x30(%rsp),%rax
  10c7f0:	48 8b 08             	mov    (%rax),%rcx
  10c7f3:	48 85 c9             	test   %rcx,%rcx
  10c7f6:	48 89 4c 24 28       	mov    %rcx,0x28(%rsp)
  10c7fb:	74 17                	je     10c814 <_ZN4core3fmt9Formatter3run17h53eb6fa1333418d8E+0xc4>
  10c7fd:	eb 00                	jmp    10c7ff <_ZN4core3fmt9Formatter3run17h53eb6fa1333418d8E+0xaf>
  10c7ff:	48 8b 44 24 28       	mov    0x28(%rsp),%rax
  10c804:	48 83 e8 01          	sub    $0x1,%rax
  10c808:	48 89 44 24 20       	mov    %rax,0x20(%rsp)
  10c80d:	74 1d                	je     10c82c <_ZN4core3fmt9Formatter3run17h53eb6fa1333418d8E+0xdc>
  10c80f:	e9 cf 00 00 00       	jmpq   10c8e3 <_ZN4core3fmt9Formatter3run17h53eb6fa1333418d8E+0x193>
  10c814:	48 8b 44 24 38       	mov    0x38(%rsp),%rax
  10c819:	48 83 c0 40          	add    $0x40,%rax
  10c81d:	48 89 c7             	mov    %rax,%rdi
  10c820:	e8 db b7 ff ff       	callq  108000 <_ZN91_$LT$core..slice..Iter$LT$$u27$a$C$$u20$T$GT$$u20$as$u20$core..iter..iterator..Iterator$GT$4next17hc7ace1d0c40a131aE>
  10c825:	48 89 44 24 50       	mov    %rax,0x50(%rsp)
  10c82a:	eb 53                	jmp    10c87f <_ZN4core3fmt9Formatter3run17h53eb6fa1333418d8E+0x12f>
  10c82c:	48 8b 44 24 30       	mov    0x30(%rsp),%rax
  10c831:	48 8b 48 08          	mov    0x8(%rax),%rcx
  10c835:	48 8b 54 24 38       	mov    0x38(%rsp),%rdx
  10c83a:	48 8b 72 58          	mov    0x58(%rdx),%rsi
  10c83e:	48 39 f1             	cmp    %rsi,%rcx
  10c841:	40 0f 92 c7          	setb   %dil
  10c845:	40 f6 c7 01          	test   $0x1,%dil
  10c849:	48 89 4c 24 18       	mov    %rcx,0x18(%rsp)
  10c84e:	48 89 74 24 10       	mov    %rsi,0x10(%rsp)
  10c853:	75 57                	jne    10c8ac <_ZN4core3fmt9Formatter3run17h53eb6fa1333418d8E+0x15c>
  10c855:	e9 89 00 00 00       	jmpq   10c8e3 <_ZN4core3fmt9Formatter3run17h53eb6fa1333418d8E+0x193>
  10c85a:	48 8b 84 24 88 00 00 	mov    0x88(%rsp),%rax
  10c861:	00 
  10c862:	48 8b bc 24 80 00 00 	mov    0x80(%rsp),%rdi
  10c869:	00 
  10c86a:	48 8b 74 24 38       	mov    0x38(%rsp),%rsi
  10c86f:	ff d0                	callq  *%rax
  10c871:	88 44 24 47          	mov    %al,0x47(%rsp)
  10c875:	8a 44 24 47          	mov    0x47(%rsp),%al
  10c879:	88 44 24 48          	mov    %al,0x48(%rsp)
  10c87d:	eb 58                	jmp    10c8d7 <_ZN4core3fmt9Formatter3run17h53eb6fa1333418d8E+0x187>
  10c87f:	48 8b 7c 24 50       	mov    0x50(%rsp),%rdi
  10c884:	e8 77 9e ff ff       	callq  106700 <_ZN38_$LT$core..option..Option$LT$T$GT$$GT$6unwrap17h215b19ae53807d8dE>
  10c889:	48 89 44 24 08       	mov    %rax,0x8(%rsp)
  10c88e:	48 8b 44 24 08       	mov    0x8(%rsp),%rax
  10c893:	48 8b 08             	mov    (%rax),%rcx
  10c896:	48 8b 50 08          	mov    0x8(%rax),%rdx
  10c89a:	48 89 8c 24 80 00 00 	mov    %rcx,0x80(%rsp)
  10c8a1:	00 
  10c8a2:	48 89 94 24 88 00 00 	mov    %rdx,0x88(%rsp)
  10c8a9:	00 
  10c8aa:	eb ae                	jmp    10c85a <_ZN4core3fmt9Formatter3run17h53eb6fa1333418d8E+0x10a>
  10c8ac:	48 8b 44 24 18       	mov    0x18(%rsp),%rax
  10c8b1:	48 c1 e0 04          	shl    $0x4,%rax
  10c8b5:	48 8b 4c 24 38       	mov    0x38(%rsp),%rcx
  10c8ba:	48 03 41 50          	add    0x50(%rcx),%rax
  10c8be:	48 8b 10             	mov    (%rax),%rdx
  10c8c1:	48 8b 40 08          	mov    0x8(%rax),%rax
  10c8c5:	48 89 94 24 80 00 00 	mov    %rdx,0x80(%rsp)
  10c8cc:	00 
  10c8cd:	48 89 84 24 88 00 00 	mov    %rax,0x88(%rsp)
  10c8d4:	00 
  10c8d5:	eb 83                	jmp    10c85a <_ZN4core3fmt9Formatter3run17h53eb6fa1333418d8E+0x10a>
  10c8d7:	8a 44 24 48          	mov    0x48(%rsp),%al
  10c8db:	48 81 c4 98 00 00 00 	add    $0x98,%rsp
  10c8e2:	c3                   	retq   
  10c8e3:	48 8d 3d 5e 45 00 00 	lea    0x455e(%rip),%rdi        # 110e48 <panic_bounds_check_loc14788>
  10c8ea:	48 8b 74 24 18       	mov    0x18(%rsp),%rsi
  10c8ef:	48 8b 54 24 10       	mov    0x10(%rsp),%rdx
  10c8f4:	e8 27 8c ff ff       	callq  105520 <_ZN4core9panicking18panic_bounds_check17ha826e5548fbc34ddE>
  10c8f9:	0f 1f 80 00 00 00 00 	nopl   0x0(%rax)

000000000010c900 <_ZN4core3fmt9Formatter8getcount17h0369d2ea977ba558E>:
  10c900:	48 83 ec 58          	sub    $0x58,%rsp
  10c904:	48 89 f8             	mov    %rdi,%rax
  10c907:	48 89 44 24 40       	mov    %rax,0x40(%rsp)
  10c90c:	48 89 54 24 38       	mov    %rdx,0x38(%rsp)
  10c911:	48 89 74 24 30       	mov    %rsi,0x30(%rsp)
  10c916:	48 89 7c 24 28       	mov    %rdi,0x28(%rsp)
  10c91b:	48 8b 44 24 38       	mov    0x38(%rsp),%rax
  10c920:	48 8b 08             	mov    (%rax),%rcx
  10c923:	48 89 ca             	mov    %rcx,%rdx
  10c926:	48 83 ea 03          	sub    $0x3,%rdx
  10c92a:	48 89 4c 24 20       	mov    %rcx,0x20(%rsp)
  10c92f:	48 89 54 24 18       	mov    %rdx,0x18(%rsp)
  10c934:	0f 87 be 00 00 00    	ja     10c9f8 <_ZN4core3fmt9Formatter8getcount17h0369d2ea977ba558E+0xf8>
  10c93a:	48 8d 05 a7 2d 00 00 	lea    0x2da7(%rip),%rax        # 10f6e8 <str2852+0x58>
  10c941:	48 8b 4c 24 20       	mov    0x20(%rsp),%rcx
  10c946:	48 63 14 88          	movslq (%rax,%rcx,4),%rdx
  10c94a:	48 01 c2             	add    %rax,%rdx
  10c94d:	ff e2                	jmpq   *%rdx
  10c94f:	48 8b 44 24 38       	mov    0x38(%rsp),%rax
  10c954:	48 8b 48 08          	mov    0x8(%rax),%rcx
  10c958:	48 8b 54 24 28       	mov    0x28(%rsp),%rdx
  10c95d:	48 c7 02 01 00 00 00 	movq   $0x1,(%rdx)
  10c964:	48 89 4a 08          	mov    %rcx,0x8(%rdx)
  10c968:	e9 81 00 00 00       	jmpq   10c9ee <_ZN4core3fmt9Formatter8getcount17h0369d2ea977ba558E+0xee>
  10c96d:	48 8b 44 24 38       	mov    0x38(%rsp),%rax
  10c972:	48 8b 48 08          	mov    0x8(%rax),%rcx
  10c976:	48 8b 54 24 30       	mov    0x30(%rsp),%rdx
  10c97b:	48 8b 72 58          	mov    0x58(%rdx),%rsi
  10c97f:	48 39 f1             	cmp    %rsi,%rcx
  10c982:	40 0f 92 c7          	setb   %dil
  10c986:	40 f6 c7 01          	test   $0x1,%dil
  10c98a:	48 89 4c 24 10       	mov    %rcx,0x10(%rsp)
  10c98f:	48 89 74 24 08       	mov    %rsi,0x8(%rsp)
  10c994:	75 28                	jne    10c9be <_ZN4core3fmt9Formatter8getcount17h0369d2ea977ba558E+0xbe>
  10c996:	eb 60                	jmp    10c9f8 <_ZN4core3fmt9Formatter8getcount17h0369d2ea977ba558E+0xf8>
  10c998:	48 8b 44 24 30       	mov    0x30(%rsp),%rax
  10c99d:	48 83 c0 40          	add    $0x40,%rax
  10c9a1:	48 89 c7             	mov    %rax,%rdi
  10c9a4:	e8 57 b6 ff ff       	callq  108000 <_ZN91_$LT$core..slice..Iter$LT$$u27$a$C$$u20$T$GT$$u20$as$u20$core..iter..iterator..Iterator$GT$4next17hc7ace1d0c40a131aE>
  10c9a9:	48 89 44 24 50       	mov    %rax,0x50(%rsp)
  10c9ae:	eb 2f                	jmp    10c9df <_ZN4core3fmt9Formatter8getcount17h0369d2ea977ba558E+0xdf>
  10c9b0:	48 8b 44 24 28       	mov    0x28(%rsp),%rax
  10c9b5:	48 c7 00 00 00 00 00 	movq   $0x0,(%rax)
  10c9bc:	eb 30                	jmp    10c9ee <_ZN4core3fmt9Formatter8getcount17h0369d2ea977ba558E+0xee>
  10c9be:	48 8b 44 24 10       	mov    0x10(%rsp),%rax
  10c9c3:	48 c1 e0 04          	shl    $0x4,%rax
  10c9c7:	48 8b 4c 24 30       	mov    0x30(%rsp),%rcx
  10c9cc:	48 03 41 50          	add    0x50(%rcx),%rax
  10c9d0:	48 8b 7c 24 28       	mov    0x28(%rsp),%rdi
  10c9d5:	48 89 c6             	mov    %rax,%rsi
  10c9d8:	e8 83 f5 ff ff       	callq  10bf60 <_ZN4core3fmt10ArgumentV18as_usize17h12d44cbb975a4941E>
  10c9dd:	eb 0f                	jmp    10c9ee <_ZN4core3fmt9Formatter8getcount17h0369d2ea977ba558E+0xee>
  10c9df:	48 8b 74 24 50       	mov    0x50(%rsp),%rsi
  10c9e4:	48 8b 7c 24 28       	mov    0x28(%rsp),%rdi
  10c9e9:	e8 82 a0 ff ff       	callq  106a70 <_ZN38_$LT$core..option..Option$LT$T$GT$$GT$8and_then17h4f63bae6da1c470bE>
  10c9ee:	48 8b 44 24 40       	mov    0x40(%rsp),%rax
  10c9f3:	48 83 c4 58          	add    $0x58,%rsp
  10c9f7:	c3                   	retq   
  10c9f8:	48 8d 3d 61 44 00 00 	lea    0x4461(%rip),%rdi        # 110e60 <panic_bounds_check_loc14789>
  10c9ff:	48 8b 74 24 10       	mov    0x10(%rsp),%rsi
  10ca04:	48 8b 54 24 08       	mov    0x8(%rsp),%rdx
  10ca09:	e8 12 8b ff ff       	callq  105520 <_ZN4core9panicking18panic_bounds_check17ha826e5548fbc34ddE>
  10ca0e:	66 90                	xchg   %ax,%ax

000000000010ca10 <_ZN4core3fmt9Formatter12pad_integral17h3ecbf5df15337ae3E>:
  10ca10:	48 81 ec 98 01 00 00 	sub    $0x198,%rsp
  10ca17:	40 88 f0             	mov    %sil,%al
  10ca1a:	88 84 24 9a 00 00 00 	mov    %al,0x9a(%rsp)
  10ca21:	4c 89 8c 24 90 00 00 	mov    %r9,0x90(%rsp)
  10ca28:	00 
  10ca29:	4c 89 84 24 88 00 00 	mov    %r8,0x88(%rsp)
  10ca30:	00 
  10ca31:	48 89 8c 24 80 00 00 	mov    %rcx,0x80(%rsp)
  10ca38:	00 
  10ca39:	48 89 54 24 78       	mov    %rdx,0x78(%rsp)
  10ca3e:	48 89 7c 24 70       	mov    %rdi,0x70(%rsp)
  10ca43:	48 8b 44 24 78       	mov    0x78(%rsp),%rax
  10ca48:	48 89 84 24 80 01 00 	mov    %rax,0x180(%rsp)
  10ca4f:	00 
  10ca50:	48 8b 8c 24 80 00 00 	mov    0x80(%rsp),%rcx
  10ca57:	00 
  10ca58:	48 89 8c 24 88 01 00 	mov    %rcx,0x188(%rsp)
  10ca5f:	00 
  10ca60:	48 8b 94 24 88 00 00 	mov    0x88(%rsp),%rdx
  10ca67:	00 
  10ca68:	48 89 94 24 70 01 00 	mov    %rdx,0x170(%rsp)
  10ca6f:	00 
  10ca70:	48 8b b4 24 90 00 00 	mov    0x90(%rsp),%rsi
  10ca77:	00 
  10ca78:	48 89 b4 24 78 01 00 	mov    %rsi,0x178(%rsp)
  10ca7f:	00 
  10ca80:	48 8b bc 24 70 01 00 	mov    0x170(%rsp),%rdi
  10ca87:	00 
  10ca88:	48 8b b4 24 78 01 00 	mov    0x178(%rsp),%rsi
  10ca8f:	00 
  10ca90:	e8 2b cd ff ff       	callq  1097c0 <_ZN41_$LT$str$u20$as$u20$core..str..StrExt$GT$3len17h84c1f589e95b2d96E>
  10ca95:	48 89 84 24 68 01 00 	mov    %rax,0x168(%rsp)
  10ca9c:	00 
  10ca9d:	c7 84 24 60 01 00 00 	movl   $0x0,0x160(%rsp)
  10caa4:	00 00 00 00 
  10caa8:	8a 84 24 9a 00 00 00 	mov    0x9a(%rsp),%al
  10caaf:	34 ff                	xor    $0xff,%al
  10cab1:	a8 01                	test   $0x1,%al
  10cab3:	75 02                	jne    10cab7 <_ZN4core3fmt9Formatter12pad_integral17h3ecbf5df15337ae3E+0xa7>
  10cab5:	eb 35                	jmp    10caec <_ZN4core3fmt9Formatter12pad_integral17h3ecbf5df15337ae3E+0xdc>
  10cab7:	c7 84 24 60 01 00 00 	movl   $0x1,0x160(%rsp)
  10cabe:	01 00 00 00 
  10cac2:	c7 84 24 64 01 00 00 	movl   $0x2d,0x164(%rsp)
  10cac9:	2d 00 00 00 
  10cacd:	48 8b 84 24 68 01 00 	mov    0x168(%rsp),%rax
  10cad4:	00 
  10cad5:	48 83 c0 01          	add    $0x1,%rax
  10cad9:	0f 92 c1             	setb   %cl
  10cadc:	f6 c1 01             	test   $0x1,%cl
  10cadf:	48 89 44 24 68       	mov    %rax,0x68(%rsp)
  10cae4:	0f 85 8e 04 00 00    	jne    10cf78 <_ZN4core3fmt9Formatter12pad_integral17h3ecbf5df15337ae3E+0x568>
  10caea:	eb 10                	jmp    10cafc <_ZN4core3fmt9Formatter12pad_integral17h3ecbf5df15337ae3E+0xec>
  10caec:	48 8b 7c 24 70       	mov    0x70(%rsp),%rdi
  10caf1:	e8 fa 19 00 00       	callq  10e4f0 <_ZN4core3fmt9Formatter9sign_plus17h17fbced084d62a83E>
  10caf6:	88 44 24 67          	mov    %al,0x67(%rsp)
  10cafa:	eb 0f                	jmp    10cb0b <_ZN4core3fmt9Formatter12pad_integral17h3ecbf5df15337ae3E+0xfb>
  10cafc:	48 8b 44 24 68       	mov    0x68(%rsp),%rax
  10cb01:	48 89 84 24 68 01 00 	mov    %rax,0x168(%rsp)
  10cb08:	00 
  10cb09:	eb 4e                	jmp    10cb59 <_ZN4core3fmt9Formatter12pad_integral17h3ecbf5df15337ae3E+0x149>
  10cb0b:	8a 44 24 67          	mov    0x67(%rsp),%al
  10cb0f:	a8 01                	test   $0x1,%al
  10cb11:	75 02                	jne    10cb15 <_ZN4core3fmt9Formatter12pad_integral17h3ecbf5df15337ae3E+0x105>
  10cb13:	eb 35                	jmp    10cb4a <_ZN4core3fmt9Formatter12pad_integral17h3ecbf5df15337ae3E+0x13a>
  10cb15:	c7 84 24 60 01 00 00 	movl   $0x1,0x160(%rsp)
  10cb1c:	01 00 00 00 
  10cb20:	c7 84 24 64 01 00 00 	movl   $0x2b,0x164(%rsp)
  10cb27:	2b 00 00 00 
  10cb2b:	48 8b 84 24 68 01 00 	mov    0x168(%rsp),%rax
  10cb32:	00 
  10cb33:	48 83 c0 01          	add    $0x1,%rax
  10cb37:	0f 92 c1             	setb   %cl
  10cb3a:	f6 c1 01             	test   $0x1,%cl
  10cb3d:	48 89 44 24 58       	mov    %rax,0x58(%rsp)
  10cb42:	0f 85 24 04 00 00    	jne    10cf6c <_ZN4core3fmt9Formatter12pad_integral17h3ecbf5df15337ae3E+0x55c>
  10cb48:	eb 02                	jmp    10cb4c <_ZN4core3fmt9Formatter12pad_integral17h3ecbf5df15337ae3E+0x13c>
  10cb4a:	eb 0d                	jmp    10cb59 <_ZN4core3fmt9Formatter12pad_integral17h3ecbf5df15337ae3E+0x149>
  10cb4c:	48 8b 44 24 58       	mov    0x58(%rsp),%rax
  10cb51:	48 89 84 24 68 01 00 	mov    %rax,0x168(%rsp)
  10cb58:	00 
  10cb59:	c6 84 24 5f 01 00 00 	movb   $0x0,0x15f(%rsp)
  10cb60:	00 
  10cb61:	48 8b 7c 24 70       	mov    0x70(%rsp),%rdi
  10cb66:	e8 f5 19 00 00       	callq  10e560 <_ZN4core3fmt9Formatter9alternate17hedee0dabaf053b3fE>
  10cb6b:	88 44 24 57          	mov    %al,0x57(%rsp)
  10cb6f:	8a 44 24 57          	mov    0x57(%rsp),%al
  10cb73:	a8 01                	test   $0x1,%al
  10cb75:	75 02                	jne    10cb79 <_ZN4core3fmt9Formatter12pad_integral17h3ecbf5df15337ae3E+0x169>
  10cb77:	eb 27                	jmp    10cba0 <_ZN4core3fmt9Formatter12pad_integral17h3ecbf5df15337ae3E+0x190>
  10cb79:	48 8d bc 24 20 01 00 	lea    0x120(%rsp),%rdi
  10cb80:	00 
  10cb81:	c6 84 24 5f 01 00 00 	movb   $0x1,0x15f(%rsp)
  10cb88:	01 
  10cb89:	48 8b b4 24 80 01 00 	mov    0x180(%rsp),%rsi
  10cb90:	00 
  10cb91:	48 8b 94 24 88 01 00 	mov    0x188(%rsp),%rdx
  10cb98:	00 
  10cb99:	e8 e2 c8 ff ff       	callq  109480 <_ZN41_$LT$str$u20$as$u20$core..str..StrExt$GT$5chars17hbfda0ece79e3c932E>
  10cb9e:	eb 02                	jmp    10cba2 <_ZN4core3fmt9Formatter12pad_integral17h3ecbf5df15337ae3E+0x192>
  10cba0:	eb 3d                	jmp    10cbdf <_ZN4core3fmt9Formatter12pad_integral17h3ecbf5df15337ae3E+0x1cf>
  10cba2:	48 8d bc 24 20 01 00 	lea    0x120(%rsp),%rdi
  10cba9:	00 
  10cbaa:	e8 a1 8b ff ff       	callq  105750 <_ZN4core4iter8iterator8Iterator5count17h90b6be9b2e34bf5aE>
  10cbaf:	48 89 44 24 48       	mov    %rax,0x48(%rsp)
  10cbb4:	48 8b 44 24 48       	mov    0x48(%rsp),%rax
  10cbb9:	48 03 84 24 68 01 00 	add    0x168(%rsp),%rax
  10cbc0:	00 
  10cbc1:	0f 92 c1             	setb   %cl
  10cbc4:	f6 c1 01             	test   $0x1,%cl
  10cbc7:	48 89 44 24 40       	mov    %rax,0x40(%rsp)
  10cbcc:	0f 85 b2 03 00 00    	jne    10cf84 <_ZN4core3fmt9Formatter12pad_integral17h3ecbf5df15337ae3E+0x574>
  10cbd2:	48 8b 44 24 40       	mov    0x40(%rsp),%rax
  10cbd7:	48 89 84 24 68 01 00 	mov    %rax,0x168(%rsp)
  10cbde:	00 
  10cbdf:	48 8d 84 24 60 01 00 	lea    0x160(%rsp),%rax
  10cbe6:	00 
  10cbe7:	48 89 84 24 40 01 00 	mov    %rax,0x140(%rsp)
  10cbee:	00 
  10cbef:	48 8d 84 24 5f 01 00 	lea    0x15f(%rsp),%rax
  10cbf6:	00 
  10cbf7:	48 89 84 24 48 01 00 	mov    %rax,0x148(%rsp)
  10cbfe:	00 
  10cbff:	48 8d 84 24 80 01 00 	lea    0x180(%rsp),%rax
  10cc06:	00 
  10cc07:	48 89 84 24 50 01 00 	mov    %rax,0x150(%rsp)
  10cc0e:	00 
  10cc0f:	48 8b 44 24 70       	mov    0x70(%rsp),%rax
  10cc14:	48 8b 48 10          	mov    0x10(%rax),%rcx
  10cc18:	48 85 c9             	test   %rcx,%rcx
  10cc1b:	48 89 4c 24 38       	mov    %rcx,0x38(%rsp)
  10cc20:	74 1b                	je     10cc3d <_ZN4core3fmt9Formatter12pad_integral17h3ecbf5df15337ae3E+0x22d>
  10cc22:	eb 00                	jmp    10cc24 <_ZN4core3fmt9Formatter12pad_integral17h3ecbf5df15337ae3E+0x214>
  10cc24:	48 8b 44 24 38       	mov    0x38(%rsp),%rax
  10cc29:	48 83 e8 01          	sub    $0x1,%rax
  10cc2d:	48 89 44 24 30       	mov    %rax,0x30(%rsp)
  10cc32:	0f 84 b1 00 00 00    	je     10cce9 <_ZN4core3fmt9Formatter12pad_integral17h3ecbf5df15337ae3E+0x2d9>
  10cc38:	e9 53 03 00 00       	jmpq   10cf90 <_ZN4core3fmt9Formatter12pad_integral17h3ecbf5df15337ae3E+0x580>
  10cc3d:	48 8d bc 24 40 01 00 	lea    0x140(%rsp),%rdi
  10cc44:	00 
  10cc45:	48 8b 44 24 70       	mov    0x70(%rsp),%rax
  10cc4a:	48 89 84 24 10 01 00 	mov    %rax,0x110(%rsp)
  10cc51:	00 
  10cc52:	48 89 c6             	mov    %rax,%rsi
  10cc55:	e8 86 23 00 00       	callq  10efe0 <_ZN4core3fmt9Formatter12pad_integral28_$u7b$$u7b$closure$u7d$$u7d$17hb0180034780c0952E>
  10cc5a:	88 84 24 9c 00 00 00 	mov    %al,0x9c(%rsp)
  10cc61:	8a 84 24 9c 00 00 00 	mov    0x9c(%rsp),%al
  10cc68:	88 84 24 18 01 00 00 	mov    %al,0x118(%rsp)
  10cc6f:	e9 d7 00 00 00       	jmpq   10cd4b <_ZN4core3fmt9Formatter12pad_integral17h3ecbf5df15337ae3E+0x33b>
  10cc74:	48 8d bc 24 40 01 00 	lea    0x140(%rsp),%rdi
  10cc7b:	00 
  10cc7c:	48 8b 44 24 70       	mov    0x70(%rsp),%rax
  10cc81:	48 89 84 24 00 01 00 	mov    %rax,0x100(%rsp)
  10cc88:	00 
  10cc89:	48 89 c6             	mov    %rax,%rsi
  10cc8c:	e8 4f 23 00 00       	callq  10efe0 <_ZN4core3fmt9Formatter12pad_integral28_$u7b$$u7b$closure$u7d$$u7d$17hb0180034780c0952E>
  10cc91:	88 84 24 9e 00 00 00 	mov    %al,0x9e(%rsp)
  10cc98:	8a 84 24 9e 00 00 00 	mov    0x9e(%rsp),%al
  10cc9f:	88 84 24 08 01 00 00 	mov    %al,0x108(%rsp)
  10cca6:	e9 15 01 00 00       	jmpq   10cdc0 <_ZN4core3fmt9Formatter12pad_integral17h3ecbf5df15337ae3E+0x3b0>
  10ccab:	48 8d bc 24 40 01 00 	lea    0x140(%rsp),%rdi
  10ccb2:	00 
  10ccb3:	48 8b 44 24 70       	mov    0x70(%rsp),%rax
  10ccb8:	c7 40 04 30 00 00 00 	movl   $0x30,0x4(%rax)
  10ccbf:	48 89 84 24 f0 00 00 	mov    %rax,0xf0(%rsp)
  10ccc6:	00 
  10ccc7:	48 89 c6             	mov    %rax,%rsi
  10ccca:	e8 11 23 00 00       	callq  10efe0 <_ZN4core3fmt9Formatter12pad_integral28_$u7b$$u7b$closure$u7d$$u7d$17hb0180034780c0952E>
  10cccf:	88 84 24 ae 00 00 00 	mov    %al,0xae(%rsp)
  10ccd6:	8a 84 24 ae 00 00 00 	mov    0xae(%rsp),%al
  10ccdd:	88 84 24 f8 00 00 00 	mov    %al,0xf8(%rsp)
  10cce4:	e9 3f 01 00 00       	jmpq   10ce28 <_ZN4core3fmt9Formatter12pad_integral17h3ecbf5df15337ae3E+0x418>
  10cce9:	48 8b 44 24 70       	mov    0x70(%rsp),%rax
  10ccee:	48 8b 48 18          	mov    0x18(%rax),%rcx
  10ccf2:	48 39 8c 24 68 01 00 	cmp    %rcx,0x168(%rsp)
  10ccf9:	00 
  10ccfa:	0f 83 74 ff ff ff    	jae    10cc74 <_ZN4core3fmt9Formatter12pad_integral17h3ecbf5df15337ae3E+0x264>
  10cd00:	48 8b 44 24 70       	mov    0x70(%rsp),%rax
  10cd05:	48 8b 48 18          	mov    0x18(%rax),%rcx
  10cd09:	48 89 c7             	mov    %rax,%rdi
  10cd0c:	48 89 4c 24 28       	mov    %rcx,0x28(%rsp)
  10cd11:	e8 ba 18 00 00       	callq  10e5d0 <_ZN4core3fmt9Formatter19sign_aware_zero_pad17ha28b9a96d4e18623E>
  10cd16:	88 44 24 27          	mov    %al,0x27(%rsp)
  10cd1a:	8a 44 24 27          	mov    0x27(%rsp),%al
  10cd1e:	a8 01                	test   $0x1,%al
  10cd20:	75 89                	jne    10ccab <_ZN4core3fmt9Formatter12pad_integral17h3ecbf5df15337ae3E+0x29b>
  10cd22:	eb 00                	jmp    10cd24 <_ZN4core3fmt9Formatter12pad_integral17h3ecbf5df15337ae3E+0x314>
  10cd24:	48 8b 44 24 70       	mov    0x70(%rsp),%rax
  10cd29:	48 8b 48 18          	mov    0x18(%rax),%rcx
  10cd2d:	48 2b 8c 24 68 01 00 	sub    0x168(%rsp),%rcx
  10cd34:	00 
  10cd35:	0f 92 c2             	setb   %dl
  10cd38:	f6 c2 01             	test   $0x1,%dl
  10cd3b:	48 89 4c 24 18       	mov    %rcx,0x18(%rsp)
  10cd40:	0f 85 4a 02 00 00    	jne    10cf90 <_ZN4core3fmt9Formatter12pad_integral17h3ecbf5df15337ae3E+0x580>
  10cd46:	e9 8f 01 00 00       	jmpq   10ceda <_ZN4core3fmt9Formatter12pad_integral17h3ecbf5df15337ae3E+0x4ca>
  10cd4b:	8a 84 24 18 01 00 00 	mov    0x118(%rsp),%al
  10cd52:	84 c0                	test   %al,%al
  10cd54:	88 44 24 17          	mov    %al,0x17(%rsp)
  10cd58:	74 13                	je     10cd6d <_ZN4core3fmt9Formatter12pad_integral17h3ecbf5df15337ae3E+0x35d>
  10cd5a:	eb 00                	jmp    10cd5c <_ZN4core3fmt9Formatter12pad_integral17h3ecbf5df15337ae3E+0x34c>
  10cd5c:	8a 44 24 17          	mov    0x17(%rsp),%al
  10cd60:	2c 01                	sub    $0x1,%al
  10cd62:	88 44 24 16          	mov    %al,0x16(%rsp)
  10cd66:	74 3c                	je     10cda4 <_ZN4core3fmt9Formatter12pad_integral17h3ecbf5df15337ae3E+0x394>
  10cd68:	e9 23 02 00 00       	jmpq   10cf90 <_ZN4core3fmt9Formatter12pad_integral17h3ecbf5df15337ae3E+0x580>
  10cd6d:	48 8b 44 24 70       	mov    0x70(%rsp),%rax
  10cd72:	48 8b 78 30          	mov    0x30(%rax),%rdi
  10cd76:	48 8b 48 38          	mov    0x38(%rax),%rcx
  10cd7a:	48 8b b4 24 70 01 00 	mov    0x170(%rsp),%rsi
  10cd81:	00 
  10cd82:	48 8b 94 24 78 01 00 	mov    0x178(%rsp),%rdx
  10cd89:	00 
  10cd8a:	ff 51 18             	callq  *0x18(%rcx)
  10cd8d:	88 84 24 9b 00 00 00 	mov    %al,0x9b(%rsp)
  10cd94:	8a 84 24 9b 00 00 00 	mov    0x9b(%rsp),%al
  10cd9b:	88 84 24 c0 00 00 00 	mov    %al,0xc0(%rsp)
  10cda2:	eb 0d                	jmp    10cdb1 <_ZN4core3fmt9Formatter12pad_integral17h3ecbf5df15337ae3E+0x3a1>
  10cda4:	e8 37 84 ff ff       	callq  1051e0 <_ZN50_$LT$T$u20$as$u20$core..convert..From$LT$T$GT$$GT$4from17hde9d3f996ad54071E>
  10cda9:	c6 84 24 c0 00 00 00 	movb   $0x1,0xc0(%rsp)
  10cdb0:	01 
  10cdb1:	8a 84 24 c0 00 00 00 	mov    0xc0(%rsp),%al
  10cdb8:	48 81 c4 98 01 00 00 	add    $0x198,%rsp
  10cdbf:	c3                   	retq   
  10cdc0:	8a 84 24 08 01 00 00 	mov    0x108(%rsp),%al
  10cdc7:	84 c0                	test   %al,%al
  10cdc9:	88 44 24 15          	mov    %al,0x15(%rsp)
  10cdcd:	74 13                	je     10cde2 <_ZN4core3fmt9Formatter12pad_integral17h3ecbf5df15337ae3E+0x3d2>
  10cdcf:	eb 00                	jmp    10cdd1 <_ZN4core3fmt9Formatter12pad_integral17h3ecbf5df15337ae3E+0x3c1>
  10cdd1:	8a 44 24 15          	mov    0x15(%rsp),%al
  10cdd5:	2c 01                	sub    $0x1,%al
  10cdd7:	88 44 24 14          	mov    %al,0x14(%rsp)
  10cddb:	74 3c                	je     10ce19 <_ZN4core3fmt9Formatter12pad_integral17h3ecbf5df15337ae3E+0x409>
  10cddd:	e9 ae 01 00 00       	jmpq   10cf90 <_ZN4core3fmt9Formatter12pad_integral17h3ecbf5df15337ae3E+0x580>
  10cde2:	48 8b 44 24 70       	mov    0x70(%rsp),%rax
  10cde7:	48 8b 78 30          	mov    0x30(%rax),%rdi
  10cdeb:	48 8b 48 38          	mov    0x38(%rax),%rcx
  10cdef:	48 8b b4 24 70 01 00 	mov    0x170(%rsp),%rsi
  10cdf6:	00 
  10cdf7:	48 8b 94 24 78 01 00 	mov    0x178(%rsp),%rdx
  10cdfe:	00 
  10cdff:	ff 51 18             	callq  *0x18(%rcx)
  10ce02:	88 84 24 9d 00 00 00 	mov    %al,0x9d(%rsp)
  10ce09:	8a 84 24 9d 00 00 00 	mov    0x9d(%rsp),%al
  10ce10:	88 84 24 c0 00 00 00 	mov    %al,0xc0(%rsp)
  10ce17:	eb 98                	jmp    10cdb1 <_ZN4core3fmt9Formatter12pad_integral17h3ecbf5df15337ae3E+0x3a1>
  10ce19:	e8 c2 83 ff ff       	callq  1051e0 <_ZN50_$LT$T$u20$as$u20$core..convert..From$LT$T$GT$$GT$4from17hde9d3f996ad54071E>
  10ce1e:	c6 84 24 c0 00 00 00 	movb   $0x1,0xc0(%rsp)
  10ce25:	01 
  10ce26:	eb 89                	jmp    10cdb1 <_ZN4core3fmt9Formatter12pad_integral17h3ecbf5df15337ae3E+0x3a1>
  10ce28:	8a 84 24 f8 00 00 00 	mov    0xf8(%rsp),%al
  10ce2f:	84 c0                	test   %al,%al
  10ce31:	88 44 24 13          	mov    %al,0x13(%rsp)
  10ce35:	74 13                	je     10ce4a <_ZN4core3fmt9Formatter12pad_integral17h3ecbf5df15337ae3E+0x43a>
  10ce37:	eb 00                	jmp    10ce39 <_ZN4core3fmt9Formatter12pad_integral17h3ecbf5df15337ae3E+0x429>
  10ce39:	8a 44 24 13          	mov    0x13(%rsp),%al
  10ce3d:	2c 01                	sub    $0x1,%al
  10ce3f:	88 44 24 12          	mov    %al,0x12(%rsp)
  10ce43:	74 25                	je     10ce6a <_ZN4core3fmt9Formatter12pad_integral17h3ecbf5df15337ae3E+0x45a>
  10ce45:	e9 46 01 00 00       	jmpq   10cf90 <_ZN4core3fmt9Formatter12pad_integral17h3ecbf5df15337ae3E+0x580>
  10ce4a:	48 8b 44 24 28       	mov    0x28(%rsp),%rax
  10ce4f:	48 2b 84 24 68 01 00 	sub    0x168(%rsp),%rax
  10ce56:	00 
  10ce57:	0f 92 c1             	setb   %cl
  10ce5a:	f6 c1 01             	test   $0x1,%cl
  10ce5d:	48 89 44 24 08       	mov    %rax,0x8(%rsp)
  10ce62:	0f 85 34 01 00 00    	jne    10cf9c <_ZN4core3fmt9Formatter12pad_integral17h3ecbf5df15337ae3E+0x58c>
  10ce68:	eb 12                	jmp    10ce7c <_ZN4core3fmt9Formatter12pad_integral17h3ecbf5df15337ae3E+0x46c>
  10ce6a:	e8 71 83 ff ff       	callq  1051e0 <_ZN50_$LT$T$u20$as$u20$core..convert..From$LT$T$GT$$GT$4from17hde9d3f996ad54071E>
  10ce6f:	c6 84 24 c0 00 00 00 	movb   $0x1,0xc0(%rsp)
  10ce76:	01 
  10ce77:	e9 35 ff ff ff       	jmpq   10cdb1 <_ZN4core3fmt9Formatter12pad_integral17h3ecbf5df15337ae3E+0x3a1>
  10ce7c:	c6 84 24 ef 00 00 00 	movb   $0x1,0xef(%rsp)
  10ce83:	01 
  10ce84:	48 8d 84 24 70 01 00 	lea    0x170(%rsp),%rax
  10ce8b:	00 
  10ce8c:	48 89 84 24 e0 00 00 	mov    %rax,0xe0(%rsp)
  10ce93:	00 
  10ce94:	8a 8c 24 ef 00 00 00 	mov    0xef(%rsp),%cl
  10ce9b:	48 89 84 24 a0 00 00 	mov    %rax,0xa0(%rsp)
  10cea2:	00 
  10cea3:	48 8b 84 24 a0 00 00 	mov    0xa0(%rsp),%rax
  10ceaa:	00 
  10ceab:	48 8b 7c 24 70       	mov    0x70(%rsp),%rdi
  10ceb0:	48 8b 74 24 08       	mov    0x8(%rsp),%rsi
  10ceb5:	0f b6 d1             	movzbl %cl,%edx
  10ceb8:	48 89 c1             	mov    %rax,%rcx
  10cebb:	e8 c0 0f 00 00       	callq  10de80 <_ZN4core3fmt9Formatter12with_padding17ha119b76c4be49d1aE>
  10cec0:	88 84 24 9f 00 00 00 	mov    %al,0x9f(%rsp)
  10cec7:	8a 84 24 9f 00 00 00 	mov    0x9f(%rsp),%al
  10cece:	88 84 24 c0 00 00 00 	mov    %al,0xc0(%rsp)
  10ced5:	e9 d7 fe ff ff       	jmpq   10cdb1 <_ZN4core3fmt9Formatter12pad_integral17h3ecbf5df15337ae3E+0x3a1>
  10ceda:	48 8d 8c 24 b0 00 00 	lea    0xb0(%rsp),%rcx
  10cee1:	00 
  10cee2:	48 8d 84 24 70 01 00 	lea    0x170(%rsp),%rax
  10cee9:	00 
  10ceea:	48 8d 94 24 40 01 00 	lea    0x140(%rsp),%rdx
  10cef1:	00 
  10cef2:	c6 84 24 df 00 00 00 	movb   $0x1,0xdf(%rsp)
  10cef9:	01 
  10cefa:	48 89 94 24 c8 00 00 	mov    %rdx,0xc8(%rsp)
  10cf01:	00 
  10cf02:	48 89 84 24 d0 00 00 	mov    %rax,0xd0(%rsp)
  10cf09:	00 
  10cf0a:	40 8a b4 24 df 00 00 	mov    0xdf(%rsp),%sil
  10cf11:	00 
  10cf12:	48 8b 84 24 c8 00 00 	mov    0xc8(%rsp),%rax
  10cf19:	00 
  10cf1a:	48 8b 94 24 d0 00 00 	mov    0xd0(%rsp),%rdx
  10cf21:	00 
  10cf22:	48 89 84 24 b0 00 00 	mov    %rax,0xb0(%rsp)
  10cf29:	00 
  10cf2a:	48 89 94 24 b8 00 00 	mov    %rdx,0xb8(%rsp)
  10cf31:	00 
  10cf32:	48 8b 7c 24 70       	mov    0x70(%rsp),%rdi
  10cf37:	48 8b 44 24 18       	mov    0x18(%rsp),%rax
  10cf3c:	40 88 74 24 07       	mov    %sil,0x7(%rsp)
  10cf41:	48 89 c6             	mov    %rax,%rsi
  10cf44:	44 8a 44 24 07       	mov    0x7(%rsp),%r8b
  10cf49:	41 0f b6 d0          	movzbl %r8b,%edx
  10cf4d:	e8 de 09 00 00       	callq  10d930 <_ZN4core3fmt9Formatter12with_padding17h90e9e2dbad5ce5daE>
  10cf52:	88 84 24 af 00 00 00 	mov    %al,0xaf(%rsp)
  10cf59:	8a 84 24 af 00 00 00 	mov    0xaf(%rsp),%al
  10cf60:	88 84 24 c0 00 00 00 	mov    %al,0xc0(%rsp)
  10cf67:	e9 45 fe ff ff       	jmpq   10cdb1 <_ZN4core3fmt9Formatter12pad_integral17h3ecbf5df15337ae3E+0x3a1>
  10cf6c:	48 8d 3d 05 3f 00 00 	lea    0x3f05(%rip),%rdi        # 110e78 <panic_loc14790>
  10cf73:	e8 18 85 ff ff       	callq  105490 <_ZN4core9panicking5panic17h585bd70cda921012E>
  10cf78:	48 8d 3d 21 3f 00 00 	lea    0x3f21(%rip),%rdi        # 110ea0 <panic_loc14791>
  10cf7f:	e8 0c 85 ff ff       	callq  105490 <_ZN4core9panicking5panic17h585bd70cda921012E>
  10cf84:	48 8d 3d 3d 3f 00 00 	lea    0x3f3d(%rip),%rdi        # 110ec8 <panic_loc14792>
  10cf8b:	e8 00 85 ff ff       	callq  105490 <_ZN4core9panicking5panic17h585bd70cda921012E>
  10cf90:	48 8d 3d 59 3f 00 00 	lea    0x3f59(%rip),%rdi        # 110ef0 <panic_loc14793>
  10cf97:	e8 f4 84 ff ff       	callq  105490 <_ZN4core9panicking5panic17h585bd70cda921012E>
  10cf9c:	48 8d 3d 75 3f 00 00 	lea    0x3f75(%rip),%rdi        # 110f18 <panic_loc14794>
  10cfa3:	e8 e8 84 ff ff       	callq  105490 <_ZN4core9panicking5panic17h585bd70cda921012E>
  10cfa8:	0f 1f 84 00 00 00 00 	nopl   0x0(%rax,%rax,1)
  10cfaf:	00 

000000000010cfb0 <_ZN4core3fmt9Formatter3pad17h5c7e650ddbfaa5deE>:
  10cfb0:	48 81 ec 78 01 00 00 	sub    $0x178,%rsp
  10cfb7:	48 89 b4 24 90 00 00 	mov    %rsi,0x90(%rsp)
  10cfbe:	00 
  10cfbf:	48 89 bc 24 88 00 00 	mov    %rdi,0x88(%rsp)
  10cfc6:	00 
  10cfc7:	48 89 94 24 80 00 00 	mov    %rdx,0x80(%rsp)
  10cfce:	00 
  10cfcf:	48 8b 84 24 90 00 00 	mov    0x90(%rsp),%rax
  10cfd6:	00 
  10cfd7:	48 89 84 24 60 01 00 	mov    %rax,0x160(%rsp)
  10cfde:	00 
  10cfdf:	48 8b 8c 24 80 00 00 	mov    0x80(%rsp),%rcx
  10cfe6:	00 
  10cfe7:	48 89 8c 24 68 01 00 	mov    %rcx,0x168(%rsp)
  10cfee:	00 
  10cfef:	48 8b 94 24 88 00 00 	mov    0x88(%rsp),%rdx
  10cff6:	00 
  10cff7:	48 83 c2 10          	add    $0x10,%rdx
  10cffb:	48 89 d7             	mov    %rdx,%rdi
  10cffe:	e8 cd 96 ff ff       	callq  1066d0 <_ZN38_$LT$core..option..Option$LT$T$GT$$GT$7is_none17hcdbd86a4e4d3bb37E>
  10d003:	88 44 24 7f          	mov    %al,0x7f(%rsp)
  10d007:	eb 3a                	jmp    10d043 <_ZN4core3fmt9Formatter3pad17h5c7e650ddbfaa5deE+0x93>
  10d009:	c6 84 24 47 01 00 00 	movb   $0x1,0x147(%rsp)
  10d010:	01 
  10d011:	eb 24                	jmp    10d037 <_ZN4core3fmt9Formatter3pad17h5c7e650ddbfaa5deE+0x87>
  10d013:	c6 84 24 47 01 00 00 	movb   $0x0,0x147(%rsp)
  10d01a:	00 
  10d01b:	eb 1a                	jmp    10d037 <_ZN4core3fmt9Formatter3pad17h5c7e650ddbfaa5deE+0x87>
  10d01d:	48 8b 84 24 88 00 00 	mov    0x88(%rsp),%rax
  10d024:	00 
  10d025:	48 83 c0 20          	add    $0x20,%rax
  10d029:	48 89 c7             	mov    %rax,%rdi
  10d02c:	e8 9f 96 ff ff       	callq  1066d0 <_ZN38_$LT$core..option..Option$LT$T$GT$$GT$7is_none17hcdbd86a4e4d3bb37E>
  10d031:	88 44 24 7e          	mov    %al,0x7e(%rsp)
  10d035:	eb 16                	jmp    10d04d <_ZN4core3fmt9Formatter3pad17h5c7e650ddbfaa5deE+0x9d>
  10d037:	f6 84 24 47 01 00 00 	testb  $0x1,0x147(%rsp)
  10d03e:	01 
  10d03f:	75 16                	jne    10d057 <_ZN4core3fmt9Formatter3pad17h5c7e650ddbfaa5deE+0xa7>
  10d041:	eb 4e                	jmp    10d091 <_ZN4core3fmt9Formatter3pad17h5c7e650ddbfaa5deE+0xe1>
  10d043:	8a 44 24 7f          	mov    0x7f(%rsp),%al
  10d047:	a8 01                	test   $0x1,%al
  10d049:	75 d2                	jne    10d01d <_ZN4core3fmt9Formatter3pad17h5c7e650ddbfaa5deE+0x6d>
  10d04b:	eb c6                	jmp    10d013 <_ZN4core3fmt9Formatter3pad17h5c7e650ddbfaa5deE+0x63>
  10d04d:	8a 44 24 7e          	mov    0x7e(%rsp),%al
  10d051:	a8 01                	test   $0x1,%al
  10d053:	75 b4                	jne    10d009 <_ZN4core3fmt9Formatter3pad17h5c7e650ddbfaa5deE+0x59>
  10d055:	eb bc                	jmp    10d013 <_ZN4core3fmt9Formatter3pad17h5c7e650ddbfaa5deE+0x63>
  10d057:	48 8b 84 24 88 00 00 	mov    0x88(%rsp),%rax
  10d05e:	00 
  10d05f:	48 8b 78 30          	mov    0x30(%rax),%rdi
  10d063:	48 8b 48 38          	mov    0x38(%rax),%rcx
  10d067:	48 8b b4 24 60 01 00 	mov    0x160(%rsp),%rsi
  10d06e:	00 
  10d06f:	48 8b 94 24 68 01 00 	mov    0x168(%rsp),%rdx
  10d076:	00 
  10d077:	ff 51 18             	callq  *0x18(%rcx)
  10d07a:	88 84 24 9c 00 00 00 	mov    %al,0x9c(%rsp)
  10d081:	8a 84 24 9c 00 00 00 	mov    0x9c(%rsp),%al
  10d088:	88 84 24 b0 00 00 00 	mov    %al,0xb0(%rsp)
  10d08f:	eb 2d                	jmp    10d0be <_ZN4core3fmt9Formatter3pad17h5c7e650ddbfaa5deE+0x10e>
  10d091:	48 8b 84 24 88 00 00 	mov    0x88(%rsp),%rax
  10d098:	00 
  10d099:	48 8b 48 20          	mov    0x20(%rax),%rcx
  10d09d:	48 85 c9             	test   %rcx,%rcx
  10d0a0:	48 89 4c 24 70       	mov    %rcx,0x70(%rsp)
  10d0a5:	74 26                	je     10d0cd <_ZN4core3fmt9Formatter3pad17h5c7e650ddbfaa5deE+0x11d>
  10d0a7:	eb 00                	jmp    10d0a9 <_ZN4core3fmt9Formatter3pad17h5c7e650ddbfaa5deE+0xf9>
  10d0a9:	48 8b 44 24 70       	mov    0x70(%rsp),%rax
  10d0ae:	48 83 e8 01          	sub    $0x1,%rax
  10d0b2:	48 89 44 24 68       	mov    %rax,0x68(%rsp)
  10d0b7:	74 36                	je     10d0ef <_ZN4core3fmt9Formatter3pad17h5c7e650ddbfaa5deE+0x13f>
  10d0b9:	e9 07 03 00 00       	jmpq   10d3c5 <_ZN4core3fmt9Formatter3pad17h5c7e650ddbfaa5deE+0x415>
  10d0be:	8a 84 24 b0 00 00 00 	mov    0xb0(%rsp),%al
  10d0c5:	48 81 c4 78 01 00 00 	add    $0x178,%rsp
  10d0cc:	c3                   	retq   
  10d0cd:	48 8b 84 24 60 01 00 	mov    0x160(%rsp),%rax
  10d0d4:	00 
  10d0d5:	48 8b 8c 24 68 01 00 	mov    0x168(%rsp),%rcx
  10d0dc:	00 
  10d0dd:	48 89 84 24 50 01 00 	mov    %rax,0x150(%rsp)
  10d0e4:	00 
  10d0e5:	48 89 8c 24 58 01 00 	mov    %rcx,0x158(%rsp)
  10d0ec:	00 
  10d0ed:	eb 33                	jmp    10d122 <_ZN4core3fmt9Formatter3pad17h5c7e650ddbfaa5deE+0x172>
  10d0ef:	48 8d bc 24 f0 00 00 	lea    0xf0(%rsp),%rdi
  10d0f6:	00 
  10d0f7:	48 8b 84 24 88 00 00 	mov    0x88(%rsp),%rax
  10d0fe:	00 
  10d0ff:	48 8b 50 28          	mov    0x28(%rax),%rdx
  10d103:	48 8b b4 24 60 01 00 	mov    0x160(%rsp),%rsi
  10d10a:	00 
  10d10b:	48 8b 8c 24 68 01 00 	mov    0x168(%rsp),%rcx
  10d112:	00 
  10d113:	48 89 54 24 60       	mov    %rdx,0x60(%rsp)
  10d118:	48 89 ca             	mov    %rcx,%rdx
  10d11b:	e8 d0 c3 ff ff       	callq  1094f0 <_ZN41_$LT$str$u20$as$u20$core..str..StrExt$GT$12char_indices17hc57674a55540cb0fE>
  10d120:	eb 35                	jmp    10d157 <_ZN4core3fmt9Formatter3pad17h5c7e650ddbfaa5deE+0x1a7>
  10d122:	48 8b 84 24 88 00 00 	mov    0x88(%rsp),%rax
  10d129:	00 
  10d12a:	48 8b 48 10          	mov    0x10(%rax),%rcx
  10d12e:	48 85 c9             	test   %rcx,%rcx
  10d131:	48 89 4c 24 58       	mov    %rcx,0x58(%rsp)
  10d136:	0f 84 f6 00 00 00    	je     10d232 <_ZN4core3fmt9Formatter3pad17h5c7e650ddbfaa5deE+0x282>
  10d13c:	eb 00                	jmp    10d13e <_ZN4core3fmt9Formatter3pad17h5c7e650ddbfaa5deE+0x18e>
  10d13e:	48 8b 44 24 58       	mov    0x58(%rsp),%rax
  10d143:	48 83 e8 01          	sub    $0x1,%rax
  10d147:	48 89 44 24 50       	mov    %rax,0x50(%rsp)
  10d14c:	0f 84 5a 01 00 00    	je     10d2ac <_ZN4core3fmt9Formatter3pad17h5c7e650ddbfaa5deE+0x2fc>
  10d152:	e9 6e 02 00 00       	jmpq   10d3c5 <_ZN4core3fmt9Formatter3pad17h5c7e650ddbfaa5deE+0x415>
  10d157:	48 8d bc 24 08 01 00 	lea    0x108(%rsp),%rdi
  10d15e:	00 
  10d15f:	48 8d b4 24 f0 00 00 	lea    0xf0(%rsp),%rsi
  10d166:	00 
  10d167:	48 8b 54 24 60       	mov    0x60(%rsp),%rdx
  10d16c:	e8 9f 88 ff ff       	callq  105a10 <_ZN4core4iter8iterator8Iterator4skip17hd99e1eb6832ada36E>
  10d171:	48 8d bc 24 28 01 00 	lea    0x128(%rsp),%rdi
  10d178:	00 
  10d179:	48 8d b4 24 08 01 00 	lea    0x108(%rsp),%rsi
  10d180:	00 
  10d181:	e8 7a 92 ff ff       	callq  106400 <_ZN76_$LT$core..iter..Skip$LT$I$GT$$u20$as$u20$core..iter..iterator..Iterator$GT$4next17h73bdceaf2f7d38c8E>
  10d186:	48 8b 84 24 28 01 00 	mov    0x128(%rsp),%rax
  10d18d:	00 
  10d18e:	48 85 c0             	test   %rax,%rax
  10d191:	48 89 44 24 48       	mov    %rax,0x48(%rsp)
  10d196:	74 17                	je     10d1af <_ZN4core3fmt9Formatter3pad17h5c7e650ddbfaa5deE+0x1ff>
  10d198:	eb 00                	jmp    10d19a <_ZN4core3fmt9Formatter3pad17h5c7e650ddbfaa5deE+0x1ea>
  10d19a:	48 8b 44 24 48       	mov    0x48(%rsp),%rax
  10d19f:	48 83 e8 01          	sub    $0x1,%rax
  10d1a3:	48 89 44 24 40       	mov    %rax,0x40(%rsp)
  10d1a8:	74 2a                	je     10d1d4 <_ZN4core3fmt9Formatter3pad17h5c7e650ddbfaa5deE+0x224>
  10d1aa:	e9 16 02 00 00       	jmpq   10d3c5 <_ZN4core3fmt9Formatter3pad17h5c7e650ddbfaa5deE+0x415>
  10d1af:	48 8b 84 24 60 01 00 	mov    0x160(%rsp),%rax
  10d1b6:	00 
  10d1b7:	48 8b 8c 24 68 01 00 	mov    0x168(%rsp),%rcx
  10d1be:	00 
  10d1bf:	48 89 84 24 50 01 00 	mov    %rax,0x150(%rsp)
  10d1c6:	00 
  10d1c7:	48 89 8c 24 58 01 00 	mov    %rcx,0x158(%rsp)
  10d1ce:	00 
  10d1cf:	e9 4e ff ff ff       	jmpq   10d122 <_ZN4core3fmt9Formatter3pad17h5c7e650ddbfaa5deE+0x172>
  10d1d4:	48 8b 84 24 30 01 00 	mov    0x130(%rsp),%rax
  10d1db:	00 
  10d1dc:	48 8b bc 24 60 01 00 	mov    0x160(%rsp),%rdi
  10d1e3:	00 
  10d1e4:	48 8b b4 24 68 01 00 	mov    0x168(%rsp),%rsi
  10d1eb:	00 
  10d1ec:	48 89 84 24 e8 00 00 	mov    %rax,0xe8(%rsp)
  10d1f3:	00 
  10d1f4:	48 89 84 24 a8 00 00 	mov    %rax,0xa8(%rsp)
  10d1fb:	00 
  10d1fc:	48 8b 94 24 a8 00 00 	mov    0xa8(%rsp),%rdx
  10d203:	00 
  10d204:	e8 97 ba ff ff       	callq  108ca0 <_ZN4core3str6traits89_$LT$impl$u20$core..ops..Index$LT$core..ops..RangeTo$LT$usize$GT$$GT$$u20$for$u20$str$GT$5index17h7349beb06180649aE>
  10d209:	48 89 44 24 38       	mov    %rax,0x38(%rsp)
  10d20e:	48 89 54 24 30       	mov    %rdx,0x30(%rsp)
  10d213:	48 8b 44 24 38       	mov    0x38(%rsp),%rax
  10d218:	48 89 84 24 50 01 00 	mov    %rax,0x150(%rsp)
  10d21f:	00 
  10d220:	48 8b 4c 24 30       	mov    0x30(%rsp),%rcx
  10d225:	48 89 8c 24 58 01 00 	mov    %rcx,0x158(%rsp)
  10d22c:	00 
  10d22d:	e9 f0 fe ff ff       	jmpq   10d122 <_ZN4core3fmt9Formatter3pad17h5c7e650ddbfaa5deE+0x172>
  10d232:	48 8b 84 24 88 00 00 	mov    0x88(%rsp),%rax
  10d239:	00 
  10d23a:	48 8b 78 30          	mov    0x30(%rax),%rdi
  10d23e:	48 8b 48 38          	mov    0x38(%rax),%rcx
  10d242:	48 8b b4 24 50 01 00 	mov    0x150(%rsp),%rsi
  10d249:	00 
  10d24a:	48 8b 94 24 58 01 00 	mov    0x158(%rsp),%rdx
  10d251:	00 
  10d252:	ff 51 18             	callq  *0x18(%rcx)
  10d255:	88 84 24 9d 00 00 00 	mov    %al,0x9d(%rsp)
  10d25c:	8a 84 24 9d 00 00 00 	mov    0x9d(%rsp),%al
  10d263:	88 84 24 b0 00 00 00 	mov    %al,0xb0(%rsp)
  10d26a:	e9 4f fe ff ff       	jmpq   10d0be <_ZN4core3fmt9Formatter3pad17h5c7e650ddbfaa5deE+0x10e>
  10d26f:	48 8b 84 24 88 00 00 	mov    0x88(%rsp),%rax
  10d276:	00 
  10d277:	48 8b 78 30          	mov    0x30(%rax),%rdi
  10d27b:	48 8b 48 38          	mov    0x38(%rax),%rcx
  10d27f:	48 8b b4 24 50 01 00 	mov    0x150(%rsp),%rsi
  10d286:	00 
  10d287:	48 8b 94 24 58 01 00 	mov    0x158(%rsp),%rdx
  10d28e:	00 
  10d28f:	ff 51 18             	callq  *0x18(%rcx)
  10d292:	88 84 24 9e 00 00 00 	mov    %al,0x9e(%rsp)
  10d299:	8a 84 24 9e 00 00 00 	mov    0x9e(%rsp),%al
  10d2a0:	88 84 24 b0 00 00 00 	mov    %al,0xb0(%rsp)
  10d2a7:	e9 12 fe ff ff       	jmpq   10d0be <_ZN4core3fmt9Formatter3pad17h5c7e650ddbfaa5deE+0x10e>
  10d2ac:	48 8d bc 24 d8 00 00 	lea    0xd8(%rsp),%rdi
  10d2b3:	00 
  10d2b4:	48 8b 84 24 88 00 00 	mov    0x88(%rsp),%rax
  10d2bb:	00 
  10d2bc:	48 8b 48 18          	mov    0x18(%rax),%rcx
  10d2c0:	48 8b b4 24 50 01 00 	mov    0x150(%rsp),%rsi
  10d2c7:	00 
  10d2c8:	48 8b 94 24 58 01 00 	mov    0x158(%rsp),%rdx
  10d2cf:	00 
  10d2d0:	48 89 4c 24 28       	mov    %rcx,0x28(%rsp)
  10d2d5:	e8 a6 c1 ff ff       	callq  109480 <_ZN41_$LT$str$u20$as$u20$core..str..StrExt$GT$5chars17hbfda0ece79e3c932E>
  10d2da:	48 8d bc 24 d8 00 00 	lea    0xd8(%rsp),%rdi
  10d2e1:	00 
  10d2e2:	e8 69 84 ff ff       	callq  105750 <_ZN4core4iter8iterator8Iterator5count17h90b6be9b2e34bf5aE>
  10d2e7:	48 89 44 24 20       	mov    %rax,0x20(%rsp)
  10d2ec:	48 8b 44 24 20       	mov    0x20(%rsp),%rax
  10d2f1:	48 8b 4c 24 28       	mov    0x28(%rsp),%rcx
  10d2f6:	48 39 c8             	cmp    %rcx,%rax
  10d2f9:	0f 83 70 ff ff ff    	jae    10d26f <_ZN4core3fmt9Formatter3pad17h5c7e650ddbfaa5deE+0x2bf>
  10d2ff:	48 8d bc 24 c8 00 00 	lea    0xc8(%rsp),%rdi
  10d306:	00 
  10d307:	48 8b 84 24 88 00 00 	mov    0x88(%rsp),%rax
  10d30e:	00 
  10d30f:	48 8b 48 18          	mov    0x18(%rax),%rcx
  10d313:	c6 84 24 4f 01 00 00 	movb   $0x0,0x14f(%rsp)
  10d31a:	00 
  10d31b:	48 8b b4 24 50 01 00 	mov    0x150(%rsp),%rsi
  10d322:	00 
  10d323:	48 8b 94 24 58 01 00 	mov    0x158(%rsp),%rdx
  10d32a:	00 
  10d32b:	48 89 4c 24 18       	mov    %rcx,0x18(%rsp)
  10d330:	e8 4b c1 ff ff       	callq  109480 <_ZN41_$LT$str$u20$as$u20$core..str..StrExt$GT$5chars17hbfda0ece79e3c932E>
  10d335:	48 8d bc 24 c8 00 00 	lea    0xc8(%rsp),%rdi
  10d33c:	00 
  10d33d:	e8 0e 84 ff ff       	callq  105750 <_ZN4core4iter8iterator8Iterator5count17h90b6be9b2e34bf5aE>
  10d342:	48 89 44 24 10       	mov    %rax,0x10(%rsp)
  10d347:	48 8b 44 24 18       	mov    0x18(%rsp),%rax
  10d34c:	48 8b 4c 24 10       	mov    0x10(%rsp),%rcx
  10d351:	48 29 c8             	sub    %rcx,%rax
  10d354:	0f 92 c2             	setb   %dl
  10d357:	f6 c2 01             	test   $0x1,%dl
  10d35a:	48 89 44 24 08       	mov    %rax,0x8(%rsp)
  10d35f:	75 64                	jne    10d3c5 <_ZN4core3fmt9Formatter3pad17h5c7e650ddbfaa5deE+0x415>
  10d361:	8a 84 24 4f 01 00 00 	mov    0x14f(%rsp),%al
  10d368:	88 84 24 c7 00 00 00 	mov    %al,0xc7(%rsp)
  10d36f:	48 8d 8c 24 50 01 00 	lea    0x150(%rsp),%rcx
  10d376:	00 
  10d377:	48 89 8c 24 b8 00 00 	mov    %rcx,0xb8(%rsp)
  10d37e:	00 
  10d37f:	8a 84 24 c7 00 00 00 	mov    0xc7(%rsp),%al
  10d386:	48 89 8c 24 a0 00 00 	mov    %rcx,0xa0(%rsp)
  10d38d:	00 
  10d38e:	48 8b 8c 24 a0 00 00 	mov    0xa0(%rsp),%rcx
  10d395:	00 
  10d396:	48 8b bc 24 88 00 00 	mov    0x88(%rsp),%rdi
  10d39d:	00 
  10d39e:	48 8b 74 24 08       	mov    0x8(%rsp),%rsi
  10d3a3:	0f b6 d0             	movzbl %al,%edx
  10d3a6:	e8 35 00 00 00       	callq  10d3e0 <_ZN4core3fmt9Formatter12with_padding17h88b281fd0baf93b6E>
  10d3ab:	88 84 24 9f 00 00 00 	mov    %al,0x9f(%rsp)
  10d3b2:	8a 84 24 9f 00 00 00 	mov    0x9f(%rsp),%al
  10d3b9:	88 84 24 b0 00 00 00 	mov    %al,0xb0(%rsp)
  10d3c0:	e9 f9 fc ff ff       	jmpq   10d0be <_ZN4core3fmt9Formatter3pad17h5c7e650ddbfaa5deE+0x10e>
  10d3c5:	48 8d 3d 74 3b 00 00 	lea    0x3b74(%rip),%rdi        # 110f40 <panic_loc14795>
  10d3cc:	e8 bf 80 ff ff       	callq  105490 <_ZN4core9panicking5panic17h585bd70cda921012E>
  10d3d1:	66 2e 0f 1f 84 00 00 	nopw   %cs:0x0(%rax,%rax,1)
  10d3d8:	00 00 00 
  10d3db:	0f 1f 44 00 00       	nopl   0x0(%rax,%rax,1)

000000000010d3e0 <_ZN4core3fmt9Formatter12with_padding17h88b281fd0baf93b6E>:
  10d3e0:	48 81 ec 38 02 00 00 	sub    $0x238,%rsp
  10d3e7:	88 d0                	mov    %dl,%al
  10d3e9:	88 84 24 1f 02 00 00 	mov    %al,0x21f(%rsp)
  10d3f0:	48 89 8c 24 08 02 00 	mov    %rcx,0x208(%rsp)
  10d3f7:	00 
  10d3f8:	48 8b 8c 24 08 02 00 	mov    0x208(%rsp),%rcx
  10d3ff:	00 
  10d400:	48 89 8c 24 10 02 00 	mov    %rcx,0x210(%rsp)
  10d407:	00 
  10d408:	48 89 bc 24 b0 00 00 	mov    %rdi,0xb0(%rsp)
  10d40f:	00 
  10d410:	48 89 b4 24 a8 00 00 	mov    %rsi,0xa8(%rsp)
  10d417:	00 
  10d418:	c6 84 24 1f 01 00 00 	movb   $0x0,0x11f(%rsp)
  10d41f:	00 
  10d420:	8a 84 24 1f 02 00 00 	mov    0x21f(%rsp),%al
  10d427:	88 84 24 07 02 00 00 	mov    %al,0x207(%rsp)
  10d42e:	c6 84 24 1f 01 00 00 	movb   $0x1,0x11f(%rsp)
  10d435:	01 
  10d436:	48 8b 8c 24 10 02 00 	mov    0x210(%rsp),%rcx
  10d43d:	00 
  10d43e:	48 89 8c 24 f8 01 00 	mov    %rcx,0x1f8(%rsp)
  10d445:	00 
  10d446:	48 8b 8c 24 b0 00 00 	mov    0xb0(%rsp),%rcx
  10d44d:	00 
  10d44e:	8a 41 08             	mov    0x8(%rcx),%al
  10d451:	2c 03                	sub    $0x3,%al
  10d453:	88 84 24 a7 00 00 00 	mov    %al,0xa7(%rsp)
  10d45a:	74 24                	je     10d480 <_ZN4core3fmt9Formatter12with_padding17h88b281fd0baf93b6E+0xa0>
  10d45c:	eb 00                	jmp    10d45e <_ZN4core3fmt9Formatter12with_padding17h88b281fd0baf93b6E+0x7e>
  10d45e:	48 8b 84 24 b0 00 00 	mov    0xb0(%rsp),%rax
  10d465:	00 
  10d466:	8a 48 08             	mov    0x8(%rax),%cl
  10d469:	88 8c 24 a6 01 00 00 	mov    %cl,0x1a6(%rsp)
  10d470:	8a 8c 24 a6 01 00 00 	mov    0x1a6(%rsp),%cl
  10d477:	88 8c 24 f7 01 00 00 	mov    %cl,0x1f7(%rsp)
  10d47e:	eb 1c                	jmp    10d49c <_ZN4core3fmt9Formatter12with_padding17h88b281fd0baf93b6E+0xbc>
  10d480:	8a 84 24 07 02 00 00 	mov    0x207(%rsp),%al
  10d487:	88 84 24 a7 01 00 00 	mov    %al,0x1a7(%rsp)
  10d48e:	8a 84 24 a7 01 00 00 	mov    0x1a7(%rsp),%al
  10d495:	88 84 24 f7 01 00 00 	mov    %al,0x1f7(%rsp)
  10d49c:	0f b6 84 24 f7 01 00 	movzbl 0x1f7(%rsp),%eax
  10d4a3:	00 
  10d4a4:	89 c1                	mov    %eax,%ecx
  10d4a6:	48 89 ca             	mov    %rcx,%rdx
  10d4a9:	48 83 ea 03          	sub    $0x3,%rdx
  10d4ad:	48 89 8c 24 98 00 00 	mov    %rcx,0x98(%rsp)
  10d4b4:	00 
  10d4b5:	48 89 94 24 90 00 00 	mov    %rdx,0x90(%rsp)
  10d4bc:	00 
  10d4bd:	0f 87 52 04 00 00    	ja     10d915 <_ZN4core3fmt9Formatter12with_padding17h88b281fd0baf93b6E+0x535>
  10d4c3:	48 8d 05 2e 22 00 00 	lea    0x222e(%rip),%rax        # 10f6f8 <str2852+0x68>
  10d4ca:	48 8b 8c 24 98 00 00 	mov    0x98(%rsp),%rcx
  10d4d1:	00 
  10d4d2:	48 63 14 88          	movslq (%rax,%rcx,4),%rdx
  10d4d6:	48 01 c2             	add    %rax,%rdx
  10d4d9:	ff e2                	jmpq   *%rdx
  10d4db:	48 c7 84 24 90 01 00 	movq   $0x0,0x190(%rsp)
  10d4e2:	00 00 00 00 00 
  10d4e7:	48 8b 84 24 a8 00 00 	mov    0xa8(%rsp),%rax
  10d4ee:	00 
  10d4ef:	48 89 84 24 98 01 00 	mov    %rax,0x198(%rsp)
  10d4f6:	00 
  10d4f7:	eb 20                	jmp    10d519 <_ZN4core3fmt9Formatter12with_padding17h88b281fd0baf93b6E+0x139>
  10d4f9:	48 8b 84 24 a8 00 00 	mov    0xa8(%rsp),%rax
  10d500:	00 
  10d501:	48 89 84 24 90 01 00 	mov    %rax,0x190(%rsp)
  10d508:	00 
  10d509:	48 c7 84 24 98 01 00 	movq   $0x0,0x198(%rsp)
  10d510:	00 00 00 00 00 
  10d515:	eb 02                	jmp    10d519 <_ZN4core3fmt9Formatter12with_padding17h88b281fd0baf93b6E+0x139>
  10d517:	eb 3a                	jmp    10d553 <_ZN4core3fmt9Formatter12with_padding17h88b281fd0baf93b6E+0x173>
  10d519:	48 8d bc 24 e0 01 00 	lea    0x1e0(%rsp),%rdi
  10d520:	00 
  10d521:	48 8b 84 24 90 01 00 	mov    0x190(%rsp),%rax
  10d528:	00 
  10d529:	48 8b 8c 24 98 01 00 	mov    0x198(%rsp),%rcx
  10d530:	00 
  10d531:	48 8b 94 24 b0 00 00 	mov    0xb0(%rsp),%rdx
  10d538:	00 
  10d539:	8b 72 04             	mov    0x4(%rdx),%esi
  10d53c:	48 89 84 24 88 00 00 	mov    %rax,0x88(%rsp)
  10d543:	00 
  10d544:	48 89 8c 24 80 00 00 	mov    %rcx,0x80(%rsp)
  10d54b:	00 
  10d54c:	e8 bf 7c ff ff       	callq  105210 <_ZN44_$LT$char$u20$as$u20$core..char..CharExt$GT$11encode_utf817h7df4fc3325f57883E>
  10d551:	eb 53                	jmp    10d5a6 <_ZN4core3fmt9Formatter12with_padding17h88b281fd0baf93b6E+0x1c6>
  10d553:	48 8b 84 24 a8 00 00 	mov    0xa8(%rsp),%rax
  10d55a:	00 
  10d55b:	48 c1 e8 01          	shr    $0x1,%rax
  10d55f:	48 8b 8c 24 a8 00 00 	mov    0xa8(%rsp),%rcx
  10d566:	00 
  10d567:	48 83 c1 01          	add    $0x1,%rcx
  10d56b:	0f 92 c2             	setb   %dl
  10d56e:	f6 c2 01             	test   $0x1,%dl
  10d571:	48 89 44 24 78       	mov    %rax,0x78(%rsp)
  10d576:	48 89 4c 24 70       	mov    %rcx,0x70(%rsp)
  10d57b:	0f 85 94 03 00 00    	jne    10d915 <_ZN4core3fmt9Formatter12with_padding17h88b281fd0baf93b6E+0x535>
  10d581:	eb 00                	jmp    10d583 <_ZN4core3fmt9Formatter12with_padding17h88b281fd0baf93b6E+0x1a3>
  10d583:	48 8b 44 24 70       	mov    0x70(%rsp),%rax
  10d588:	48 c1 e8 01          	shr    $0x1,%rax
  10d58c:	48 8b 4c 24 78       	mov    0x78(%rsp),%rcx
  10d591:	48 89 8c 24 90 01 00 	mov    %rcx,0x190(%rsp)
  10d598:	00 
  10d599:	48 89 84 24 98 01 00 	mov    %rax,0x198(%rsp)
  10d5a0:	00 
  10d5a1:	e9 73 ff ff ff       	jmpq   10d519 <_ZN4core3fmt9Formatter12with_padding17h88b281fd0baf93b6E+0x139>
  10d5a6:	48 8d bc 24 e0 01 00 	lea    0x1e0(%rsp),%rdi
  10d5ad:	00 
  10d5ae:	e8 8d 7e ff ff       	callq  105440 <_ZN4core4char10EncodeUtf88as_slice17h087b7807397e0642E>
  10d5b3:	48 89 44 24 68       	mov    %rax,0x68(%rsp)
  10d5b8:	48 89 54 24 60       	mov    %rdx,0x60(%rsp)
  10d5bd:	48 8b 44 24 68       	mov    0x68(%rsp),%rax
  10d5c2:	48 89 84 24 28 02 00 	mov    %rax,0x228(%rsp)
  10d5c9:	00 
  10d5ca:	48 8b 4c 24 60       	mov    0x60(%rsp),%rcx
  10d5cf:	48 89 8c 24 30 02 00 	mov    %rcx,0x230(%rsp)
  10d5d6:	00 
  10d5d7:	48 8b 94 24 28 02 00 	mov    0x228(%rsp),%rdx
  10d5de:	00 
  10d5df:	48 89 4c 24 58       	mov    %rcx,0x58(%rsp)
  10d5e4:	48 89 54 24 50       	mov    %rdx,0x50(%rsp)
  10d5e9:	48 8d bc 24 08 01 00 	lea    0x108(%rsp),%rdi
  10d5f0:	00 
  10d5f1:	48 8d b4 24 f8 00 00 	lea    0xf8(%rsp),%rsi
  10d5f8:	00 
  10d5f9:	48 c7 84 24 80 01 00 	movq   $0x0,0x180(%rsp)
  10d600:	00 00 00 00 00 
  10d605:	48 8b 84 24 88 00 00 	mov    0x88(%rsp),%rax
  10d60c:	00 
  10d60d:	48 89 84 24 88 01 00 	mov    %rax,0x188(%rsp)
  10d614:	00 
  10d615:	48 8b 8c 24 80 01 00 	mov    0x180(%rsp),%rcx
  10d61c:	00 
  10d61d:	48 8b 94 24 88 01 00 	mov    0x188(%rsp),%rdx
  10d624:	00 
  10d625:	48 89 8c 24 f8 00 00 	mov    %rcx,0xf8(%rsp)
  10d62c:	00 
  10d62d:	48 89 94 24 00 01 00 	mov    %rdx,0x100(%rsp)
  10d634:	00 
  10d635:	e8 06 88 ff ff       	callq  105e40 <_ZN54_$LT$I$u20$as$u20$core..iter..traits..IntoIterator$GT$9into_iter17h593a8b7b125c6a4eE>
  10d63a:	48 8b 84 24 08 01 00 	mov    0x108(%rsp),%rax
  10d641:	00 
  10d642:	48 8b 8c 24 10 01 00 	mov    0x110(%rsp),%rcx
  10d649:	00 
  10d64a:	48 89 44 24 48       	mov    %rax,0x48(%rsp)
  10d64f:	48 89 4c 24 40       	mov    %rcx,0x40(%rsp)
  10d654:	48 8b 44 24 48       	mov    0x48(%rsp),%rax
  10d659:	48 89 84 24 c8 01 00 	mov    %rax,0x1c8(%rsp)
  10d660:	00 
  10d661:	48 8b 4c 24 40       	mov    0x40(%rsp),%rcx
  10d666:	48 89 8c 24 d0 01 00 	mov    %rcx,0x1d0(%rsp)
  10d66d:	00 
  10d66e:	48 8d bc 24 70 01 00 	lea    0x170(%rsp),%rdi
  10d675:	00 
  10d676:	48 8d b4 24 c8 01 00 	lea    0x1c8(%rsp),%rsi
  10d67d:	00 
  10d67e:	e8 8d 86 ff ff       	callq  105d10 <_ZN4core4iter5range86_$LT$impl$u20$core..iter..iterator..Iterator$u20$for$u20$core..ops..Range$LT$A$GT$$GT$4next17h05ed5ee39168d888E>
  10d683:	eb 62                	jmp    10d6e7 <_ZN4core3fmt9Formatter12with_padding17h88b281fd0baf93b6E+0x307>
  10d685:	c6 84 24 1f 01 00 00 	movb   $0x0,0x11f(%rsp)
  10d68c:	00 
  10d68d:	48 8b 84 24 f8 01 00 	mov    0x1f8(%rsp),%rax
  10d694:	00 
  10d695:	48 89 84 24 58 01 00 	mov    %rax,0x158(%rsp)
  10d69c:	00 
  10d69d:	48 8b 84 24 b0 00 00 	mov    0xb0(%rsp),%rax
  10d6a4:	00 
  10d6a5:	48 89 84 24 50 01 00 	mov    %rax,0x150(%rsp)
  10d6ac:	00 
  10d6ad:	48 8b 8c 24 58 01 00 	mov    0x158(%rsp),%rcx
  10d6b4:	00 
  10d6b5:	48 89 8c 24 e8 00 00 	mov    %rcx,0xe8(%rsp)
  10d6bc:	00 
  10d6bd:	48 8b b4 24 50 01 00 	mov    0x150(%rsp),%rsi
  10d6c4:	00 
  10d6c5:	48 89 cf             	mov    %rcx,%rdi
  10d6c8:	e8 63 1b 00 00       	callq  10f230 <_ZN4core3fmt9Formatter3pad28_$u7b$$u7b$closure$u7d$$u7d$17h1999afa8ab84d6dbE>
  10d6cd:	88 84 24 e7 00 00 00 	mov    %al,0xe7(%rsp)
  10d6d4:	8a 84 24 e7 00 00 00 	mov    0xe7(%rsp),%al
  10d6db:	88 84 24 60 01 00 00 	mov    %al,0x160(%rsp)
  10d6e2:	e9 a4 00 00 00       	jmpq   10d78b <_ZN4core3fmt9Formatter12with_padding17h88b281fd0baf93b6E+0x3ab>
  10d6e7:	48 8b 84 24 70 01 00 	mov    0x170(%rsp),%rax
  10d6ee:	00 
  10d6ef:	48 85 c0             	test   %rax,%rax
  10d6f2:	48 89 44 24 38       	mov    %rax,0x38(%rsp)
  10d6f7:	74 8c                	je     10d685 <_ZN4core3fmt9Formatter12with_padding17h88b281fd0baf93b6E+0x2a5>
  10d6f9:	eb 00                	jmp    10d6fb <_ZN4core3fmt9Formatter12with_padding17h88b281fd0baf93b6E+0x31b>
  10d6fb:	48 8b 44 24 38       	mov    0x38(%rsp),%rax
  10d700:	48 83 e8 01          	sub    $0x1,%rax
  10d704:	48 89 44 24 30       	mov    %rax,0x30(%rsp)
  10d709:	0f 85 06 02 00 00    	jne    10d915 <_ZN4core3fmt9Formatter12with_padding17h88b281fd0baf93b6E+0x535>
  10d70f:	eb 00                	jmp    10d711 <_ZN4core3fmt9Formatter12with_padding17h88b281fd0baf93b6E+0x331>
  10d711:	48 8b 84 24 b0 00 00 	mov    0xb0(%rsp),%rax
  10d718:	00 
  10d719:	48 8b 78 30          	mov    0x30(%rax),%rdi
  10d71d:	48 8b 48 38          	mov    0x38(%rax),%rcx
  10d721:	48 8b 74 24 50       	mov    0x50(%rsp),%rsi
  10d726:	48 8b 54 24 58       	mov    0x58(%rsp),%rdx
  10d72b:	ff 51 18             	callq  *0x18(%rcx)
  10d72e:	88 84 24 f7 00 00 00 	mov    %al,0xf7(%rsp)
  10d735:	8a 84 24 f7 00 00 00 	mov    0xf7(%rsp),%al
  10d73c:	88 84 24 68 01 00 00 	mov    %al,0x168(%rsp)
  10d743:	8a 84 24 68 01 00 00 	mov    0x168(%rsp),%al
  10d74a:	84 c0                	test   %al,%al
  10d74c:	88 44 24 2f          	mov    %al,0x2f(%rsp)
  10d750:	74 13                	je     10d765 <_ZN4core3fmt9Formatter12with_padding17h88b281fd0baf93b6E+0x385>
  10d752:	eb 00                	jmp    10d754 <_ZN4core3fmt9Formatter12with_padding17h88b281fd0baf93b6E+0x374>
  10d754:	8a 44 24 2f          	mov    0x2f(%rsp),%al
  10d758:	2c 01                	sub    $0x1,%al
  10d75a:	88 44 24 2e          	mov    %al,0x2e(%rsp)
  10d75e:	74 0a                	je     10d76a <_ZN4core3fmt9Formatter12with_padding17h88b281fd0baf93b6E+0x38a>
  10d760:	e9 b0 01 00 00       	jmpq   10d915 <_ZN4core3fmt9Formatter12with_padding17h88b281fd0baf93b6E+0x535>
  10d765:	e9 04 ff ff ff       	jmpq   10d66e <_ZN4core3fmt9Formatter12with_padding17h88b281fd0baf93b6E+0x28e>
  10d76a:	e8 71 7a ff ff       	callq  1051e0 <_ZN50_$LT$T$u20$as$u20$core..convert..From$LT$T$GT$$GT$4from17hde9d3f996ad54071E>
  10d76f:	c6 84 24 18 01 00 00 	movb   $0x1,0x118(%rsp)
  10d776:	01 
  10d777:	e9 8a 01 00 00       	jmpq   10d906 <_ZN4core3fmt9Formatter12with_padding17h88b281fd0baf93b6E+0x526>
  10d77c:	8a 84 24 18 01 00 00 	mov    0x118(%rsp),%al
  10d783:	48 81 c4 38 02 00 00 	add    $0x238,%rsp
  10d78a:	c3                   	retq   
  10d78b:	8a 84 24 60 01 00 00 	mov    0x160(%rsp),%al
  10d792:	84 c0                	test   %al,%al
  10d794:	88 44 24 2d          	mov    %al,0x2d(%rsp)
  10d798:	74 13                	je     10d7ad <_ZN4core3fmt9Formatter12with_padding17h88b281fd0baf93b6E+0x3cd>
  10d79a:	eb 00                	jmp    10d79c <_ZN4core3fmt9Formatter12with_padding17h88b281fd0baf93b6E+0x3bc>
  10d79c:	8a 44 24 2d          	mov    0x2d(%rsp),%al
  10d7a0:	2c 01                	sub    $0x1,%al
  10d7a2:	88 44 24 2c          	mov    %al,0x2c(%rsp)
  10d7a6:	74 72                	je     10d81a <_ZN4core3fmt9Formatter12with_padding17h88b281fd0baf93b6E+0x43a>
  10d7a8:	e9 68 01 00 00       	jmpq   10d915 <_ZN4core3fmt9Formatter12with_padding17h88b281fd0baf93b6E+0x535>
  10d7ad:	48 8d bc 24 d0 00 00 	lea    0xd0(%rsp),%rdi
  10d7b4:	00 
  10d7b5:	48 8d b4 24 c0 00 00 	lea    0xc0(%rsp),%rsi
  10d7bc:	00 
  10d7bd:	48 c7 84 24 40 01 00 	movq   $0x0,0x140(%rsp)
  10d7c4:	00 00 00 00 00 
  10d7c9:	48 8b 84 24 80 00 00 	mov    0x80(%rsp),%rax
  10d7d0:	00 
  10d7d1:	48 89 84 24 48 01 00 	mov    %rax,0x148(%rsp)
  10d7d8:	00 
  10d7d9:	48 8b 8c 24 40 01 00 	mov    0x140(%rsp),%rcx
  10d7e0:	00 
  10d7e1:	48 8b 94 24 48 01 00 	mov    0x148(%rsp),%rdx
  10d7e8:	00 
  10d7e9:	48 89 8c 24 c0 00 00 	mov    %rcx,0xc0(%rsp)
  10d7f0:	00 
  10d7f1:	48 89 94 24 c8 00 00 	mov    %rdx,0xc8(%rsp)
  10d7f8:	00 
  10d7f9:	e8 42 86 ff ff       	callq  105e40 <_ZN54_$LT$I$u20$as$u20$core..iter..traits..IntoIterator$GT$9into_iter17h593a8b7b125c6a4eE>
  10d7fe:	48 8b 84 24 d0 00 00 	mov    0xd0(%rsp),%rax
  10d805:	00 
  10d806:	48 8b 8c 24 d8 00 00 	mov    0xd8(%rsp),%rcx
  10d80d:	00 
  10d80e:	48 89 44 24 20       	mov    %rax,0x20(%rsp)
  10d813:	48 89 4c 24 18       	mov    %rcx,0x18(%rsp)
  10d818:	eb 12                	jmp    10d82c <_ZN4core3fmt9Formatter12with_padding17h88b281fd0baf93b6E+0x44c>
  10d81a:	e8 c1 79 ff ff       	callq  1051e0 <_ZN50_$LT$T$u20$as$u20$core..convert..From$LT$T$GT$$GT$4from17hde9d3f996ad54071E>
  10d81f:	c6 84 24 18 01 00 00 	movb   $0x1,0x118(%rsp)
  10d826:	01 
  10d827:	e9 da 00 00 00       	jmpq   10d906 <_ZN4core3fmt9Formatter12with_padding17h88b281fd0baf93b6E+0x526>
  10d82c:	48 8b 44 24 20       	mov    0x20(%rsp),%rax
  10d831:	48 89 84 24 b0 01 00 	mov    %rax,0x1b0(%rsp)
  10d838:	00 
  10d839:	48 8b 4c 24 18       	mov    0x18(%rsp),%rcx
  10d83e:	48 89 8c 24 b8 01 00 	mov    %rcx,0x1b8(%rsp)
  10d845:	00 
  10d846:	48 8d bc 24 30 01 00 	lea    0x130(%rsp),%rdi
  10d84d:	00 
  10d84e:	48 8d b4 24 b0 01 00 	lea    0x1b0(%rsp),%rsi
  10d855:	00 
  10d856:	e8 b5 84 ff ff       	callq  105d10 <_ZN4core4iter5range86_$LT$impl$u20$core..iter..iterator..Iterator$u20$for$u20$core..ops..Range$LT$A$GT$$GT$4next17h05ed5ee39168d888E>
  10d85b:	eb 0d                	jmp    10d86a <_ZN4core3fmt9Formatter12with_padding17h88b281fd0baf93b6E+0x48a>
  10d85d:	c6 84 24 18 01 00 00 	movb   $0x0,0x118(%rsp)
  10d864:	00 
  10d865:	e9 12 ff ff ff       	jmpq   10d77c <_ZN4core3fmt9Formatter12with_padding17h88b281fd0baf93b6E+0x39c>
  10d86a:	48 8b 84 24 30 01 00 	mov    0x130(%rsp),%rax
  10d871:	00 
  10d872:	48 85 c0             	test   %rax,%rax
  10d875:	48 89 44 24 10       	mov    %rax,0x10(%rsp)
  10d87a:	74 e1                	je     10d85d <_ZN4core3fmt9Formatter12with_padding17h88b281fd0baf93b6E+0x47d>
  10d87c:	eb 00                	jmp    10d87e <_ZN4core3fmt9Formatter12with_padding17h88b281fd0baf93b6E+0x49e>
  10d87e:	48 8b 44 24 10       	mov    0x10(%rsp),%rax
  10d883:	48 83 e8 01          	sub    $0x1,%rax
  10d887:	48 89 44 24 08       	mov    %rax,0x8(%rsp)
  10d88c:	0f 85 83 00 00 00    	jne    10d915 <_ZN4core3fmt9Formatter12with_padding17h88b281fd0baf93b6E+0x535>
  10d892:	eb 00                	jmp    10d894 <_ZN4core3fmt9Formatter12with_padding17h88b281fd0baf93b6E+0x4b4>
  10d894:	48 8b 84 24 b0 00 00 	mov    0xb0(%rsp),%rax
  10d89b:	00 
  10d89c:	48 8b 78 30          	mov    0x30(%rax),%rdi
  10d8a0:	48 8b 48 38          	mov    0x38(%rax),%rcx
  10d8a4:	48 8b 74 24 50       	mov    0x50(%rsp),%rsi
  10d8a9:	48 8b 54 24 58       	mov    0x58(%rsp),%rdx
  10d8ae:	ff 51 18             	callq  *0x18(%rcx)
  10d8b1:	88 84 24 bf 00 00 00 	mov    %al,0xbf(%rsp)
  10d8b8:	8a 84 24 bf 00 00 00 	mov    0xbf(%rsp),%al
  10d8bf:	88 84 24 28 01 00 00 	mov    %al,0x128(%rsp)
  10d8c6:	8a 84 24 28 01 00 00 	mov    0x128(%rsp),%al
  10d8cd:	84 c0                	test   %al,%al
  10d8cf:	88 44 24 07          	mov    %al,0x7(%rsp)
  10d8d3:	74 10                	je     10d8e5 <_ZN4core3fmt9Formatter12with_padding17h88b281fd0baf93b6E+0x505>
  10d8d5:	eb 00                	jmp    10d8d7 <_ZN4core3fmt9Formatter12with_padding17h88b281fd0baf93b6E+0x4f7>
  10d8d7:	8a 44 24 07          	mov    0x7(%rsp),%al
  10d8db:	2c 01                	sub    $0x1,%al
  10d8dd:	88 44 24 06          	mov    %al,0x6(%rsp)
  10d8e1:	74 07                	je     10d8ea <_ZN4core3fmt9Formatter12with_padding17h88b281fd0baf93b6E+0x50a>
  10d8e3:	eb 30                	jmp    10d915 <_ZN4core3fmt9Formatter12with_padding17h88b281fd0baf93b6E+0x535>
  10d8e5:	e9 5c ff ff ff       	jmpq   10d846 <_ZN4core3fmt9Formatter12with_padding17h88b281fd0baf93b6E+0x466>
  10d8ea:	e8 f1 78 ff ff       	callq  1051e0 <_ZN50_$LT$T$u20$as$u20$core..convert..From$LT$T$GT$$GT$4from17hde9d3f996ad54071E>
  10d8ef:	c6 84 24 18 01 00 00 	movb   $0x1,0x118(%rsp)
  10d8f6:	01 
  10d8f7:	eb 0d                	jmp    10d906 <_ZN4core3fmt9Formatter12with_padding17h88b281fd0baf93b6E+0x526>
  10d8f9:	c6 84 24 1f 01 00 00 	movb   $0x0,0x11f(%rsp)
  10d900:	00 
  10d901:	e9 76 fe ff ff       	jmpq   10d77c <_ZN4core3fmt9Formatter12with_padding17h88b281fd0baf93b6E+0x39c>
  10d906:	f6 84 24 1f 01 00 00 	testb  $0x1,0x11f(%rsp)
  10d90d:	01 
  10d90e:	75 e9                	jne    10d8f9 <_ZN4core3fmt9Formatter12with_padding17h88b281fd0baf93b6E+0x519>
  10d910:	e9 67 fe ff ff       	jmpq   10d77c <_ZN4core3fmt9Formatter12with_padding17h88b281fd0baf93b6E+0x39c>
  10d915:	48 8d 3d 4c 36 00 00 	lea    0x364c(%rip),%rdi        # 110f68 <panic_loc14796>
  10d91c:	e8 6f 7b ff ff       	callq  105490 <_ZN4core9panicking5panic17h585bd70cda921012E>
  10d921:	66 2e 0f 1f 84 00 00 	nopw   %cs:0x0(%rax,%rax,1)
  10d928:	00 00 00 
  10d92b:	0f 1f 44 00 00       	nopl   0x0(%rax,%rax,1)

000000000010d930 <_ZN4core3fmt9Formatter12with_padding17h90e9e2dbad5ce5daE>:
  10d930:	48 81 ec 28 02 00 00 	sub    $0x228,%rsp
  10d937:	88 d0                	mov    %dl,%al
  10d939:	88 84 24 0f 02 00 00 	mov    %al,0x20f(%rsp)
  10d940:	48 89 bc 24 c8 00 00 	mov    %rdi,0xc8(%rsp)
  10d947:	00 
  10d948:	48 89 b4 24 c0 00 00 	mov    %rsi,0xc0(%rsp)
  10d94f:	00 
  10d950:	48 89 8c 24 b8 00 00 	mov    %rcx,0xb8(%rsp)
  10d957:	00 
  10d958:	c6 84 24 3f 01 00 00 	movb   $0x0,0x13f(%rsp)
  10d95f:	00 
  10d960:	8a 84 24 0f 02 00 00 	mov    0x20f(%rsp),%al
  10d967:	88 84 24 0e 02 00 00 	mov    %al,0x20e(%rsp)
  10d96e:	c6 84 24 3f 01 00 00 	movb   $0x1,0x13f(%rsp)
  10d975:	01 
  10d976:	48 8b 8c 24 b8 00 00 	mov    0xb8(%rsp),%rcx
  10d97d:	00 
  10d97e:	48 8b 11             	mov    (%rcx),%rdx
  10d981:	48 8b 71 08          	mov    0x8(%rcx),%rsi
  10d985:	48 8b bc 24 c8 00 00 	mov    0xc8(%rsp),%rdi
  10d98c:	00 
  10d98d:	8a 47 08             	mov    0x8(%rdi),%al
  10d990:	2c 03                	sub    $0x3,%al
  10d992:	48 89 94 24 b0 00 00 	mov    %rdx,0xb0(%rsp)
  10d999:	00 
  10d99a:	48 89 b4 24 a8 00 00 	mov    %rsi,0xa8(%rsp)
  10d9a1:	00 
  10d9a2:	88 84 24 a7 00 00 00 	mov    %al,0xa7(%rsp)
  10d9a9:	74 24                	je     10d9cf <_ZN4core3fmt9Formatter12with_padding17h90e9e2dbad5ce5daE+0x9f>
  10d9ab:	eb 00                	jmp    10d9ad <_ZN4core3fmt9Formatter12with_padding17h90e9e2dbad5ce5daE+0x7d>
  10d9ad:	48 8b 84 24 c8 00 00 	mov    0xc8(%rsp),%rax
  10d9b4:	00 
  10d9b5:	8a 48 08             	mov    0x8(%rax),%cl
  10d9b8:	88 8c 24 be 01 00 00 	mov    %cl,0x1be(%rsp)
  10d9bf:	8a 8c 24 be 01 00 00 	mov    0x1be(%rsp),%cl
  10d9c6:	88 8c 24 0d 02 00 00 	mov    %cl,0x20d(%rsp)
  10d9cd:	eb 1c                	jmp    10d9eb <_ZN4core3fmt9Formatter12with_padding17h90e9e2dbad5ce5daE+0xbb>
  10d9cf:	8a 84 24 0e 02 00 00 	mov    0x20e(%rsp),%al
  10d9d6:	88 84 24 bf 01 00 00 	mov    %al,0x1bf(%rsp)
  10d9dd:	8a 84 24 bf 01 00 00 	mov    0x1bf(%rsp),%al
  10d9e4:	88 84 24 0d 02 00 00 	mov    %al,0x20d(%rsp)
  10d9eb:	0f b6 84 24 0d 02 00 	movzbl 0x20d(%rsp),%eax
  10d9f2:	00 
  10d9f3:	89 c1                	mov    %eax,%ecx
  10d9f5:	48 89 ca             	mov    %rcx,%rdx
  10d9f8:	48 83 ea 03          	sub    $0x3,%rdx
  10d9fc:	48 89 8c 24 98 00 00 	mov    %rcx,0x98(%rsp)
  10da03:	00 
  10da04:	48 89 94 24 90 00 00 	mov    %rdx,0x90(%rsp)
  10da0b:	00 
  10da0c:	0f 87 57 04 00 00    	ja     10de69 <_ZN4core3fmt9Formatter12with_padding17h90e9e2dbad5ce5daE+0x539>
  10da12:	48 8d 05 ef 1c 00 00 	lea    0x1cef(%rip),%rax        # 10f708 <str2852+0x78>
  10da19:	48 8b 8c 24 98 00 00 	mov    0x98(%rsp),%rcx
  10da20:	00 
  10da21:	48 63 14 88          	movslq (%rax,%rcx,4),%rdx
  10da25:	48 01 c2             	add    %rax,%rdx
  10da28:	ff e2                	jmpq   *%rdx
  10da2a:	48 c7 84 24 a8 01 00 	movq   $0x0,0x1a8(%rsp)
  10da31:	00 00 00 00 00 
  10da36:	48 8b 84 24 c0 00 00 	mov    0xc0(%rsp),%rax
  10da3d:	00 
  10da3e:	48 89 84 24 b0 01 00 	mov    %rax,0x1b0(%rsp)
  10da45:	00 
  10da46:	eb 20                	jmp    10da68 <_ZN4core3fmt9Formatter12with_padding17h90e9e2dbad5ce5daE+0x138>
  10da48:	48 8b 84 24 c0 00 00 	mov    0xc0(%rsp),%rax
  10da4f:	00 
  10da50:	48 89 84 24 a8 01 00 	mov    %rax,0x1a8(%rsp)
  10da57:	00 
  10da58:	48 c7 84 24 b0 01 00 	movq   $0x0,0x1b0(%rsp)
  10da5f:	00 00 00 00 00 
  10da64:	eb 02                	jmp    10da68 <_ZN4core3fmt9Formatter12with_padding17h90e9e2dbad5ce5daE+0x138>
  10da66:	eb 3a                	jmp    10daa2 <_ZN4core3fmt9Formatter12with_padding17h90e9e2dbad5ce5daE+0x172>
  10da68:	48 8d bc 24 f8 01 00 	lea    0x1f8(%rsp),%rdi
  10da6f:	00 
  10da70:	48 8b 84 24 a8 01 00 	mov    0x1a8(%rsp),%rax
  10da77:	00 
  10da78:	48 8b 8c 24 b0 01 00 	mov    0x1b0(%rsp),%rcx
  10da7f:	00 
  10da80:	48 8b 94 24 c8 00 00 	mov    0xc8(%rsp),%rdx
  10da87:	00 
  10da88:	8b 72 04             	mov    0x4(%rdx),%esi
  10da8b:	48 89 84 24 88 00 00 	mov    %rax,0x88(%rsp)
  10da92:	00 
  10da93:	48 89 8c 24 80 00 00 	mov    %rcx,0x80(%rsp)
  10da9a:	00 
  10da9b:	e8 70 77 ff ff       	callq  105210 <_ZN44_$LT$char$u20$as$u20$core..char..CharExt$GT$11encode_utf817h7df4fc3325f57883E>
  10daa0:	eb 53                	jmp    10daf5 <_ZN4core3fmt9Formatter12with_padding17h90e9e2dbad5ce5daE+0x1c5>
  10daa2:	48 8b 84 24 c0 00 00 	mov    0xc0(%rsp),%rax
  10daa9:	00 
  10daaa:	48 c1 e8 01          	shr    $0x1,%rax
  10daae:	48 8b 8c 24 c0 00 00 	mov    0xc0(%rsp),%rcx
  10dab5:	00 
  10dab6:	48 83 c1 01          	add    $0x1,%rcx
  10daba:	0f 92 c2             	setb   %dl
  10dabd:	f6 c2 01             	test   $0x1,%dl
  10dac0:	48 89 44 24 78       	mov    %rax,0x78(%rsp)
  10dac5:	48 89 4c 24 70       	mov    %rcx,0x70(%rsp)
  10daca:	0f 85 99 03 00 00    	jne    10de69 <_ZN4core3fmt9Formatter12with_padding17h90e9e2dbad5ce5daE+0x539>
  10dad0:	eb 00                	jmp    10dad2 <_ZN4core3fmt9Formatter12with_padding17h90e9e2dbad5ce5daE+0x1a2>
  10dad2:	48 8b 44 24 70       	mov    0x70(%rsp),%rax
  10dad7:	48 c1 e8 01          	shr    $0x1,%rax
  10dadb:	48 8b 4c 24 78       	mov    0x78(%rsp),%rcx
  10dae0:	48 89 8c 24 a8 01 00 	mov    %rcx,0x1a8(%rsp)
  10dae7:	00 
  10dae8:	48 89 84 24 b0 01 00 	mov    %rax,0x1b0(%rsp)
  10daef:	00 
  10daf0:	e9 73 ff ff ff       	jmpq   10da68 <_ZN4core3fmt9Formatter12with_padding17h90e9e2dbad5ce5daE+0x138>
  10daf5:	48 8d bc 24 f8 01 00 	lea    0x1f8(%rsp),%rdi
  10dafc:	00 
  10dafd:	e8 3e 79 ff ff       	callq  105440 <_ZN4core4char10EncodeUtf88as_slice17h087b7807397e0642E>
  10db02:	48 89 44 24 68       	mov    %rax,0x68(%rsp)
  10db07:	48 89 54 24 60       	mov    %rdx,0x60(%rsp)
  10db0c:	48 8b 44 24 68       	mov    0x68(%rsp),%rax
  10db11:	48 89 84 24 18 02 00 	mov    %rax,0x218(%rsp)
  10db18:	00 
  10db19:	48 8b 4c 24 60       	mov    0x60(%rsp),%rcx
  10db1e:	48 89 8c 24 20 02 00 	mov    %rcx,0x220(%rsp)
  10db25:	00 
  10db26:	48 8b 94 24 18 02 00 	mov    0x218(%rsp),%rdx
  10db2d:	00 
  10db2e:	48 89 4c 24 58       	mov    %rcx,0x58(%rsp)
  10db33:	48 89 54 24 50       	mov    %rdx,0x50(%rsp)
  10db38:	48 8d bc 24 28 01 00 	lea    0x128(%rsp),%rdi
  10db3f:	00 
  10db40:	48 8d b4 24 18 01 00 	lea    0x118(%rsp),%rsi
  10db47:	00 
  10db48:	48 c7 84 24 98 01 00 	movq   $0x0,0x198(%rsp)
  10db4f:	00 00 00 00 00 
  10db54:	48 8b 84 24 88 00 00 	mov    0x88(%rsp),%rax
  10db5b:	00 
  10db5c:	48 89 84 24 a0 01 00 	mov    %rax,0x1a0(%rsp)
  10db63:	00 
  10db64:	48 8b 8c 24 98 01 00 	mov    0x198(%rsp),%rcx
  10db6b:	00 
  10db6c:	48 8b 94 24 a0 01 00 	mov    0x1a0(%rsp),%rdx
  10db73:	00 
  10db74:	48 89 8c 24 18 01 00 	mov    %rcx,0x118(%rsp)
  10db7b:	00 
  10db7c:	48 89 94 24 20 01 00 	mov    %rdx,0x120(%rsp)
  10db83:	00 
  10db84:	e8 b7 82 ff ff       	callq  105e40 <_ZN54_$LT$I$u20$as$u20$core..iter..traits..IntoIterator$GT$9into_iter17h593a8b7b125c6a4eE>
  10db89:	48 8b 84 24 28 01 00 	mov    0x128(%rsp),%rax
  10db90:	00 
  10db91:	48 8b 8c 24 30 01 00 	mov    0x130(%rsp),%rcx
  10db98:	00 
  10db99:	48 89 44 24 48       	mov    %rax,0x48(%rsp)
  10db9e:	48 89 4c 24 40       	mov    %rcx,0x40(%rsp)
  10dba3:	48 8b 44 24 48       	mov    0x48(%rsp),%rax
  10dba8:	48 89 84 24 e0 01 00 	mov    %rax,0x1e0(%rsp)
  10dbaf:	00 
  10dbb0:	48 8b 4c 24 40       	mov    0x40(%rsp),%rcx
  10dbb5:	48 89 8c 24 e8 01 00 	mov    %rcx,0x1e8(%rsp)
  10dbbc:	00 
  10dbbd:	48 8d bc 24 88 01 00 	lea    0x188(%rsp),%rdi
  10dbc4:	00 
  10dbc5:	48 8d b4 24 e0 01 00 	lea    0x1e0(%rsp),%rsi
  10dbcc:	00 
  10dbcd:	e8 3e 81 ff ff       	callq  105d10 <_ZN4core4iter5range86_$LT$impl$u20$core..iter..iterator..Iterator$u20$for$u20$core..ops..Range$LT$A$GT$$GT$4next17h05ed5ee39168d888E>
  10dbd2:	eb 67                	jmp    10dc3b <_ZN4core3fmt9Formatter12with_padding17h90e9e2dbad5ce5daE+0x30b>
  10dbd4:	48 8d bc 24 00 01 00 	lea    0x100(%rsp),%rdi
  10dbdb:	00 
  10dbdc:	c6 84 24 3f 01 00 00 	movb   $0x0,0x13f(%rsp)
  10dbe3:	00 
  10dbe4:	48 8b 84 24 c8 00 00 	mov    0xc8(%rsp),%rax
  10dbeb:	00 
  10dbec:	48 89 84 24 70 01 00 	mov    %rax,0x170(%rsp)
  10dbf3:	00 
  10dbf4:	48 8b 8c 24 b0 00 00 	mov    0xb0(%rsp),%rcx
  10dbfb:	00 
  10dbfc:	48 89 8c 24 00 01 00 	mov    %rcx,0x100(%rsp)
  10dc03:	00 
  10dc04:	48 8b 94 24 a8 00 00 	mov    0xa8(%rsp),%rdx
  10dc0b:	00 
  10dc0c:	48 89 94 24 08 01 00 	mov    %rdx,0x108(%rsp)
  10dc13:	00 
  10dc14:	48 8b b4 24 70 01 00 	mov    0x170(%rsp),%rsi
  10dc1b:	00 
  10dc1c:	e8 1f 15 00 00       	callq  10f140 <_ZN4core3fmt9Formatter12pad_integral28_$u7b$$u7b$closure$u7d$$u7d$17h26cad4afcf366cd1E>
  10dc21:	88 84 24 ff 00 00 00 	mov    %al,0xff(%rsp)
  10dc28:	8a 84 24 ff 00 00 00 	mov    0xff(%rsp),%al
  10dc2f:	88 84 24 78 01 00 00 	mov    %al,0x178(%rsp)
  10dc36:	e9 a4 00 00 00       	jmpq   10dcdf <_ZN4core3fmt9Formatter12with_padding17h90e9e2dbad5ce5daE+0x3af>
  10dc3b:	48 8b 84 24 88 01 00 	mov    0x188(%rsp),%rax
  10dc42:	00 
  10dc43:	48 85 c0             	test   %rax,%rax
  10dc46:	48 89 44 24 38       	mov    %rax,0x38(%rsp)
  10dc4b:	74 87                	je     10dbd4 <_ZN4core3fmt9Formatter12with_padding17h90e9e2dbad5ce5daE+0x2a4>
  10dc4d:	eb 00                	jmp    10dc4f <_ZN4core3fmt9Formatter12with_padding17h90e9e2dbad5ce5daE+0x31f>
  10dc4f:	48 8b 44 24 38       	mov    0x38(%rsp),%rax
  10dc54:	48 83 e8 01          	sub    $0x1,%rax
  10dc58:	48 89 44 24 30       	mov    %rax,0x30(%rsp)
  10dc5d:	0f 85 06 02 00 00    	jne    10de69 <_ZN4core3fmt9Formatter12with_padding17h90e9e2dbad5ce5daE+0x539>
  10dc63:	eb 00                	jmp    10dc65 <_ZN4core3fmt9Formatter12with_padding17h90e9e2dbad5ce5daE+0x335>
  10dc65:	48 8b 84 24 c8 00 00 	mov    0xc8(%rsp),%rax
  10dc6c:	00 
  10dc6d:	48 8b 78 30          	mov    0x30(%rax),%rdi
  10dc71:	48 8b 48 38          	mov    0x38(%rax),%rcx
  10dc75:	48 8b 74 24 50       	mov    0x50(%rsp),%rsi
  10dc7a:	48 8b 54 24 58       	mov    0x58(%rsp),%rdx
  10dc7f:	ff 51 18             	callq  *0x18(%rcx)
  10dc82:	88 84 24 17 01 00 00 	mov    %al,0x117(%rsp)
  10dc89:	8a 84 24 17 01 00 00 	mov    0x117(%rsp),%al
  10dc90:	88 84 24 80 01 00 00 	mov    %al,0x180(%rsp)
  10dc97:	8a 84 24 80 01 00 00 	mov    0x180(%rsp),%al
  10dc9e:	84 c0                	test   %al,%al
  10dca0:	88 44 24 2f          	mov    %al,0x2f(%rsp)
  10dca4:	74 13                	je     10dcb9 <_ZN4core3fmt9Formatter12with_padding17h90e9e2dbad5ce5daE+0x389>
  10dca6:	eb 00                	jmp    10dca8 <_ZN4core3fmt9Formatter12with_padding17h90e9e2dbad5ce5daE+0x378>
  10dca8:	8a 44 24 2f          	mov    0x2f(%rsp),%al
  10dcac:	2c 01                	sub    $0x1,%al
  10dcae:	88 44 24 2e          	mov    %al,0x2e(%rsp)
  10dcb2:	74 0a                	je     10dcbe <_ZN4core3fmt9Formatter12with_padding17h90e9e2dbad5ce5daE+0x38e>
  10dcb4:	e9 b0 01 00 00       	jmpq   10de69 <_ZN4core3fmt9Formatter12with_padding17h90e9e2dbad5ce5daE+0x539>
  10dcb9:	e9 ff fe ff ff       	jmpq   10dbbd <_ZN4core3fmt9Formatter12with_padding17h90e9e2dbad5ce5daE+0x28d>
  10dcbe:	e8 1d 75 ff ff       	callq  1051e0 <_ZN50_$LT$T$u20$as$u20$core..convert..From$LT$T$GT$$GT$4from17hde9d3f996ad54071E>
  10dcc3:	c6 84 24 38 01 00 00 	movb   $0x1,0x138(%rsp)
  10dcca:	01 
  10dccb:	e9 8a 01 00 00       	jmpq   10de5a <_ZN4core3fmt9Formatter12with_padding17h90e9e2dbad5ce5daE+0x52a>
  10dcd0:	8a 84 24 38 01 00 00 	mov    0x138(%rsp),%al
  10dcd7:	48 81 c4 28 02 00 00 	add    $0x228,%rsp
  10dcde:	c3                   	retq   
  10dcdf:	8a 84 24 78 01 00 00 	mov    0x178(%rsp),%al
  10dce6:	84 c0                	test   %al,%al
  10dce8:	88 44 24 2d          	mov    %al,0x2d(%rsp)
  10dcec:	74 13                	je     10dd01 <_ZN4core3fmt9Formatter12with_padding17h90e9e2dbad5ce5daE+0x3d1>
  10dcee:	eb 00                	jmp    10dcf0 <_ZN4core3fmt9Formatter12with_padding17h90e9e2dbad5ce5daE+0x3c0>
  10dcf0:	8a 44 24 2d          	mov    0x2d(%rsp),%al
  10dcf4:	2c 01                	sub    $0x1,%al
  10dcf6:	88 44 24 2c          	mov    %al,0x2c(%rsp)
  10dcfa:	74 72                	je     10dd6e <_ZN4core3fmt9Formatter12with_padding17h90e9e2dbad5ce5daE+0x43e>
  10dcfc:	e9 68 01 00 00       	jmpq   10de69 <_ZN4core3fmt9Formatter12with_padding17h90e9e2dbad5ce5daE+0x539>
  10dd01:	48 8d bc 24 e8 00 00 	lea    0xe8(%rsp),%rdi
  10dd08:	00 
  10dd09:	48 8d b4 24 d8 00 00 	lea    0xd8(%rsp),%rsi
  10dd10:	00 
  10dd11:	48 c7 84 24 60 01 00 	movq   $0x0,0x160(%rsp)
  10dd18:	00 00 00 00 00 
  10dd1d:	48 8b 84 24 80 00 00 	mov    0x80(%rsp),%rax
  10dd24:	00 
  10dd25:	48 89 84 24 68 01 00 	mov    %rax,0x168(%rsp)
  10dd2c:	00 
  10dd2d:	48 8b 8c 24 60 01 00 	mov    0x160(%rsp),%rcx
  10dd34:	00 
  10dd35:	48 8b 94 24 68 01 00 	mov    0x168(%rsp),%rdx
  10dd3c:	00 
  10dd3d:	48 89 8c 24 d8 00 00 	mov    %rcx,0xd8(%rsp)
  10dd44:	00 
  10dd45:	48 89 94 24 e0 00 00 	mov    %rdx,0xe0(%rsp)
  10dd4c:	00 
  10dd4d:	e8 ee 80 ff ff       	callq  105e40 <_ZN54_$LT$I$u20$as$u20$core..iter..traits..IntoIterator$GT$9into_iter17h593a8b7b125c6a4eE>
  10dd52:	48 8b 84 24 e8 00 00 	mov    0xe8(%rsp),%rax
  10dd59:	00 
  10dd5a:	48 8b 8c 24 f0 00 00 	mov    0xf0(%rsp),%rcx
  10dd61:	00 
  10dd62:	48 89 44 24 20       	mov    %rax,0x20(%rsp)
  10dd67:	48 89 4c 24 18       	mov    %rcx,0x18(%rsp)
  10dd6c:	eb 12                	jmp    10dd80 <_ZN4core3fmt9Formatter12with_padding17h90e9e2dbad5ce5daE+0x450>
  10dd6e:	e8 6d 74 ff ff       	callq  1051e0 <_ZN50_$LT$T$u20$as$u20$core..convert..From$LT$T$GT$$GT$4from17hde9d3f996ad54071E>
  10dd73:	c6 84 24 38 01 00 00 	movb   $0x1,0x138(%rsp)
  10dd7a:	01 
  10dd7b:	e9 da 00 00 00       	jmpq   10de5a <_ZN4core3fmt9Formatter12with_padding17h90e9e2dbad5ce5daE+0x52a>
  10dd80:	48 8b 44 24 20       	mov    0x20(%rsp),%rax
  10dd85:	48 89 84 24 c8 01 00 	mov    %rax,0x1c8(%rsp)
  10dd8c:	00 
  10dd8d:	48 8b 4c 24 18       	mov    0x18(%rsp),%rcx
  10dd92:	48 89 8c 24 d0 01 00 	mov    %rcx,0x1d0(%rsp)
  10dd99:	00 
  10dd9a:	48 8d bc 24 50 01 00 	lea    0x150(%rsp),%rdi
  10dda1:	00 
  10dda2:	48 8d b4 24 c8 01 00 	lea    0x1c8(%rsp),%rsi
  10dda9:	00 
  10ddaa:	e8 61 7f ff ff       	callq  105d10 <_ZN4core4iter5range86_$LT$impl$u20$core..iter..iterator..Iterator$u20$for$u20$core..ops..Range$LT$A$GT$$GT$4next17h05ed5ee39168d888E>
  10ddaf:	eb 0d                	jmp    10ddbe <_ZN4core3fmt9Formatter12with_padding17h90e9e2dbad5ce5daE+0x48e>
  10ddb1:	c6 84 24 38 01 00 00 	movb   $0x0,0x138(%rsp)
  10ddb8:	00 
  10ddb9:	e9 12 ff ff ff       	jmpq   10dcd0 <_ZN4core3fmt9Formatter12with_padding17h90e9e2dbad5ce5daE+0x3a0>
  10ddbe:	48 8b 84 24 50 01 00 	mov    0x150(%rsp),%rax
  10ddc5:	00 
  10ddc6:	48 85 c0             	test   %rax,%rax
  10ddc9:	48 89 44 24 10       	mov    %rax,0x10(%rsp)
  10ddce:	74 e1                	je     10ddb1 <_ZN4core3fmt9Formatter12with_padding17h90e9e2dbad5ce5daE+0x481>
  10ddd0:	eb 00                	jmp    10ddd2 <_ZN4core3fmt9Formatter12with_padding17h90e9e2dbad5ce5daE+0x4a2>
  10ddd2:	48 8b 44 24 10       	mov    0x10(%rsp),%rax
  10ddd7:	48 83 e8 01          	sub    $0x1,%rax
  10dddb:	48 89 44 24 08       	mov    %rax,0x8(%rsp)
  10dde0:	0f 85 83 00 00 00    	jne    10de69 <_ZN4core3fmt9Formatter12with_padding17h90e9e2dbad5ce5daE+0x539>
  10dde6:	eb 00                	jmp    10dde8 <_ZN4core3fmt9Formatter12with_padding17h90e9e2dbad5ce5daE+0x4b8>
  10dde8:	48 8b 84 24 c8 00 00 	mov    0xc8(%rsp),%rax
  10ddef:	00 
  10ddf0:	48 8b 78 30          	mov    0x30(%rax),%rdi
  10ddf4:	48 8b 48 38          	mov    0x38(%rax),%rcx
  10ddf8:	48 8b 74 24 50       	mov    0x50(%rsp),%rsi
  10ddfd:	48 8b 54 24 58       	mov    0x58(%rsp),%rdx
  10de02:	ff 51 18             	callq  *0x18(%rcx)
  10de05:	88 84 24 d7 00 00 00 	mov    %al,0xd7(%rsp)
  10de0c:	8a 84 24 d7 00 00 00 	mov    0xd7(%rsp),%al
  10de13:	88 84 24 48 01 00 00 	mov    %al,0x148(%rsp)
  10de1a:	8a 84 24 48 01 00 00 	mov    0x148(%rsp),%al
  10de21:	84 c0                	test   %al,%al
  10de23:	88 44 24 07          	mov    %al,0x7(%rsp)
  10de27:	74 10                	je     10de39 <_ZN4core3fmt9Formatter12with_padding17h90e9e2dbad5ce5daE+0x509>
  10de29:	eb 00                	jmp    10de2b <_ZN4core3fmt9Formatter12with_padding17h90e9e2dbad5ce5daE+0x4fb>
  10de2b:	8a 44 24 07          	mov    0x7(%rsp),%al
  10de2f:	2c 01                	sub    $0x1,%al
  10de31:	88 44 24 06          	mov    %al,0x6(%rsp)
  10de35:	74 07                	je     10de3e <_ZN4core3fmt9Formatter12with_padding17h90e9e2dbad5ce5daE+0x50e>
  10de37:	eb 30                	jmp    10de69 <_ZN4core3fmt9Formatter12with_padding17h90e9e2dbad5ce5daE+0x539>
  10de39:	e9 5c ff ff ff       	jmpq   10dd9a <_ZN4core3fmt9Formatter12with_padding17h90e9e2dbad5ce5daE+0x46a>
  10de3e:	e8 9d 73 ff ff       	callq  1051e0 <_ZN50_$LT$T$u20$as$u20$core..convert..From$LT$T$GT$$GT$4from17hde9d3f996ad54071E>
  10de43:	c6 84 24 38 01 00 00 	movb   $0x1,0x138(%rsp)
  10de4a:	01 
  10de4b:	eb 0d                	jmp    10de5a <_ZN4core3fmt9Formatter12with_padding17h90e9e2dbad5ce5daE+0x52a>
  10de4d:	c6 84 24 3f 01 00 00 	movb   $0x0,0x13f(%rsp)
  10de54:	00 
  10de55:	e9 76 fe ff ff       	jmpq   10dcd0 <_ZN4core3fmt9Formatter12with_padding17h90e9e2dbad5ce5daE+0x3a0>
  10de5a:	f6 84 24 3f 01 00 00 	testb  $0x1,0x13f(%rsp)
  10de61:	01 
  10de62:	75 e9                	jne    10de4d <_ZN4core3fmt9Formatter12with_padding17h90e9e2dbad5ce5daE+0x51d>
  10de64:	e9 67 fe ff ff       	jmpq   10dcd0 <_ZN4core3fmt9Formatter12with_padding17h90e9e2dbad5ce5daE+0x3a0>
  10de69:	48 8d 3d f8 30 00 00 	lea    0x30f8(%rip),%rdi        # 110f68 <panic_loc14796>
  10de70:	e8 1b 76 ff ff       	callq  105490 <_ZN4core9panicking5panic17h585bd70cda921012E>
  10de75:	66 2e 0f 1f 84 00 00 	nopw   %cs:0x0(%rax,%rax,1)
  10de7c:	00 00 00 
  10de7f:	90                   	nop

000000000010de80 <_ZN4core3fmt9Formatter12with_padding17ha119b76c4be49d1aE>:
  10de80:	48 81 ec 38 02 00 00 	sub    $0x238,%rsp
  10de87:	88 d0                	mov    %dl,%al
  10de89:	88 84 24 1f 02 00 00 	mov    %al,0x21f(%rsp)
  10de90:	48 89 8c 24 08 02 00 	mov    %rcx,0x208(%rsp)
  10de97:	00 
  10de98:	48 8b 8c 24 08 02 00 	mov    0x208(%rsp),%rcx
  10de9f:	00 
  10dea0:	48 89 8c 24 10 02 00 	mov    %rcx,0x210(%rsp)
  10dea7:	00 
  10dea8:	48 89 bc 24 b0 00 00 	mov    %rdi,0xb0(%rsp)
  10deaf:	00 
  10deb0:	48 89 b4 24 a8 00 00 	mov    %rsi,0xa8(%rsp)
  10deb7:	00 
  10deb8:	c6 84 24 1f 01 00 00 	movb   $0x0,0x11f(%rsp)
  10debf:	00 
  10dec0:	8a 84 24 1f 02 00 00 	mov    0x21f(%rsp),%al
  10dec7:	88 84 24 07 02 00 00 	mov    %al,0x207(%rsp)
  10dece:	c6 84 24 1f 01 00 00 	movb   $0x1,0x11f(%rsp)
  10ded5:	01 
  10ded6:	48 8b 8c 24 10 02 00 	mov    0x210(%rsp),%rcx
  10dedd:	00 
  10dede:	48 89 8c 24 f8 01 00 	mov    %rcx,0x1f8(%rsp)
  10dee5:	00 
  10dee6:	48 8b 8c 24 b0 00 00 	mov    0xb0(%rsp),%rcx
  10deed:	00 
  10deee:	8a 41 08             	mov    0x8(%rcx),%al
  10def1:	2c 03                	sub    $0x3,%al
  10def3:	88 84 24 a7 00 00 00 	mov    %al,0xa7(%rsp)
  10defa:	74 24                	je     10df20 <_ZN4core3fmt9Formatter12with_padding17ha119b76c4be49d1aE+0xa0>
  10defc:	eb 00                	jmp    10defe <_ZN4core3fmt9Formatter12with_padding17ha119b76c4be49d1aE+0x7e>
  10defe:	48 8b 84 24 b0 00 00 	mov    0xb0(%rsp),%rax
  10df05:	00 
  10df06:	8a 48 08             	mov    0x8(%rax),%cl
  10df09:	88 8c 24 a6 01 00 00 	mov    %cl,0x1a6(%rsp)
  10df10:	8a 8c 24 a6 01 00 00 	mov    0x1a6(%rsp),%cl
  10df17:	88 8c 24 f7 01 00 00 	mov    %cl,0x1f7(%rsp)
  10df1e:	eb 1c                	jmp    10df3c <_ZN4core3fmt9Formatter12with_padding17ha119b76c4be49d1aE+0xbc>
  10df20:	8a 84 24 07 02 00 00 	mov    0x207(%rsp),%al
  10df27:	88 84 24 a7 01 00 00 	mov    %al,0x1a7(%rsp)
  10df2e:	8a 84 24 a7 01 00 00 	mov    0x1a7(%rsp),%al
  10df35:	88 84 24 f7 01 00 00 	mov    %al,0x1f7(%rsp)
  10df3c:	0f b6 84 24 f7 01 00 	movzbl 0x1f7(%rsp),%eax
  10df43:	00 
  10df44:	89 c1                	mov    %eax,%ecx
  10df46:	48 89 ca             	mov    %rcx,%rdx
  10df49:	48 83 ea 03          	sub    $0x3,%rdx
  10df4d:	48 89 8c 24 98 00 00 	mov    %rcx,0x98(%rsp)
  10df54:	00 
  10df55:	48 89 94 24 90 00 00 	mov    %rdx,0x90(%rsp)
  10df5c:	00 
  10df5d:	0f 87 52 04 00 00    	ja     10e3b5 <_ZN4core3fmt9Formatter12with_padding17ha119b76c4be49d1aE+0x535>
  10df63:	48 8d 05 ae 17 00 00 	lea    0x17ae(%rip),%rax        # 10f718 <str2852+0x88>
  10df6a:	48 8b 8c 24 98 00 00 	mov    0x98(%rsp),%rcx
  10df71:	00 
  10df72:	48 63 14 88          	movslq (%rax,%rcx,4),%rdx
  10df76:	48 01 c2             	add    %rax,%rdx
  10df79:	ff e2                	jmpq   *%rdx
  10df7b:	48 c7 84 24 90 01 00 	movq   $0x0,0x190(%rsp)
  10df82:	00 00 00 00 00 
  10df87:	48 8b 84 24 a8 00 00 	mov    0xa8(%rsp),%rax
  10df8e:	00 
  10df8f:	48 89 84 24 98 01 00 	mov    %rax,0x198(%rsp)
  10df96:	00 
  10df97:	eb 20                	jmp    10dfb9 <_ZN4core3fmt9Formatter12with_padding17ha119b76c4be49d1aE+0x139>
  10df99:	48 8b 84 24 a8 00 00 	mov    0xa8(%rsp),%rax
  10dfa0:	00 
  10dfa1:	48 89 84 24 90 01 00 	mov    %rax,0x190(%rsp)
  10dfa8:	00 
  10dfa9:	48 c7 84 24 98 01 00 	movq   $0x0,0x198(%rsp)
  10dfb0:	00 00 00 00 00 
  10dfb5:	eb 02                	jmp    10dfb9 <_ZN4core3fmt9Formatter12with_padding17ha119b76c4be49d1aE+0x139>
  10dfb7:	eb 3a                	jmp    10dff3 <_ZN4core3fmt9Formatter12with_padding17ha119b76c4be49d1aE+0x173>
  10dfb9:	48 8d bc 24 e0 01 00 	lea    0x1e0(%rsp),%rdi
  10dfc0:	00 
  10dfc1:	48 8b 84 24 90 01 00 	mov    0x190(%rsp),%rax
  10dfc8:	00 
  10dfc9:	48 8b 8c 24 98 01 00 	mov    0x198(%rsp),%rcx
  10dfd0:	00 
  10dfd1:	48 8b 94 24 b0 00 00 	mov    0xb0(%rsp),%rdx
  10dfd8:	00 
  10dfd9:	8b 72 04             	mov    0x4(%rdx),%esi
  10dfdc:	48 89 84 24 88 00 00 	mov    %rax,0x88(%rsp)
  10dfe3:	00 
  10dfe4:	48 89 8c 24 80 00 00 	mov    %rcx,0x80(%rsp)
  10dfeb:	00 
  10dfec:	e8 1f 72 ff ff       	callq  105210 <_ZN44_$LT$char$u20$as$u20$core..char..CharExt$GT$11encode_utf817h7df4fc3325f57883E>
  10dff1:	eb 53                	jmp    10e046 <_ZN4core3fmt9Formatter12with_padding17ha119b76c4be49d1aE+0x1c6>
  10dff3:	48 8b 84 24 a8 00 00 	mov    0xa8(%rsp),%rax
  10dffa:	00 
  10dffb:	48 c1 e8 01          	shr    $0x1,%rax
  10dfff:	48 8b 8c 24 a8 00 00 	mov    0xa8(%rsp),%rcx
  10e006:	00 
  10e007:	48 83 c1 01          	add    $0x1,%rcx
  10e00b:	0f 92 c2             	setb   %dl
  10e00e:	f6 c2 01             	test   $0x1,%dl
  10e011:	48 89 44 24 78       	mov    %rax,0x78(%rsp)
  10e016:	48 89 4c 24 70       	mov    %rcx,0x70(%rsp)
  10e01b:	0f 85 94 03 00 00    	jne    10e3b5 <_ZN4core3fmt9Formatter12with_padding17ha119b76c4be49d1aE+0x535>
  10e021:	eb 00                	jmp    10e023 <_ZN4core3fmt9Formatter12with_padding17ha119b76c4be49d1aE+0x1a3>
  10e023:	48 8b 44 24 70       	mov    0x70(%rsp),%rax
  10e028:	48 c1 e8 01          	shr    $0x1,%rax
  10e02c:	48 8b 4c 24 78       	mov    0x78(%rsp),%rcx
  10e031:	48 89 8c 24 90 01 00 	mov    %rcx,0x190(%rsp)
  10e038:	00 
  10e039:	48 89 84 24 98 01 00 	mov    %rax,0x198(%rsp)
  10e040:	00 
  10e041:	e9 73 ff ff ff       	jmpq   10dfb9 <_ZN4core3fmt9Formatter12with_padding17ha119b76c4be49d1aE+0x139>
  10e046:	48 8d bc 24 e0 01 00 	lea    0x1e0(%rsp),%rdi
  10e04d:	00 
  10e04e:	e8 ed 73 ff ff       	callq  105440 <_ZN4core4char10EncodeUtf88as_slice17h087b7807397e0642E>
  10e053:	48 89 44 24 68       	mov    %rax,0x68(%rsp)
  10e058:	48 89 54 24 60       	mov    %rdx,0x60(%rsp)
  10e05d:	48 8b 44 24 68       	mov    0x68(%rsp),%rax
  10e062:	48 89 84 24 28 02 00 	mov    %rax,0x228(%rsp)
  10e069:	00 
  10e06a:	48 8b 4c 24 60       	mov    0x60(%rsp),%rcx
  10e06f:	48 89 8c 24 30 02 00 	mov    %rcx,0x230(%rsp)
  10e076:	00 
  10e077:	48 8b 94 24 28 02 00 	mov    0x228(%rsp),%rdx
  10e07e:	00 
  10e07f:	48 89 4c 24 58       	mov    %rcx,0x58(%rsp)
  10e084:	48 89 54 24 50       	mov    %rdx,0x50(%rsp)
  10e089:	48 8d bc 24 08 01 00 	lea    0x108(%rsp),%rdi
  10e090:	00 
  10e091:	48 8d b4 24 f8 00 00 	lea    0xf8(%rsp),%rsi
  10e098:	00 
  10e099:	48 c7 84 24 80 01 00 	movq   $0x0,0x180(%rsp)
  10e0a0:	00 00 00 00 00 
  10e0a5:	48 8b 84 24 88 00 00 	mov    0x88(%rsp),%rax
  10e0ac:	00 
  10e0ad:	48 89 84 24 88 01 00 	mov    %rax,0x188(%rsp)
  10e0b4:	00 
  10e0b5:	48 8b 8c 24 80 01 00 	mov    0x180(%rsp),%rcx
  10e0bc:	00 
  10e0bd:	48 8b 94 24 88 01 00 	mov    0x188(%rsp),%rdx
  10e0c4:	00 
  10e0c5:	48 89 8c 24 f8 00 00 	mov    %rcx,0xf8(%rsp)
  10e0cc:	00 
  10e0cd:	48 89 94 24 00 01 00 	mov    %rdx,0x100(%rsp)
  10e0d4:	00 
  10e0d5:	e8 66 7d ff ff       	callq  105e40 <_ZN54_$LT$I$u20$as$u20$core..iter..traits..IntoIterator$GT$9into_iter17h593a8b7b125c6a4eE>
  10e0da:	48 8b 84 24 08 01 00 	mov    0x108(%rsp),%rax
  10e0e1:	00 
  10e0e2:	48 8b 8c 24 10 01 00 	mov    0x110(%rsp),%rcx
  10e0e9:	00 
  10e0ea:	48 89 44 24 48       	mov    %rax,0x48(%rsp)
  10e0ef:	48 89 4c 24 40       	mov    %rcx,0x40(%rsp)
  10e0f4:	48 8b 44 24 48       	mov    0x48(%rsp),%rax
  10e0f9:	48 89 84 24 c8 01 00 	mov    %rax,0x1c8(%rsp)
  10e100:	00 
  10e101:	48 8b 4c 24 40       	mov    0x40(%rsp),%rcx
  10e106:	48 89 8c 24 d0 01 00 	mov    %rcx,0x1d0(%rsp)
  10e10d:	00 
  10e10e:	48 8d bc 24 70 01 00 	lea    0x170(%rsp),%rdi
  10e115:	00 
  10e116:	48 8d b4 24 c8 01 00 	lea    0x1c8(%rsp),%rsi
  10e11d:	00 
  10e11e:	e8 ed 7b ff ff       	callq  105d10 <_ZN4core4iter5range86_$LT$impl$u20$core..iter..iterator..Iterator$u20$for$u20$core..ops..Range$LT$A$GT$$GT$4next17h05ed5ee39168d888E>
  10e123:	eb 62                	jmp    10e187 <_ZN4core3fmt9Formatter12with_padding17ha119b76c4be49d1aE+0x307>
  10e125:	c6 84 24 1f 01 00 00 	movb   $0x0,0x11f(%rsp)
  10e12c:	00 
  10e12d:	48 8b 84 24 f8 01 00 	mov    0x1f8(%rsp),%rax
  10e134:	00 
  10e135:	48 89 84 24 58 01 00 	mov    %rax,0x158(%rsp)
  10e13c:	00 
  10e13d:	48 8b 84 24 b0 00 00 	mov    0xb0(%rsp),%rax
  10e144:	00 
  10e145:	48 89 84 24 50 01 00 	mov    %rax,0x150(%rsp)
  10e14c:	00 
  10e14d:	48 8b 8c 24 58 01 00 	mov    0x158(%rsp),%rcx
  10e154:	00 
  10e155:	48 89 8c 24 e8 00 00 	mov    %rcx,0xe8(%rsp)
  10e15c:	00 
  10e15d:	48 8b b4 24 50 01 00 	mov    0x150(%rsp),%rsi
  10e164:	00 
  10e165:	48 89 cf             	mov    %rcx,%rdi
  10e168:	e8 73 10 00 00       	callq  10f1e0 <_ZN4core3fmt9Formatter12pad_integral28_$u7b$$u7b$closure$u7d$$u7d$17h48c8183bf134a05aE>
  10e16d:	88 84 24 e7 00 00 00 	mov    %al,0xe7(%rsp)
  10e174:	8a 84 24 e7 00 00 00 	mov    0xe7(%rsp),%al
  10e17b:	88 84 24 60 01 00 00 	mov    %al,0x160(%rsp)
  10e182:	e9 a4 00 00 00       	jmpq   10e22b <_ZN4core3fmt9Formatter12with_padding17ha119b76c4be49d1aE+0x3ab>
  10e187:	48 8b 84 24 70 01 00 	mov    0x170(%rsp),%rax
  10e18e:	00 
  10e18f:	48 85 c0             	test   %rax,%rax
  10e192:	48 89 44 24 38       	mov    %rax,0x38(%rsp)
  10e197:	74 8c                	je     10e125 <_ZN4core3fmt9Formatter12with_padding17ha119b76c4be49d1aE+0x2a5>
  10e199:	eb 00                	jmp    10e19b <_ZN4core3fmt9Formatter12with_padding17ha119b76c4be49d1aE+0x31b>
  10e19b:	48 8b 44 24 38       	mov    0x38(%rsp),%rax
  10e1a0:	48 83 e8 01          	sub    $0x1,%rax
  10e1a4:	48 89 44 24 30       	mov    %rax,0x30(%rsp)
  10e1a9:	0f 85 06 02 00 00    	jne    10e3b5 <_ZN4core3fmt9Formatter12with_padding17ha119b76c4be49d1aE+0x535>
  10e1af:	eb 00                	jmp    10e1b1 <_ZN4core3fmt9Formatter12with_padding17ha119b76c4be49d1aE+0x331>
  10e1b1:	48 8b 84 24 b0 00 00 	mov    0xb0(%rsp),%rax
  10e1b8:	00 
  10e1b9:	48 8b 78 30          	mov    0x30(%rax),%rdi
  10e1bd:	48 8b 48 38          	mov    0x38(%rax),%rcx
  10e1c1:	48 8b 74 24 50       	mov    0x50(%rsp),%rsi
  10e1c6:	48 8b 54 24 58       	mov    0x58(%rsp),%rdx
  10e1cb:	ff 51 18             	callq  *0x18(%rcx)
  10e1ce:	88 84 24 f7 00 00 00 	mov    %al,0xf7(%rsp)
  10e1d5:	8a 84 24 f7 00 00 00 	mov    0xf7(%rsp),%al
  10e1dc:	88 84 24 68 01 00 00 	mov    %al,0x168(%rsp)
  10e1e3:	8a 84 24 68 01 00 00 	mov    0x168(%rsp),%al
  10e1ea:	84 c0                	test   %al,%al
  10e1ec:	88 44 24 2f          	mov    %al,0x2f(%rsp)
  10e1f0:	74 13                	je     10e205 <_ZN4core3fmt9Formatter12with_padding17ha119b76c4be49d1aE+0x385>
  10e1f2:	eb 00                	jmp    10e1f4 <_ZN4core3fmt9Formatter12with_padding17ha119b76c4be49d1aE+0x374>
  10e1f4:	8a 44 24 2f          	mov    0x2f(%rsp),%al
  10e1f8:	2c 01                	sub    $0x1,%al
  10e1fa:	88 44 24 2e          	mov    %al,0x2e(%rsp)
  10e1fe:	74 0a                	je     10e20a <_ZN4core3fmt9Formatter12with_padding17ha119b76c4be49d1aE+0x38a>
  10e200:	e9 b0 01 00 00       	jmpq   10e3b5 <_ZN4core3fmt9Formatter12with_padding17ha119b76c4be49d1aE+0x535>
  10e205:	e9 04 ff ff ff       	jmpq   10e10e <_ZN4core3fmt9Formatter12with_padding17ha119b76c4be49d1aE+0x28e>
  10e20a:	e8 d1 6f ff ff       	callq  1051e0 <_ZN50_$LT$T$u20$as$u20$core..convert..From$LT$T$GT$$GT$4from17hde9d3f996ad54071E>
  10e20f:	c6 84 24 18 01 00 00 	movb   $0x1,0x118(%rsp)
  10e216:	01 
  10e217:	e9 8a 01 00 00       	jmpq   10e3a6 <_ZN4core3fmt9Formatter12with_padding17ha119b76c4be49d1aE+0x526>
  10e21c:	8a 84 24 18 01 00 00 	mov    0x118(%rsp),%al
  10e223:	48 81 c4 38 02 00 00 	add    $0x238,%rsp
  10e22a:	c3                   	retq   
  10e22b:	8a 84 24 60 01 00 00 	mov    0x160(%rsp),%al
  10e232:	84 c0                	test   %al,%al
  10e234:	88 44 24 2d          	mov    %al,0x2d(%rsp)
  10e238:	74 13                	je     10e24d <_ZN4core3fmt9Formatter12with_padding17ha119b76c4be49d1aE+0x3cd>
  10e23a:	eb 00                	jmp    10e23c <_ZN4core3fmt9Formatter12with_padding17ha119b76c4be49d1aE+0x3bc>
  10e23c:	8a 44 24 2d          	mov    0x2d(%rsp),%al
  10e240:	2c 01                	sub    $0x1,%al
  10e242:	88 44 24 2c          	mov    %al,0x2c(%rsp)
  10e246:	74 72                	je     10e2ba <_ZN4core3fmt9Formatter12with_padding17ha119b76c4be49d1aE+0x43a>
  10e248:	e9 68 01 00 00       	jmpq   10e3b5 <_ZN4core3fmt9Formatter12with_padding17ha119b76c4be49d1aE+0x535>
  10e24d:	48 8d bc 24 d0 00 00 	lea    0xd0(%rsp),%rdi
  10e254:	00 
  10e255:	48 8d b4 24 c0 00 00 	lea    0xc0(%rsp),%rsi
  10e25c:	00 
  10e25d:	48 c7 84 24 40 01 00 	movq   $0x0,0x140(%rsp)
  10e264:	00 00 00 00 00 
  10e269:	48 8b 84 24 80 00 00 	mov    0x80(%rsp),%rax
  10e270:	00 
  10e271:	48 89 84 24 48 01 00 	mov    %rax,0x148(%rsp)
  10e278:	00 
  10e279:	48 8b 8c 24 40 01 00 	mov    0x140(%rsp),%rcx
  10e280:	00 
  10e281:	48 8b 94 24 48 01 00 	mov    0x148(%rsp),%rdx
  10e288:	00 
  10e289:	48 89 8c 24 c0 00 00 	mov    %rcx,0xc0(%rsp)
  10e290:	00 
  10e291:	48 89 94 24 c8 00 00 	mov    %rdx,0xc8(%rsp)
  10e298:	00 
  10e299:	e8 a2 7b ff ff       	callq  105e40 <_ZN54_$LT$I$u20$as$u20$core..iter..traits..IntoIterator$GT$9into_iter17h593a8b7b125c6a4eE>
  10e29e:	48 8b 84 24 d0 00 00 	mov    0xd0(%rsp),%rax
  10e2a5:	00 
  10e2a6:	48 8b 8c 24 d8 00 00 	mov    0xd8(%rsp),%rcx
  10e2ad:	00 
  10e2ae:	48 89 44 24 20       	mov    %rax,0x20(%rsp)
  10e2b3:	48 89 4c 24 18       	mov    %rcx,0x18(%rsp)
  10e2b8:	eb 12                	jmp    10e2cc <_ZN4core3fmt9Formatter12with_padding17ha119b76c4be49d1aE+0x44c>
  10e2ba:	e8 21 6f ff ff       	callq  1051e0 <_ZN50_$LT$T$u20$as$u20$core..convert..From$LT$T$GT$$GT$4from17hde9d3f996ad54071E>
  10e2bf:	c6 84 24 18 01 00 00 	movb   $0x1,0x118(%rsp)
  10e2c6:	01 
  10e2c7:	e9 da 00 00 00       	jmpq   10e3a6 <_ZN4core3fmt9Formatter12with_padding17ha119b76c4be49d1aE+0x526>
  10e2cc:	48 8b 44 24 20       	mov    0x20(%rsp),%rax
  10e2d1:	48 89 84 24 b0 01 00 	mov    %rax,0x1b0(%rsp)
  10e2d8:	00 
  10e2d9:	48 8b 4c 24 18       	mov    0x18(%rsp),%rcx
  10e2de:	48 89 8c 24 b8 01 00 	mov    %rcx,0x1b8(%rsp)
  10e2e5:	00 
  10e2e6:	48 8d bc 24 30 01 00 	lea    0x130(%rsp),%rdi
  10e2ed:	00 
  10e2ee:	48 8d b4 24 b0 01 00 	lea    0x1b0(%rsp),%rsi
  10e2f5:	00 
  10e2f6:	e8 15 7a ff ff       	callq  105d10 <_ZN4core4iter5range86_$LT$impl$u20$core..iter..iterator..Iterator$u20$for$u20$core..ops..Range$LT$A$GT$$GT$4next17h05ed5ee39168d888E>
  10e2fb:	eb 0d                	jmp    10e30a <_ZN4core3fmt9Formatter12with_padding17ha119b76c4be49d1aE+0x48a>
  10e2fd:	c6 84 24 18 01 00 00 	movb   $0x0,0x118(%rsp)
  10e304:	00 
  10e305:	e9 12 ff ff ff       	jmpq   10e21c <_ZN4core3fmt9Formatter12with_padding17ha119b76c4be49d1aE+0x39c>
  10e30a:	48 8b 84 24 30 01 00 	mov    0x130(%rsp),%rax
  10e311:	00 
  10e312:	48 85 c0             	test   %rax,%rax
  10e315:	48 89 44 24 10       	mov    %rax,0x10(%rsp)
  10e31a:	74 e1                	je     10e2fd <_ZN4core3fmt9Formatter12with_padding17ha119b76c4be49d1aE+0x47d>
  10e31c:	eb 00                	jmp    10e31e <_ZN4core3fmt9Formatter12with_padding17ha119b76c4be49d1aE+0x49e>
  10e31e:	48 8b 44 24 10       	mov    0x10(%rsp),%rax
  10e323:	48 83 e8 01          	sub    $0x1,%rax
  10e327:	48 89 44 24 08       	mov    %rax,0x8(%rsp)
  10e32c:	0f 85 83 00 00 00    	jne    10e3b5 <_ZN4core3fmt9Formatter12with_padding17ha119b76c4be49d1aE+0x535>
  10e332:	eb 00                	jmp    10e334 <_ZN4core3fmt9Formatter12with_padding17ha119b76c4be49d1aE+0x4b4>
  10e334:	48 8b 84 24 b0 00 00 	mov    0xb0(%rsp),%rax
  10e33b:	00 
  10e33c:	48 8b 78 30          	mov    0x30(%rax),%rdi
  10e340:	48 8b 48 38          	mov    0x38(%rax),%rcx
  10e344:	48 8b 74 24 50       	mov    0x50(%rsp),%rsi
  10e349:	48 8b 54 24 58       	mov    0x58(%rsp),%rdx
  10e34e:	ff 51 18             	callq  *0x18(%rcx)
  10e351:	88 84 24 bf 00 00 00 	mov    %al,0xbf(%rsp)
  10e358:	8a 84 24 bf 00 00 00 	mov    0xbf(%rsp),%al
  10e35f:	88 84 24 28 01 00 00 	mov    %al,0x128(%rsp)
  10e366:	8a 84 24 28 01 00 00 	mov    0x128(%rsp),%al
  10e36d:	84 c0                	test   %al,%al
  10e36f:	88 44 24 07          	mov    %al,0x7(%rsp)
  10e373:	74 10                	je     10e385 <_ZN4core3fmt9Formatter12with_padding17ha119b76c4be49d1aE+0x505>
  10e375:	eb 00                	jmp    10e377 <_ZN4core3fmt9Formatter12with_padding17ha119b76c4be49d1aE+0x4f7>
  10e377:	8a 44 24 07          	mov    0x7(%rsp),%al
  10e37b:	2c 01                	sub    $0x1,%al
  10e37d:	88 44 24 06          	mov    %al,0x6(%rsp)
  10e381:	74 07                	je     10e38a <_ZN4core3fmt9Formatter12with_padding17ha119b76c4be49d1aE+0x50a>
  10e383:	eb 30                	jmp    10e3b5 <_ZN4core3fmt9Formatter12with_padding17ha119b76c4be49d1aE+0x535>
  10e385:	e9 5c ff ff ff       	jmpq   10e2e6 <_ZN4core3fmt9Formatter12with_padding17ha119b76c4be49d1aE+0x466>
  10e38a:	e8 51 6e ff ff       	callq  1051e0 <_ZN50_$LT$T$u20$as$u20$core..convert..From$LT$T$GT$$GT$4from17hde9d3f996ad54071E>
  10e38f:	c6 84 24 18 01 00 00 	movb   $0x1,0x118(%rsp)
  10e396:	01 
  10e397:	eb 0d                	jmp    10e3a6 <_ZN4core3fmt9Formatter12with_padding17ha119b76c4be49d1aE+0x526>
  10e399:	c6 84 24 1f 01 00 00 	movb   $0x0,0x11f(%rsp)
  10e3a0:	00 
  10e3a1:	e9 76 fe ff ff       	jmpq   10e21c <_ZN4core3fmt9Formatter12with_padding17ha119b76c4be49d1aE+0x39c>
  10e3a6:	f6 84 24 1f 01 00 00 	testb  $0x1,0x11f(%rsp)
  10e3ad:	01 
  10e3ae:	75 e9                	jne    10e399 <_ZN4core3fmt9Formatter12with_padding17ha119b76c4be49d1aE+0x519>
  10e3b0:	e9 67 fe ff ff       	jmpq   10e21c <_ZN4core3fmt9Formatter12with_padding17ha119b76c4be49d1aE+0x39c>
  10e3b5:	48 8d 3d ac 2b 00 00 	lea    0x2bac(%rip),%rdi        # 110f68 <panic_loc14796>
  10e3bc:	e8 cf 70 ff ff       	callq  105490 <_ZN4core9panicking5panic17h585bd70cda921012E>
  10e3c1:	66 2e 0f 1f 84 00 00 	nopw   %cs:0x0(%rax,%rax,1)
  10e3c8:	00 00 00 
  10e3cb:	0f 1f 44 00 00       	nopl   0x0(%rax,%rax,1)

000000000010e3d0 <_ZN4core3fmt9Formatter9write_str17he56f8161327f9d8fE>:
  10e3d0:	48 83 ec 38          	sub    $0x38,%rsp
  10e3d4:	48 89 74 24 18       	mov    %rsi,0x18(%rsp)
  10e3d9:	48 89 7c 24 10       	mov    %rdi,0x10(%rsp)
  10e3de:	48 89 54 24 08       	mov    %rdx,0x8(%rsp)
  10e3e3:	48 8b 44 24 10       	mov    0x10(%rsp),%rax
  10e3e8:	48 8b 78 30          	mov    0x30(%rax),%rdi
  10e3ec:	48 8b 48 38          	mov    0x38(%rax),%rcx
  10e3f0:	48 8b 74 24 18       	mov    0x18(%rsp),%rsi
  10e3f5:	48 8b 54 24 08       	mov    0x8(%rsp),%rdx
  10e3fa:	ff 51 18             	callq  *0x18(%rcx)
  10e3fd:	88 44 24 27          	mov    %al,0x27(%rsp)
  10e401:	8a 44 24 27          	mov    0x27(%rsp),%al
  10e405:	88 44 24 28          	mov    %al,0x28(%rsp)
  10e409:	8a 44 24 28          	mov    0x28(%rsp),%al
  10e40d:	48 83 c4 38          	add    $0x38,%rsp
  10e411:	c3                   	retq   
  10e412:	66 2e 0f 1f 84 00 00 	nopw   %cs:0x0(%rax,%rax,1)
  10e419:	00 00 00 
  10e41c:	0f 1f 40 00          	nopl   0x0(%rax)

000000000010e420 <_ZN4core3fmt9Formatter9write_fmt17h38becee21ffb4824E>:
  10e420:	48 81 ec b8 00 00 00 	sub    $0xb8,%rsp
  10e427:	48 89 7c 24 38       	mov    %rdi,0x38(%rsp)
  10e42c:	48 89 74 24 30       	mov    %rsi,0x30(%rsp)
  10e431:	48 8d 44 24 50       	lea    0x50(%rsp),%rax
  10e436:	b9 30 00 00 00       	mov    $0x30,%ecx
  10e43b:	89 ca                	mov    %ecx,%edx
  10e43d:	48 8d b4 24 80 00 00 	lea    0x80(%rsp),%rsi
  10e444:	00 
  10e445:	48 8b 7c 24 30       	mov    0x30(%rsp),%rdi
  10e44a:	49 89 f0             	mov    %rsi,%r8
  10e44d:	48 89 7c 24 28       	mov    %rdi,0x28(%rsp)
  10e452:	4c 89 c7             	mov    %r8,%rdi
  10e455:	4c 8b 44 24 28       	mov    0x28(%rsp),%r8
  10e45a:	48 89 74 24 20       	mov    %rsi,0x20(%rsp)
  10e45f:	4c 89 c6             	mov    %r8,%rsi
  10e462:	48 89 54 24 18       	mov    %rdx,0x18(%rsp)
  10e467:	48 89 44 24 10       	mov    %rax,0x10(%rsp)
  10e46c:	e8 df 5c ff ff       	callq  104150 <memcpy>
  10e471:	48 8b 44 24 38       	mov    0x38(%rsp),%rax
  10e476:	48 8b 78 30          	mov    0x30(%rax),%rdi
  10e47a:	48 8b 70 38          	mov    0x38(%rax),%rsi
  10e47e:	48 8b 54 24 20       	mov    0x20(%rsp),%rdx
  10e483:	4c 8b 44 24 10       	mov    0x10(%rsp),%r8
  10e488:	48 89 7c 24 08       	mov    %rdi,0x8(%rsp)
  10e48d:	4c 89 c7             	mov    %r8,%rdi
  10e490:	48 89 34 24          	mov    %rsi,(%rsp)
  10e494:	48 89 d6             	mov    %rdx,%rsi
  10e497:	48 8b 54 24 18       	mov    0x18(%rsp),%rdx
  10e49c:	e8 af 5c ff ff       	callq  104150 <memcpy>
  10e4a1:	48 8b 7c 24 08       	mov    0x8(%rsp),%rdi
  10e4a6:	48 8b 34 24          	mov    (%rsp),%rsi
  10e4aa:	48 8b 54 24 10       	mov    0x10(%rsp),%rdx
  10e4af:	e8 8c dc ff ff       	callq  10c140 <_ZN4core3fmt5write17hdcfad2ffcde93598E>
  10e4b4:	88 44 24 47          	mov    %al,0x47(%rsp)
  10e4b8:	8a 44 24 47          	mov    0x47(%rsp),%al
  10e4bc:	88 44 24 48          	mov    %al,0x48(%rsp)
  10e4c0:	8a 44 24 48          	mov    0x48(%rsp),%al
  10e4c4:	48 81 c4 b8 00 00 00 	add    $0xb8,%rsp
  10e4cb:	c3                   	retq   
  10e4cc:	0f 1f 40 00          	nopl   0x0(%rax)

000000000010e4d0 <_ZN4core3fmt9Formatter5flags17h02343ed7c1878824E>:
  10e4d0:	48 83 ec 18          	sub    $0x18,%rsp
  10e4d4:	48 89 7c 24 08       	mov    %rdi,0x8(%rsp)
  10e4d9:	48 8b 44 24 08       	mov    0x8(%rsp),%rax
  10e4de:	8b 00                	mov    (%rax),%eax
  10e4e0:	89 44 24 04          	mov    %eax,0x4(%rsp)
  10e4e4:	8b 44 24 04          	mov    0x4(%rsp),%eax
  10e4e8:	48 83 c4 18          	add    $0x18,%rsp
  10e4ec:	c3                   	retq   
  10e4ed:	0f 1f 00             	nopl   (%rax)

000000000010e4f0 <_ZN4core3fmt9Formatter9sign_plus17h17fbced084d62a83E>:
  10e4f0:	48 83 ec 18          	sub    $0x18,%rsp
  10e4f4:	48 89 7c 24 08       	mov    %rdi,0x8(%rsp)
  10e4f9:	b8 01 00 00 00       	mov    $0x1,%eax
  10e4fe:	48 8b 4c 24 08       	mov    0x8(%rsp),%rcx
  10e503:	8b 11                	mov    (%rcx),%edx
  10e505:	c6 44 24 16 00       	movb   $0x0,0x16(%rsp)
  10e50a:	0f b6 74 24 16       	movzbl 0x16(%rsp),%esi
  10e50f:	89 f7                	mov    %esi,%edi
  10e511:	83 e7 e0             	and    $0xffffffe0,%edi
  10e514:	83 ff 00             	cmp    $0x0,%edi
  10e517:	41 0f 95 c0          	setne  %r8b
  10e51b:	83 e6 1f             	and    $0x1f,%esi
  10e51e:	89 f1                	mov    %esi,%ecx
  10e520:	d3 e0                	shl    %cl,%eax
  10e522:	41 f6 c0 01          	test   $0x1,%r8b
  10e526:	89 54 24 04          	mov    %edx,0x4(%rsp)
  10e52a:	89 04 24             	mov    %eax,(%rsp)
  10e52d:	75 1a                	jne    10e549 <_ZN4core3fmt9Formatter9sign_plus17h17fbced084d62a83E+0x59>
  10e52f:	8b 44 24 04          	mov    0x4(%rsp),%eax
  10e533:	8b 0c 24             	mov    (%rsp),%ecx
  10e536:	21 c8                	and    %ecx,%eax
  10e538:	83 f8 00             	cmp    $0x0,%eax
  10e53b:	0f 95 c2             	setne  %dl
  10e53e:	80 e2 01             	and    $0x1,%dl
  10e541:	0f b6 c2             	movzbl %dl,%eax
  10e544:	48 83 c4 18          	add    $0x18,%rsp
  10e548:	c3                   	retq   
  10e549:	48 8d 3d 40 2a 00 00 	lea    0x2a40(%rip),%rdi        # 110f90 <panic_loc14802>
  10e550:	e8 3b 6f ff ff       	callq  105490 <_ZN4core9panicking5panic17h585bd70cda921012E>
  10e555:	66 2e 0f 1f 84 00 00 	nopw   %cs:0x0(%rax,%rax,1)
  10e55c:	00 00 00 
  10e55f:	90                   	nop

000000000010e560 <_ZN4core3fmt9Formatter9alternate17hedee0dabaf053b3fE>:
  10e560:	48 83 ec 18          	sub    $0x18,%rsp
  10e564:	48 89 7c 24 08       	mov    %rdi,0x8(%rsp)
  10e569:	b8 01 00 00 00       	mov    $0x1,%eax
  10e56e:	48 8b 4c 24 08       	mov    0x8(%rsp),%rcx
  10e573:	8b 11                	mov    (%rcx),%edx
  10e575:	c6 44 24 16 02       	movb   $0x2,0x16(%rsp)
  10e57a:	0f b6 74 24 16       	movzbl 0x16(%rsp),%esi
  10e57f:	89 f7                	mov    %esi,%edi
  10e581:	83 e7 e0             	and    $0xffffffe0,%edi
  10e584:	83 ff 00             	cmp    $0x0,%edi
  10e587:	41 0f 95 c0          	setne  %r8b
  10e58b:	83 e6 1f             	and    $0x1f,%esi
  10e58e:	89 f1                	mov    %esi,%ecx
  10e590:	d3 e0                	shl    %cl,%eax
  10e592:	41 f6 c0 01          	test   $0x1,%r8b
  10e596:	89 54 24 04          	mov    %edx,0x4(%rsp)
  10e59a:	89 04 24             	mov    %eax,(%rsp)
  10e59d:	75 1a                	jne    10e5b9 <_ZN4core3fmt9Formatter9alternate17hedee0dabaf053b3fE+0x59>
  10e59f:	8b 44 24 04          	mov    0x4(%rsp),%eax
  10e5a3:	8b 0c 24             	mov    (%rsp),%ecx
  10e5a6:	21 c8                	and    %ecx,%eax
  10e5a8:	83 f8 00             	cmp    $0x0,%eax
  10e5ab:	0f 95 c2             	setne  %dl
  10e5ae:	80 e2 01             	and    $0x1,%dl
  10e5b1:	0f b6 c2             	movzbl %dl,%eax
  10e5b4:	48 83 c4 18          	add    $0x18,%rsp
  10e5b8:	c3                   	retq   
  10e5b9:	48 8d 3d f8 29 00 00 	lea    0x29f8(%rip),%rdi        # 110fb8 <panic_loc14804>
  10e5c0:	e8 cb 6e ff ff       	callq  105490 <_ZN4core9panicking5panic17h585bd70cda921012E>
  10e5c5:	66 2e 0f 1f 84 00 00 	nopw   %cs:0x0(%rax,%rax,1)
  10e5cc:	00 00 00 
  10e5cf:	90                   	nop

000000000010e5d0 <_ZN4core3fmt9Formatter19sign_aware_zero_pad17ha28b9a96d4e18623E>:
  10e5d0:	48 83 ec 18          	sub    $0x18,%rsp
  10e5d4:	48 89 7c 24 08       	mov    %rdi,0x8(%rsp)
  10e5d9:	b8 01 00 00 00       	mov    $0x1,%eax
  10e5de:	48 8b 4c 24 08       	mov    0x8(%rsp),%rcx
  10e5e3:	8b 11                	mov    (%rcx),%edx
  10e5e5:	c6 44 24 16 03       	movb   $0x3,0x16(%rsp)
  10e5ea:	0f b6 74 24 16       	movzbl 0x16(%rsp),%esi
  10e5ef:	89 f7                	mov    %esi,%edi
  10e5f1:	83 e7 e0             	and    $0xffffffe0,%edi
  10e5f4:	83 ff 00             	cmp    $0x0,%edi
  10e5f7:	41 0f 95 c0          	setne  %r8b
  10e5fb:	83 e6 1f             	and    $0x1f,%esi
  10e5fe:	89 f1                	mov    %esi,%ecx
  10e600:	d3 e0                	shl    %cl,%eax
  10e602:	41 f6 c0 01          	test   $0x1,%r8b
  10e606:	89 54 24 04          	mov    %edx,0x4(%rsp)
  10e60a:	89 04 24             	mov    %eax,(%rsp)
  10e60d:	75 1a                	jne    10e629 <_ZN4core3fmt9Formatter19sign_aware_zero_pad17ha28b9a96d4e18623E+0x59>
  10e60f:	8b 44 24 04          	mov    0x4(%rsp),%eax
  10e613:	8b 0c 24             	mov    (%rsp),%ecx
  10e616:	21 c8                	and    %ecx,%eax
  10e618:	83 f8 00             	cmp    $0x0,%eax
  10e61b:	0f 95 c2             	setne  %dl
  10e61e:	80 e2 01             	and    $0x1,%dl
  10e621:	0f b6 c2             	movzbl %dl,%eax
  10e624:	48 83 c4 18          	add    $0x18,%rsp
  10e628:	c3                   	retq   
  10e629:	48 8d 3d b0 29 00 00 	lea    0x29b0(%rip),%rdi        # 110fe0 <panic_loc14805>
  10e630:	e8 5b 6e ff ff       	callq  105490 <_ZN4core9panicking5panic17h585bd70cda921012E>
  10e635:	66 2e 0f 1f 84 00 00 	nopw   %cs:0x0(%rax,%rax,1)
  10e63c:	00 00 00 
  10e63f:	90                   	nop

000000000010e640 <_ZN4core3fmt9Formatter11debug_tuple17h524ead03f4ecc241E>:
  10e640:	48 83 ec 28          	sub    $0x28,%rsp
  10e644:	48 89 f8             	mov    %rdi,%rax
  10e647:	48 89 44 24 20       	mov    %rax,0x20(%rsp)
  10e64c:	48 89 4c 24 18       	mov    %rcx,0x18(%rsp)
  10e651:	48 89 54 24 10       	mov    %rdx,0x10(%rsp)
  10e656:	48 89 74 24 08       	mov    %rsi,0x8(%rsp)
  10e65b:	48 89 3c 24          	mov    %rdi,(%rsp)
  10e65f:	eb 00                	jmp    10e661 <_ZN4core3fmt9Formatter11debug_tuple17h524ead03f4ecc241E+0x21>
  10e661:	48 8b 3c 24          	mov    (%rsp),%rdi
  10e665:	48 8b 74 24 08       	mov    0x8(%rsp),%rsi
  10e66a:	48 8b 54 24 10       	mov    0x10(%rsp),%rdx
  10e66f:	48 8b 4c 24 18       	mov    0x18(%rsp),%rcx
  10e674:	e8 67 d1 ff ff       	callq  10b7e0 <_ZN4core3fmt8builders15debug_tuple_new17hf61ac9313bea5f96E>
  10e679:	48 8b 44 24 20       	mov    0x20(%rsp),%rax
  10e67e:	48 83 c4 28          	add    $0x28,%rsp
  10e682:	c3                   	retq   
  10e683:	66 2e 0f 1f 84 00 00 	nopw   %cs:0x0(%rax,%rax,1)
  10e68a:	00 00 00 
  10e68d:	0f 1f 00             	nopl   (%rax)

000000000010e690 <_ZN53_$LT$$RF$$u27$a$u20$T$u20$as$u20$core..fmt..Debug$GT$3fmt17h3ec110f20d271748E>:
  10e690:	48 83 ec 28          	sub    $0x28,%rsp
  10e694:	48 89 7c 24 08       	mov    %rdi,0x8(%rsp)
  10e699:	48 89 34 24          	mov    %rsi,(%rsp)
  10e69d:	48 8b 44 24 08       	mov    0x8(%rsp),%rax
  10e6a2:	48 8b 38             	mov    (%rax),%rdi
  10e6a5:	48 8b 34 24          	mov    (%rsp),%rsi
  10e6a9:	e8 02 ba ff ff       	callq  10a0b0 <_ZN4core3fmt3num52_$LT$impl$u20$core..fmt..Debug$u20$for$u20$usize$GT$3fmt17h359521c9b9b729e5E>
  10e6ae:	88 44 24 17          	mov    %al,0x17(%rsp)
  10e6b2:	8a 44 24 17          	mov    0x17(%rsp),%al
  10e6b6:	88 44 24 18          	mov    %al,0x18(%rsp)
  10e6ba:	8a 44 24 18          	mov    0x18(%rsp),%al
  10e6be:	48 83 c4 28          	add    $0x28,%rsp
  10e6c2:	c3                   	retq   
  10e6c3:	66 2e 0f 1f 84 00 00 	nopw   %cs:0x0(%rax,%rax,1)
  10e6ca:	00 00 00 
  10e6cd:	0f 1f 00             	nopl   (%rax)

000000000010e6d0 <_ZN53_$LT$$RF$$u27$a$u20$T$u20$as$u20$core..fmt..Debug$GT$3fmt17h6646b6e44af2aa30E>:
  10e6d0:	48 83 ec 28          	sub    $0x28,%rsp
  10e6d4:	48 89 7c 24 08       	mov    %rdi,0x8(%rsp)
  10e6d9:	48 89 34 24          	mov    %rsi,(%rsp)
  10e6dd:	48 8b 44 24 08       	mov    0x8(%rsp),%rax
  10e6e2:	48 8b 38             	mov    (%rax),%rdi
  10e6e5:	48 8b 34 24          	mov    (%rsp),%rsi
  10e6e9:	e8 72 7d ff ff       	callq  106460 <_ZN66_$LT$core..option..Option$LT$T$GT$$u20$as$u20$core..fmt..Debug$GT$3fmt17h841936d8829c011cE>
  10e6ee:	88 44 24 17          	mov    %al,0x17(%rsp)
  10e6f2:	8a 44 24 17          	mov    0x17(%rsp),%al
  10e6f6:	88 44 24 18          	mov    %al,0x18(%rsp)
  10e6fa:	8a 44 24 18          	mov    0x18(%rsp),%al
  10e6fe:	48 83 c4 28          	add    $0x28,%rsp
  10e702:	c3                   	retq   
  10e703:	66 2e 0f 1f 84 00 00 	nopw   %cs:0x0(%rax,%rax,1)
  10e70a:	00 00 00 
  10e70d:	0f 1f 00             	nopl   (%rax)

000000000010e710 <_ZN53_$LT$$RF$$u27$a$u20$T$u20$as$u20$core..fmt..Debug$GT$3fmt17hc3d85421d3d13eb7E>:
  10e710:	48 83 ec 28          	sub    $0x28,%rsp
  10e714:	48 89 7c 24 08       	mov    %rdi,0x8(%rsp)
  10e719:	48 89 34 24          	mov    %rsi,(%rsp)
  10e71d:	48 8b 44 24 08       	mov    0x8(%rsp),%rax
  10e722:	48 8b 38             	mov    (%rax),%rdi
  10e725:	48 8b 48 08          	mov    0x8(%rax),%rcx
  10e729:	48 8b 34 24          	mov    (%rsp),%rsi
  10e72d:	ff 51 18             	callq  *0x18(%rcx)
  10e730:	88 44 24 17          	mov    %al,0x17(%rsp)
  10e734:	8a 44 24 17          	mov    0x17(%rsp),%al
  10e738:	88 44 24 18          	mov    %al,0x18(%rsp)
  10e73c:	8a 44 24 18          	mov    0x18(%rsp),%al
  10e740:	48 83 c4 28          	add    $0x28,%rsp
  10e744:	c3                   	retq   
  10e745:	66 2e 0f 1f 84 00 00 	nopw   %cs:0x0(%rax,%rax,1)
  10e74c:	00 00 00 
  10e74f:	90                   	nop

000000000010e750 <_ZN55_$LT$$RF$$u27$a$u20$T$u20$as$u20$core..fmt..Display$GT$3fmt17hd58574be7c4db377E>:
  10e750:	48 83 ec 28          	sub    $0x28,%rsp
  10e754:	48 89 7c 24 08       	mov    %rdi,0x8(%rsp)
  10e759:	48 89 34 24          	mov    %rsi,(%rsp)
  10e75d:	48 8b 44 24 08       	mov    0x8(%rsp),%rax
  10e762:	48 8b 38             	mov    (%rax),%rdi
  10e765:	48 8b 70 08          	mov    0x8(%rax),%rsi
  10e769:	48 8b 14 24          	mov    (%rsp),%rdx
  10e76d:	e8 1e 00 00 00       	callq  10e790 <_ZN42_$LT$str$u20$as$u20$core..fmt..Display$GT$3fmt17h5941eedd92b10712E>
  10e772:	88 44 24 17          	mov    %al,0x17(%rsp)
  10e776:	8a 44 24 17          	mov    0x17(%rsp),%al
  10e77a:	88 44 24 18          	mov    %al,0x18(%rsp)
  10e77e:	8a 44 24 18          	mov    0x18(%rsp),%al
  10e782:	48 83 c4 28          	add    $0x28,%rsp
  10e786:	c3                   	retq   
  10e787:	66 0f 1f 84 00 00 00 	nopw   0x0(%rax,%rax,1)
  10e78e:	00 00 

000000000010e790 <_ZN42_$LT$str$u20$as$u20$core..fmt..Display$GT$3fmt17h5941eedd92b10712E>:
  10e790:	48 83 ec 38          	sub    $0x38,%rsp
  10e794:	48 89 74 24 18       	mov    %rsi,0x18(%rsp)
  10e799:	48 89 7c 24 10       	mov    %rdi,0x10(%rsp)
  10e79e:	48 89 54 24 08       	mov    %rdx,0x8(%rsp)
  10e7a3:	48 8b 7c 24 08       	mov    0x8(%rsp),%rdi
  10e7a8:	48 8b 74 24 10       	mov    0x10(%rsp),%rsi
  10e7ad:	48 8b 54 24 18       	mov    0x18(%rsp),%rdx
  10e7b2:	e8 f9 e7 ff ff       	callq  10cfb0 <_ZN4core3fmt9Formatter3pad17h5c7e650ddbfaa5deE>
  10e7b7:	88 44 24 27          	mov    %al,0x27(%rsp)
  10e7bb:	8a 44 24 27          	mov    0x27(%rsp),%al
  10e7bf:	88 44 24 28          	mov    %al,0x28(%rsp)
  10e7c3:	8a 44 24 28          	mov    0x28(%rsp),%al
  10e7c7:	48 83 c4 38          	add    $0x38,%rsp
  10e7cb:	c3                   	retq   
  10e7cc:	0f 1f 40 00          	nopl   0x0(%rax)

000000000010e7d0 <_ZN4core4iter8iterator8Iterator5count28_$u7b$$u7b$closure$u7d$$u7d$17h1e17af01416d1f1aE>:
  10e7d0:	48 83 ec 28          	sub    $0x28,%rsp
  10e7d4:	48 89 74 24 18       	mov    %rsi,0x18(%rsp)
  10e7d9:	48 89 7c 24 10       	mov    %rdi,0x10(%rsp)
  10e7de:	89 54 24 0c          	mov    %edx,0xc(%rsp)
  10e7e2:	48 8b 44 24 18       	mov    0x18(%rsp),%rax
  10e7e7:	48 83 c0 01          	add    $0x1,%rax
  10e7eb:	0f 92 c1             	setb   %cl
  10e7ee:	f6 c1 01             	test   $0x1,%cl
  10e7f1:	48 89 04 24          	mov    %rax,(%rsp)
  10e7f5:	75 0b                	jne    10e802 <_ZN4core4iter8iterator8Iterator5count28_$u7b$$u7b$closure$u7d$$u7d$17h1e17af01416d1f1aE+0x32>
  10e7f7:	eb 00                	jmp    10e7f9 <_ZN4core4iter8iterator8Iterator5count28_$u7b$$u7b$closure$u7d$$u7d$17h1e17af01416d1f1aE+0x29>
  10e7f9:	48 8b 04 24          	mov    (%rsp),%rax
  10e7fd:	48 83 c4 28          	add    $0x28,%rsp
  10e801:	c3                   	retq   
  10e802:	48 8d 3d 3f 1f 00 00 	lea    0x1f3f(%rip),%rdi        # 110748 <panic_loc14443>
  10e809:	e8 82 6c ff ff       	callq  105490 <_ZN4core9panicking5panic17h585bd70cda921012E>
  10e80e:	66 90                	xchg   %ax,%ax

000000000010e810 <_ZN91_$LT$core..iter..Zip$LT$A$C$$u20$B$GT$$u20$as$u20$core..iter..ZipImpl$LT$A$C$$u20$B$GT$$GT$4next28_$u7b$$u7b$closure$u7d$$u7d$17h23745bc6daa90f4fE>:
  10e810:	48 83 ec 48          	sub    $0x48,%rsp
  10e814:	48 89 f8             	mov    %rdi,%rax
  10e817:	48 89 74 24 38       	mov    %rsi,0x38(%rsp)
  10e81c:	48 8b 74 24 38       	mov    0x38(%rsp),%rsi
  10e821:	48 89 74 24 40       	mov    %rsi,0x40(%rsp)
  10e826:	48 89 44 24 18       	mov    %rax,0x18(%rsp)
  10e82b:	48 89 54 24 10       	mov    %rdx,0x10(%rsp)
  10e830:	48 89 7c 24 08       	mov    %rdi,0x8(%rsp)
  10e835:	48 8b 44 24 40       	mov    0x40(%rsp),%rax
  10e83a:	48 8b 00             	mov    (%rax),%rax
  10e83d:	48 83 c0 10          	add    $0x10,%rax
  10e841:	48 89 c7             	mov    %rax,%rdi
  10e844:	e8 17 74 ff ff       	callq  105c60 <_ZN75_$LT$$RF$$u27$a$u20$mut$u20$I$u20$as$u20$core..iter..iterator..Iterator$GT$4next17hc90f951317b168e2E>
  10e849:	48 89 44 24 30       	mov    %rax,0x30(%rsp)
  10e84e:	48 8b 44 24 10       	mov    0x10(%rsp),%rax
  10e853:	48 89 44 24 28       	mov    %rax,0x28(%rsp)
  10e858:	48 8b 74 24 30       	mov    0x30(%rsp),%rsi
  10e85d:	48 89 44 24 20       	mov    %rax,0x20(%rsp)
  10e862:	48 8b 54 24 20       	mov    0x20(%rsp),%rdx
  10e867:	48 8b 7c 24 08       	mov    0x8(%rsp),%rdi
  10e86c:	e8 ef 84 ff ff       	callq  106d60 <_ZN38_$LT$core..option..Option$LT$T$GT$$GT$8and_then17h8795c8b1f301c2d5E>
  10e871:	48 8b 44 24 18       	mov    0x18(%rsp),%rax
  10e876:	48 83 c4 48          	add    $0x48,%rsp
  10e87a:	c3                   	retq   
  10e87b:	0f 1f 44 00 00       	nopl   0x0(%rax,%rax,1)

000000000010e880 <_ZN91_$LT$core..iter..Zip$LT$A$C$$u20$B$GT$$u20$as$u20$core..iter..ZipImpl$LT$A$C$$u20$B$GT$$GT$4next28_$u7b$$u7b$closure$u7d$$u7d$28_$u7b$$u7b$closure$u7d$$u7d$17h53d18bde40aa8937E>:
  10e880:	48 83 ec 38          	sub    $0x38,%rsp
  10e884:	48 89 f8             	mov    %rdi,%rax
  10e887:	48 89 74 24 28       	mov    %rsi,0x28(%rsp)
  10e88c:	48 8b 74 24 28       	mov    0x28(%rsp),%rsi
  10e891:	48 89 74 24 30       	mov    %rsi,0x30(%rsp)
  10e896:	48 89 44 24 10       	mov    %rax,0x10(%rsp)
  10e89b:	48 89 54 24 08       	mov    %rdx,0x8(%rsp)
  10e8a0:	48 89 3c 24          	mov    %rdi,(%rsp)
  10e8a4:	48 8b 44 24 30       	mov    0x30(%rsp),%rax
  10e8a9:	48 89 44 24 18       	mov    %rax,0x18(%rsp)
  10e8ae:	48 8b 44 24 08       	mov    0x8(%rsp),%rax
  10e8b3:	48 89 44 24 20       	mov    %rax,0x20(%rsp)
  10e8b8:	48 8b 4c 24 18       	mov    0x18(%rsp),%rcx
  10e8bd:	48 8b 54 24 20       	mov    0x20(%rsp),%rdx
  10e8c2:	48 8b 34 24          	mov    (%rsp),%rsi
  10e8c6:	48 89 0e             	mov    %rcx,(%rsi)
  10e8c9:	48 89 56 08          	mov    %rdx,0x8(%rsi)
  10e8cd:	eb 00                	jmp    10e8cf <_ZN91_$LT$core..iter..Zip$LT$A$C$$u20$B$GT$$u20$as$u20$core..iter..ZipImpl$LT$A$C$$u20$B$GT$$GT$4next28_$u7b$$u7b$closure$u7d$$u7d$28_$u7b$$u7b$closure$u7d$$u7d$17h53d18bde40aa8937E+0x4f>
  10e8cf:	48 8b 44 24 10       	mov    0x10(%rsp),%rax
  10e8d4:	48 83 c4 38          	add    $0x38,%rsp
  10e8d8:	c3                   	retq   
  10e8d9:	0f 1f 80 00 00 00 00 	nopl   0x0(%rax)

000000000010e8e0 <_ZN91_$LT$core..iter..Zip$LT$A$C$$u20$B$GT$$u20$as$u20$core..iter..ZipImpl$LT$A$C$$u20$B$GT$$GT$4next28_$u7b$$u7b$closure$u7d$$u7d$17hc2c419ad42de2db8E>:
  10e8e0:	48 83 ec 48          	sub    $0x48,%rsp
  10e8e4:	48 89 f8             	mov    %rdi,%rax
  10e8e7:	48 89 74 24 38       	mov    %rsi,0x38(%rsp)
  10e8ec:	48 8b 74 24 38       	mov    0x38(%rsp),%rsi
  10e8f1:	48 89 74 24 40       	mov    %rsi,0x40(%rsp)
  10e8f6:	48 89 44 24 18       	mov    %rax,0x18(%rsp)
  10e8fb:	48 89 54 24 10       	mov    %rdx,0x10(%rsp)
  10e900:	48 89 7c 24 08       	mov    %rdi,0x8(%rsp)
  10e905:	48 8b 44 24 40       	mov    0x40(%rsp),%rax
  10e90a:	48 8b 00             	mov    (%rax),%rax
  10e90d:	48 83 c0 10          	add    $0x10,%rax
  10e911:	48 89 c7             	mov    %rax,%rdi
  10e914:	e8 47 73 ff ff       	callq  105c60 <_ZN75_$LT$$RF$$u27$a$u20$mut$u20$I$u20$as$u20$core..iter..iterator..Iterator$GT$4next17hc90f951317b168e2E>
  10e919:	48 89 44 24 30       	mov    %rax,0x30(%rsp)
  10e91e:	48 8b 44 24 10       	mov    0x10(%rsp),%rax
  10e923:	48 89 44 24 28       	mov    %rax,0x28(%rsp)
  10e928:	48 8b 74 24 30       	mov    0x30(%rsp),%rsi
  10e92d:	48 89 44 24 20       	mov    %rax,0x20(%rsp)
  10e932:	48 8b 54 24 20       	mov    0x20(%rsp),%rdx
  10e937:	48 8b 7c 24 08       	mov    0x8(%rsp),%rdi
  10e93c:	e8 1f 80 ff ff       	callq  106960 <_ZN38_$LT$core..option..Option$LT$T$GT$$GT$8and_then17h029cbf8a76b53644E>
  10e941:	48 8b 44 24 18       	mov    0x18(%rsp),%rax
  10e946:	48 83 c4 48          	add    $0x48,%rsp
  10e94a:	c3                   	retq   
  10e94b:	0f 1f 44 00 00       	nopl   0x0(%rax,%rax,1)

000000000010e950 <_ZN91_$LT$core..iter..Zip$LT$A$C$$u20$B$GT$$u20$as$u20$core..iter..ZipImpl$LT$A$C$$u20$B$GT$$GT$4next28_$u7b$$u7b$closure$u7d$$u7d$28_$u7b$$u7b$closure$u7d$$u7d$17h4f8e04c69bc1596dE>:
  10e950:	48 83 ec 38          	sub    $0x38,%rsp
  10e954:	48 89 f8             	mov    %rdi,%rax
  10e957:	48 89 74 24 28       	mov    %rsi,0x28(%rsp)
  10e95c:	48 8b 74 24 28       	mov    0x28(%rsp),%rsi
  10e961:	48 89 74 24 30       	mov    %rsi,0x30(%rsp)
  10e966:	48 89 44 24 10       	mov    %rax,0x10(%rsp)
  10e96b:	48 89 54 24 08       	mov    %rdx,0x8(%rsp)
  10e970:	48 89 3c 24          	mov    %rdi,(%rsp)
  10e974:	48 8b 44 24 30       	mov    0x30(%rsp),%rax
  10e979:	48 89 44 24 18       	mov    %rax,0x18(%rsp)
  10e97e:	48 8b 44 24 08       	mov    0x8(%rsp),%rax
  10e983:	48 89 44 24 20       	mov    %rax,0x20(%rsp)
  10e988:	48 8b 4c 24 18       	mov    0x18(%rsp),%rcx
  10e98d:	48 8b 54 24 20       	mov    0x20(%rsp),%rdx
  10e992:	48 8b 34 24          	mov    (%rsp),%rsi
  10e996:	48 89 0e             	mov    %rcx,(%rsi)
  10e999:	48 89 56 08          	mov    %rdx,0x8(%rsi)
  10e99d:	eb 00                	jmp    10e99f <_ZN91_$LT$core..iter..Zip$LT$A$C$$u20$B$GT$$u20$as$u20$core..iter..ZipImpl$LT$A$C$$u20$B$GT$$GT$4next28_$u7b$$u7b$closure$u7d$$u7d$28_$u7b$$u7b$closure$u7d$$u7d$17h4f8e04c69bc1596dE+0x4f>
  10e99f:	48 8b 44 24 10       	mov    0x10(%rsp),%rax
  10e9a4:	48 83 c4 38          	add    $0x38,%rsp
  10e9a8:	c3                   	retq   
  10e9a9:	0f 1f 80 00 00 00 00 	nopl   0x0(%rax)

000000000010e9b0 <_ZN81_$LT$core..str..Chars$LT$$u27$a$GT$$u20$as$u20$core..iter..iterator..Iterator$GT$4next28_$u7b$$u7b$closure$u7d$$u7d$17h13ac70b42b84f528E>:
  10e9b0:	48 83 ec 18          	sub    $0x18,%rsp
  10e9b4:	89 7c 24 10          	mov    %edi,0x10(%rsp)
  10e9b8:	8b 7c 24 10          	mov    0x10(%rsp),%edi
  10e9bc:	e8 2f 68 ff ff       	callq  1051f0 <_ZN4core4char18from_u32_unchecked17heed2252c05bdacdfE>
  10e9c1:	89 44 24 0c          	mov    %eax,0xc(%rsp)
  10e9c5:	8b 44 24 0c          	mov    0xc(%rsp),%eax
  10e9c9:	48 83 c4 18          	add    $0x18,%rsp
  10e9cd:	c3                   	retq   
  10e9ce:	66 90                	xchg   %ax,%ax

000000000010e9d0 <_ZN41_$LT$str$u20$as$u20$core..str..StrExt$GT$4find28_$u7b$$u7b$closure$u7d$$u7d$17h08e2bad1a9f1fd96E>:
  10e9d0:	48 83 ec 18          	sub    $0x18,%rsp
  10e9d4:	48 89 7c 24 08       	mov    %rdi,0x8(%rsp)
  10e9d9:	48 8b 44 24 08       	mov    0x8(%rsp),%rax
  10e9de:	48 8b 00             	mov    (%rax),%rax
  10e9e1:	48 89 04 24          	mov    %rax,(%rsp)
  10e9e5:	48 8b 04 24          	mov    (%rsp),%rax
  10e9e9:	48 83 c4 18          	add    $0x18,%rsp
  10e9ed:	c3                   	retq   
  10e9ee:	66 90                	xchg   %ax,%ax

000000000010e9f0 <_ZN4core3fmt9Formatter8getcount28_$u7b$$u7b$closure$u7d$$u7d$17h2c690faf203f9673E>:
  10e9f0:	48 83 ec 18          	sub    $0x18,%rsp
  10e9f4:	48 89 f8             	mov    %rdi,%rax
  10e9f7:	48 89 44 24 10       	mov    %rax,0x10(%rsp)
  10e9fc:	48 89 74 24 08       	mov    %rsi,0x8(%rsp)
  10ea01:	48 89 3c 24          	mov    %rdi,(%rsp)
  10ea05:	eb 00                	jmp    10ea07 <_ZN4core3fmt9Formatter8getcount28_$u7b$$u7b$closure$u7d$$u7d$17h2c690faf203f9673E+0x17>
  10ea07:	48 8b 3c 24          	mov    (%rsp),%rdi
  10ea0b:	48 8b 74 24 08       	mov    0x8(%rsp),%rsi
  10ea10:	e8 4b d5 ff ff       	callq  10bf60 <_ZN4core3fmt10ArgumentV18as_usize17h12d44cbb975a4941E>
  10ea15:	48 8b 44 24 10       	mov    0x10(%rsp),%rax
  10ea1a:	48 83 c4 18          	add    $0x18,%rsp
  10ea1e:	c3                   	retq   
  10ea1f:	90                   	nop

000000000010ea20 <_ZN4core3fmt8builders10DebugTuple5field28_$u7b$$u7b$closure$u7d$$u7d$17h70fc777e921e5034E>:
  10ea20:	53                   	push   %rbx
  10ea21:	48 81 ec 50 02 00 00 	sub    $0x250,%rsp
  10ea28:	48 89 bc 24 b0 00 00 	mov    %rdi,0xb0(%rsp)
  10ea2f:	00 
  10ea30:	48 8b 84 24 b0 00 00 	mov    0xb0(%rsp),%rax
  10ea37:	00 
  10ea38:	48 8b 08             	mov    (%rax),%rcx
  10ea3b:	48 8b 09             	mov    (%rcx),%rcx
  10ea3e:	48 83 79 10 00       	cmpq   $0x0,0x10(%rcx)
  10ea43:	76 38                	jbe    10ea7d <_ZN4core3fmt8builders10DebugTuple5field28_$u7b$$u7b$closure$u7d$$u7d$17h70fc777e921e5034E+0x5d>
  10ea45:	48 8d 05 a6 13 00 00 	lea    0x13a6(%rip),%rax        # 10fdf2 <str14759>
  10ea4c:	48 8d 0d 9d 13 00 00 	lea    0x139d(%rip),%rcx        # 10fdf0 <str14754>
  10ea53:	48 89 8c 24 f8 01 00 	mov    %rcx,0x1f8(%rsp)
  10ea5a:	00 
  10ea5b:	48 c7 84 24 00 02 00 	movq   $0x1,0x200(%rsp)
  10ea62:	00 01 00 00 00 
  10ea67:	48 89 84 24 08 02 00 	mov    %rax,0x208(%rsp)
  10ea6e:	00 
  10ea6f:	48 c7 84 24 10 02 00 	movq   $0x1,0x210(%rsp)
  10ea76:	00 01 00 00 00 
  10ea7b:	eb 36                	jmp    10eab3 <_ZN4core3fmt8builders10DebugTuple5field28_$u7b$$u7b$closure$u7d$$u7d$17h70fc777e921e5034E+0x93>
  10ea7d:	48 8d 05 15 0e 00 00 	lea    0xe15(%rip),%rax        # 10f899 <ref14129>
  10ea84:	48 8d 0d 68 13 00 00 	lea    0x1368(%rip),%rcx        # 10fdf3 <str14764>
  10ea8b:	48 89 8c 24 f8 01 00 	mov    %rcx,0x1f8(%rsp)
  10ea92:	00 
  10ea93:	48 c7 84 24 00 02 00 	movq   $0x1,0x200(%rsp)
  10ea9a:	00 01 00 00 00 
  10ea9f:	48 89 84 24 08 02 00 	mov    %rax,0x208(%rsp)
  10eaa6:	00 
  10eaa7:	48 c7 84 24 10 02 00 	movq   $0x0,0x210(%rsp)
  10eaae:	00 00 00 00 00 
  10eab3:	48 8b 84 24 f8 01 00 	mov    0x1f8(%rsp),%rax
  10eaba:	00 
  10eabb:	48 8b 8c 24 00 02 00 	mov    0x200(%rsp),%rcx
  10eac2:	00 
  10eac3:	48 89 84 24 38 02 00 	mov    %rax,0x238(%rsp)
  10eaca:	00 
  10eacb:	48 89 8c 24 40 02 00 	mov    %rcx,0x240(%rsp)
  10ead2:	00 
  10ead3:	48 8b 84 24 08 02 00 	mov    0x208(%rsp),%rax
  10eada:	00 
  10eadb:	48 8b 8c 24 10 02 00 	mov    0x210(%rsp),%rcx
  10eae2:	00 
  10eae3:	48 89 84 24 28 02 00 	mov    %rax,0x228(%rsp)
  10eaea:	00 
  10eaeb:	48 89 8c 24 30 02 00 	mov    %rcx,0x230(%rsp)
  10eaf2:	00 
  10eaf3:	48 8b 84 24 b0 00 00 	mov    0xb0(%rsp),%rax
  10eafa:	00 
  10eafb:	48 8b 08             	mov    (%rax),%rcx
  10eafe:	48 8b 39             	mov    (%rcx),%rdi
  10eb01:	e8 da ce ff ff       	callq  10b9e0 <_ZN4core3fmt8builders10DebugTuple9is_pretty17hfab0ceeeee73d23eE>
  10eb06:	88 84 24 af 00 00 00 	mov    %al,0xaf(%rsp)
  10eb0d:	8a 84 24 af 00 00 00 	mov    0xaf(%rsp),%al
  10eb14:	a8 01                	test   $0x1,%al
  10eb16:	75 02                	jne    10eb1a <_ZN4core3fmt8builders10DebugTuple5field28_$u7b$$u7b$closure$u7d$$u7d$17h70fc777e921e5034E+0xfa>
  10eb18:	eb 23                	jmp    10eb3d <_ZN4core3fmt8builders10DebugTuple5field28_$u7b$$u7b$closure$u7d$$u7d$17h70fc777e921e5034E+0x11d>
  10eb1a:	48 8d bc 24 18 02 00 	lea    0x218(%rsp),%rdi
  10eb21:	00 
  10eb22:	48 8b 84 24 b0 00 00 	mov    0xb0(%rsp),%rax
  10eb29:	00 
  10eb2a:	48 8b 08             	mov    (%rax),%rcx
  10eb2d:	48 8b 09             	mov    (%rcx),%rcx
  10eb30:	48 8b 31             	mov    (%rcx),%rsi
  10eb33:	e8 c8 c9 ff ff       	callq  10b500 <_ZN4core3fmt8builders10PadAdapter3new17h337c583503d0cab8E>
  10eb38:	e9 c9 00 00 00       	jmpq   10ec06 <_ZN4core3fmt8builders10DebugTuple5field28_$u7b$$u7b$closure$u7d$$u7d$17h70fc777e921e5034E+0x1e6>
  10eb3d:	48 8d bc 24 08 01 00 	lea    0x108(%rsp),%rdi
  10eb44:	00 
  10eb45:	48 8d 15 04 fc ff ff 	lea    -0x3fc(%rip),%rdx        # 10e750 <_ZN55_$LT$$RF$$u27$a$u20$T$u20$as$u20$core..fmt..Display$GT$3fmt17hd58574be7c4db377E>
  10eb4c:	48 8d 84 24 28 02 00 	lea    0x228(%rsp),%rax
  10eb53:	00 
  10eb54:	48 8d 8c 24 38 02 00 	lea    0x238(%rsp),%rcx
  10eb5b:	00 
  10eb5c:	48 8b b4 24 b0 00 00 	mov    0xb0(%rsp),%rsi
  10eb63:	00 
  10eb64:	4c 8b 06             	mov    (%rsi),%r8
  10eb67:	4d 8b 00             	mov    (%r8),%r8
  10eb6a:	4d 8b 00             	mov    (%r8),%r8
  10eb6d:	48 8b 35 c4 1a 00 00 	mov    0x1ac4(%rip),%rsi        # 110638 <_ZN4core5slice74_$LT$impl$u20$core..ops..IndexMut$LT$usize$GT$$u20$for$u20$$u5b$T$u5d$$GT$9index_mut14_MSG_FILE_LINE17hdc6d73d2b1d0e93cE+0x110>
  10eb74:	4c 8b 0d c5 1a 00 00 	mov    0x1ac5(%rip),%r9        # 110640 <_ZN4core5slice74_$LT$impl$u20$core..ops..IndexMut$LT$usize$GT$$u20$for$u20$$u5b$T$u5d$$GT$9index_mut14_MSG_FILE_LINE17hdc6d73d2b1d0e93cE+0x118>
  10eb7b:	4c 8b 94 24 b0 00 00 	mov    0xb0(%rsp),%r10
  10eb82:	00 
  10eb83:	4d 8b 5a 08          	mov    0x8(%r10),%r11
  10eb87:	48 89 8c 24 20 01 00 	mov    %rcx,0x120(%rsp)
  10eb8e:	00 
  10eb8f:	48 89 84 24 28 01 00 	mov    %rax,0x128(%rsp)
  10eb96:	00 
  10eb97:	4c 89 9c 24 30 01 00 	mov    %r11,0x130(%rsp)
  10eb9e:	00 
  10eb9f:	48 8b 84 24 20 01 00 	mov    0x120(%rsp),%rax
  10eba6:	00 
  10eba7:	48 8b 8c 24 28 01 00 	mov    0x128(%rsp),%rcx
  10ebae:	00 
  10ebaf:	4c 8b 9c 24 30 01 00 	mov    0x130(%rsp),%r11
  10ebb6:	00 
  10ebb7:	48 89 b4 24 a0 00 00 	mov    %rsi,0xa0(%rsp)
  10ebbe:	00 
  10ebbf:	48 89 c6             	mov    %rax,%rsi
  10ebc2:	4c 89 9c 24 98 00 00 	mov    %r11,0x98(%rsp)
  10ebc9:	00 
  10ebca:	4c 89 84 24 90 00 00 	mov    %r8,0x90(%rsp)
  10ebd1:	00 
  10ebd2:	4c 89 8c 24 88 00 00 	mov    %r9,0x88(%rsp)
  10ebd9:	00 
  10ebda:	48 89 8c 24 80 00 00 	mov    %rcx,0x80(%rsp)
  10ebe1:	00 
  10ebe2:	e8 b9 d1 ff ff       	callq  10bda0 <_ZN4core3fmt10ArgumentV13new17h710935a10de9157aE>
  10ebe7:	48 8b 84 24 08 01 00 	mov    0x108(%rsp),%rax
  10ebee:	00 
  10ebef:	48 8b 8c 24 10 01 00 	mov    0x110(%rsp),%rcx
  10ebf6:	00 
  10ebf7:	48 89 44 24 78       	mov    %rax,0x78(%rsp)
  10ebfc:	48 89 4c 24 70       	mov    %rcx,0x70(%rsp)
  10ec01:	e9 62 01 00 00       	jmpq   10ed68 <_ZN4core3fmt8builders10DebugTuple5field28_$u7b$$u7b$closure$u7d$$u7d$17h70fc777e921e5034E+0x348>
  10ec06:	48 8d bc 24 d0 00 00 	lea    0xd0(%rsp),%rdi
  10ec0d:	00 
  10ec0e:	48 8d 15 3b fb ff ff 	lea    -0x4c5(%rip),%rdx        # 10e750 <_ZN55_$LT$$RF$$u27$a$u20$T$u20$as$u20$core..fmt..Display$GT$3fmt17hd58574be7c4db377E>
  10ec15:	48 8d 84 24 38 02 00 	lea    0x238(%rsp),%rax
  10ec1c:	00 
  10ec1d:	48 8d 8c 24 18 02 00 	lea    0x218(%rsp),%rcx
  10ec24:	00 
  10ec25:	48 8b 35 ec 19 00 00 	mov    0x19ec(%rip),%rsi        # 110618 <_ZN4core5slice74_$LT$impl$u20$core..ops..IndexMut$LT$usize$GT$$u20$for$u20$$u5b$T$u5d$$GT$9index_mut14_MSG_FILE_LINE17hdc6d73d2b1d0e93cE+0xf0>
  10ec2c:	4c 8b 05 ed 19 00 00 	mov    0x19ed(%rip),%r8        # 110620 <_ZN4core5slice74_$LT$impl$u20$core..ops..IndexMut$LT$usize$GT$$u20$for$u20$$u5b$T$u5d$$GT$9index_mut14_MSG_FILE_LINE17hdc6d73d2b1d0e93cE+0xf8>
  10ec33:	4c 8b 8c 24 b0 00 00 	mov    0xb0(%rsp),%r9
  10ec3a:	00 
  10ec3b:	4d 8b 51 08          	mov    0x8(%r9),%r10
  10ec3f:	48 89 84 24 98 01 00 	mov    %rax,0x198(%rsp)
  10ec46:	00 
  10ec47:	4c 89 94 24 a0 01 00 	mov    %r10,0x1a0(%rsp)
  10ec4e:	00 
  10ec4f:	48 8b 84 24 98 01 00 	mov    0x198(%rsp),%rax
  10ec56:	00 
  10ec57:	4c 8b 94 24 a0 01 00 	mov    0x1a0(%rsp),%r10
  10ec5e:	00 
  10ec5f:	48 89 74 24 68       	mov    %rsi,0x68(%rsp)
  10ec64:	48 89 c6             	mov    %rax,%rsi
  10ec67:	4c 89 54 24 60       	mov    %r10,0x60(%rsp)
  10ec6c:	4c 89 44 24 58       	mov    %r8,0x58(%rsp)
  10ec71:	48 89 4c 24 50       	mov    %rcx,0x50(%rsp)
  10ec76:	e8 25 d1 ff ff       	callq  10bda0 <_ZN4core3fmt10ArgumentV13new17h710935a10de9157aE>
  10ec7b:	48 8b 84 24 d0 00 00 	mov    0xd0(%rsp),%rax
  10ec82:	00 
  10ec83:	48 8b 8c 24 d8 00 00 	mov    0xd8(%rsp),%rcx
  10ec8a:	00 
  10ec8b:	48 89 44 24 48       	mov    %rax,0x48(%rsp)
  10ec90:	48 89 4c 24 40       	mov    %rcx,0x40(%rsp)
  10ec95:	48 8d bc 24 c0 00 00 	lea    0xc0(%rsp),%rdi
  10ec9c:	00 
  10ec9d:	48 8d 15 6c fa ff ff 	lea    -0x594(%rip),%rdx        # 10e710 <_ZN53_$LT$$RF$$u27$a$u20$T$u20$as$u20$core..fmt..Debug$GT$3fmt17hc3d85421d3d13eb7E>
  10eca4:	48 8b 74 24 60       	mov    0x60(%rsp),%rsi
  10eca9:	e8 62 d1 ff ff       	callq  10be10 <_ZN4core3fmt10ArgumentV13new17h7efc0801b002f9b9E>
  10ecae:	48 8b 94 24 c0 00 00 	mov    0xc0(%rsp),%rdx
  10ecb5:	00 
  10ecb6:	48 8b b4 24 c8 00 00 	mov    0xc8(%rsp),%rsi
  10ecbd:	00 
  10ecbe:	48 89 54 24 38       	mov    %rdx,0x38(%rsp)
  10ecc3:	48 89 74 24 30       	mov    %rsi,0x30(%rsp)
  10ecc8:	48 8d bc 24 c8 01 00 	lea    0x1c8(%rsp),%rdi
  10eccf:	00 
  10ecd0:	b8 02 00 00 00       	mov    $0x2,%eax
  10ecd5:	41 89 c0             	mov    %eax,%r8d
  10ecd8:	48 8d 8c 24 a8 01 00 	lea    0x1a8(%rsp),%rcx
  10ecdf:	00 
  10ece0:	48 8b 54 24 48       	mov    0x48(%rsp),%rdx
  10ece5:	48 89 94 24 a8 01 00 	mov    %rdx,0x1a8(%rsp)
  10ecec:	00 
  10eced:	48 8b 74 24 40       	mov    0x40(%rsp),%rsi
  10ecf2:	48 89 b4 24 b0 01 00 	mov    %rsi,0x1b0(%rsp)
  10ecf9:	00 
  10ecfa:	4c 8b 4c 24 38       	mov    0x38(%rsp),%r9
  10ecff:	4c 89 8c 24 b8 01 00 	mov    %r9,0x1b8(%rsp)
  10ed06:	00 
  10ed07:	4c 8b 54 24 30       	mov    0x30(%rsp),%r10
  10ed0c:	4c 89 94 24 c0 01 00 	mov    %r10,0x1c0(%rsp)
  10ed13:	00 
  10ed14:	4c 8b 0d 0d 19 00 00 	mov    0x190d(%rip),%r9        # 110628 <_ZN4core5slice74_$LT$impl$u20$core..ops..IndexMut$LT$usize$GT$$u20$for$u20$$u5b$T$u5d$$GT$9index_mut14_MSG_FILE_LINE17hdc6d73d2b1d0e93cE+0x100>
  10ed1b:	4c 8b 1d 0e 19 00 00 	mov    0x190e(%rip),%r11        # 110630 <_ZN4core5slice74_$LT$impl$u20$core..ops..IndexMut$LT$usize$GT$$u20$for$u20$$u5b$T$u5d$$GT$9index_mut14_MSG_FILE_LINE17hdc6d73d2b1d0e93cE+0x108>
  10ed22:	48 8b 74 24 68       	mov    0x68(%rsp),%rsi
  10ed27:	48 8b 54 24 58       	mov    0x58(%rsp),%rdx
  10ed2c:	4c 89 1c 24          	mov    %r11,(%rsp)
  10ed30:	e8 fb d2 ff ff       	callq  10c030 <_ZN4core3fmt9Arguments16new_v1_formatted17hc5fd76bd8502e45fE>
  10ed35:	48 8d 35 0c 20 00 00 	lea    0x200c(%rip),%rsi        # 110d48 <vtable14755>
  10ed3c:	48 8d 94 24 c8 01 00 	lea    0x1c8(%rsp),%rdx
  10ed43:	00 
  10ed44:	48 8b 7c 24 50       	mov    0x50(%rsp),%rdi
  10ed49:	e8 f2 d3 ff ff       	callq  10c140 <_ZN4core3fmt5write17hdcfad2ffcde93598E>
  10ed4e:	88 84 24 bf 00 00 00 	mov    %al,0xbf(%rsp)
  10ed55:	8a 84 24 bf 00 00 00 	mov    0xbf(%rsp),%al
  10ed5c:	88 84 24 18 01 00 00 	mov    %al,0x118(%rsp)
  10ed63:	e9 11 01 00 00       	jmpq   10ee79 <_ZN4core3fmt8builders10DebugTuple5field28_$u7b$$u7b$closure$u7d$$u7d$17h70fc777e921e5034E+0x459>
  10ed68:	48 8d bc 24 f8 00 00 	lea    0xf8(%rsp),%rdi
  10ed6f:	00 
  10ed70:	48 8d 15 d9 f9 ff ff 	lea    -0x627(%rip),%rdx        # 10e750 <_ZN55_$LT$$RF$$u27$a$u20$T$u20$as$u20$core..fmt..Display$GT$3fmt17hd58574be7c4db377E>
  10ed77:	48 8b b4 24 80 00 00 	mov    0x80(%rsp),%rsi
  10ed7e:	00 
  10ed7f:	e8 1c d0 ff ff       	callq  10bda0 <_ZN4core3fmt10ArgumentV13new17h710935a10de9157aE>
  10ed84:	48 8b 94 24 f8 00 00 	mov    0xf8(%rsp),%rdx
  10ed8b:	00 
  10ed8c:	48 8b b4 24 00 01 00 	mov    0x100(%rsp),%rsi
  10ed93:	00 
  10ed94:	48 89 54 24 28       	mov    %rdx,0x28(%rsp)
  10ed99:	48 89 74 24 20       	mov    %rsi,0x20(%rsp)
  10ed9e:	48 8d bc 24 e8 00 00 	lea    0xe8(%rsp),%rdi
  10eda5:	00 
  10eda6:	48 8d 15 63 f9 ff ff 	lea    -0x69d(%rip),%rdx        # 10e710 <_ZN53_$LT$$RF$$u27$a$u20$T$u20$as$u20$core..fmt..Debug$GT$3fmt17hc3d85421d3d13eb7E>
  10edad:	48 8b b4 24 98 00 00 	mov    0x98(%rsp),%rsi
  10edb4:	00 
  10edb5:	e8 56 d0 ff ff       	callq  10be10 <_ZN4core3fmt10ArgumentV13new17h7efc0801b002f9b9E>
  10edba:	48 8b 94 24 e8 00 00 	mov    0xe8(%rsp),%rdx
  10edc1:	00 
  10edc2:	48 8b b4 24 f0 00 00 	mov    0xf0(%rsp),%rsi
  10edc9:	00 
  10edca:	48 89 54 24 18       	mov    %rdx,0x18(%rsp)
  10edcf:	48 89 74 24 10       	mov    %rsi,0x10(%rsp)
  10edd4:	48 8d bc 24 68 01 00 	lea    0x168(%rsp),%rdi
  10eddb:	00 
  10eddc:	b8 03 00 00 00       	mov    $0x3,%eax
  10ede1:	41 89 c0             	mov    %eax,%r8d
  10ede4:	48 8d 8c 24 38 01 00 	lea    0x138(%rsp),%rcx
  10edeb:	00 
  10edec:	48 8b 54 24 78       	mov    0x78(%rsp),%rdx
  10edf1:	48 89 94 24 38 01 00 	mov    %rdx,0x138(%rsp)
  10edf8:	00 
  10edf9:	48 8b 74 24 70       	mov    0x70(%rsp),%rsi
  10edfe:	48 89 b4 24 40 01 00 	mov    %rsi,0x140(%rsp)
  10ee05:	00 
  10ee06:	4c 8b 4c 24 28       	mov    0x28(%rsp),%r9
  10ee0b:	4c 89 8c 24 48 01 00 	mov    %r9,0x148(%rsp)
  10ee12:	00 
  10ee13:	4c 8b 54 24 20       	mov    0x20(%rsp),%r10
  10ee18:	4c 89 94 24 50 01 00 	mov    %r10,0x150(%rsp)
  10ee1f:	00 
  10ee20:	4c 8b 5c 24 18       	mov    0x18(%rsp),%r11
  10ee25:	4c 89 9c 24 58 01 00 	mov    %r11,0x158(%rsp)
  10ee2c:	00 
  10ee2d:	48 8b 5c 24 10       	mov    0x10(%rsp),%rbx
  10ee32:	48 89 9c 24 60 01 00 	mov    %rbx,0x160(%rsp)
  10ee39:	00 
  10ee3a:	48 8b b4 24 a0 00 00 	mov    0xa0(%rsp),%rsi
  10ee41:	00 
  10ee42:	48 8b 94 24 88 00 00 	mov    0x88(%rsp),%rdx
  10ee49:	00 
  10ee4a:	e8 71 d1 ff ff       	callq  10bfc0 <_ZN4core3fmt9Arguments6new_v117h2ee48eb28c0cff0aE>
  10ee4f:	48 8d b4 24 68 01 00 	lea    0x168(%rsp),%rsi
  10ee56:	00 
  10ee57:	48 8b bc 24 90 00 00 	mov    0x90(%rsp),%rdi
  10ee5e:	00 
  10ee5f:	e8 bc f5 ff ff       	callq  10e420 <_ZN4core3fmt9Formatter9write_fmt17h38becee21ffb4824E>
  10ee64:	88 84 24 e7 00 00 00 	mov    %al,0xe7(%rsp)
  10ee6b:	8a 84 24 e7 00 00 00 	mov    0xe7(%rsp),%al
  10ee72:	88 84 24 18 01 00 00 	mov    %al,0x118(%rsp)
  10ee79:	8a 84 24 18 01 00 00 	mov    0x118(%rsp),%al
  10ee80:	48 81 c4 50 02 00 00 	add    $0x250,%rsp
  10ee87:	5b                   	pop    %rbx
  10ee88:	c3                   	retq   
  10ee89:	0f 1f 80 00 00 00 00 	nopl   0x0(%rax)

000000000010ee90 <_ZN4core3fmt8builders10DebugTuple6finish28_$u7b$$u7b$closure$u7d$$u7d$17h70d154af4296576fE>:
  10ee90:	48 83 ec 48          	sub    $0x48,%rsp
  10ee94:	48 89 7c 24 30       	mov    %rdi,0x30(%rsp)
  10ee99:	48 8b 7c 24 30       	mov    0x30(%rsp),%rdi
  10ee9e:	48 89 7c 24 38       	mov    %rdi,0x38(%rsp)
  10eea3:	48 8b 44 24 38       	mov    0x38(%rsp),%rax
  10eea8:	48 8b 38             	mov    (%rax),%rdi
  10eeab:	e8 30 cb ff ff       	callq  10b9e0 <_ZN4core3fmt8builders10DebugTuple9is_pretty17hfab0ceeeee73d23eE>
  10eeb0:	88 44 24 04          	mov    %al,0x4(%rsp)
  10eeb4:	8a 44 24 04          	mov    0x4(%rsp),%al
  10eeb8:	a8 01                	test   $0x1,%al
  10eeba:	75 02                	jne    10eebe <_ZN4core3fmt8builders10DebugTuple6finish28_$u7b$$u7b$closure$u7d$$u7d$17h70d154af4296576fE+0x2e>
  10eebc:	eb 2c                	jmp    10eeea <_ZN4core3fmt8builders10DebugTuple6finish28_$u7b$$u7b$closure$u7d$$u7d$17h70d154af4296576fE+0x5a>
  10eebe:	48 8d 35 2c 0f 00 00 	lea    0xf2c(%rip),%rsi        # 10fdf1 <str14756>
  10eec5:	b8 01 00 00 00       	mov    $0x1,%eax
  10eeca:	89 c2                	mov    %eax,%edx
  10eecc:	48 8b 4c 24 38       	mov    0x38(%rsp),%rcx
  10eed1:	48 8b 09             	mov    (%rcx),%rcx
  10eed4:	48 8b 39             	mov    (%rcx),%rdi
  10eed7:	e8 f4 f4 ff ff       	callq  10e3d0 <_ZN4core3fmt9Formatter9write_str17he56f8161327f9d8fE>
  10eedc:	88 44 24 07          	mov    %al,0x7(%rsp)
  10eee0:	8a 44 24 07          	mov    0x7(%rsp),%al
  10eee4:	88 44 24 20          	mov    %al,0x20(%rsp)
  10eee8:	eb 02                	jmp    10eeec <_ZN4core3fmt8builders10DebugTuple6finish28_$u7b$$u7b$closure$u7d$$u7d$17h70d154af4296576fE+0x5c>
  10eeea:	eb 34                	jmp    10ef20 <_ZN4core3fmt8builders10DebugTuple6finish28_$u7b$$u7b$closure$u7d$$u7d$17h70d154af4296576fE+0x90>
  10eeec:	8a 44 24 20          	mov    0x20(%rsp),%al
  10eef0:	84 c0                	test   %al,%al
  10eef2:	88 44 24 03          	mov    %al,0x3(%rsp)
  10eef6:	74 13                	je     10ef0b <_ZN4core3fmt8builders10DebugTuple6finish28_$u7b$$u7b$closure$u7d$$u7d$17h70d154af4296576fE+0x7b>
  10eef8:	eb 00                	jmp    10eefa <_ZN4core3fmt8builders10DebugTuple6finish28_$u7b$$u7b$closure$u7d$$u7d$17h70d154af4296576fE+0x6a>
  10eefa:	8a 44 24 03          	mov    0x3(%rsp),%al
  10eefe:	2c 01                	sub    $0x1,%al
  10ef00:	88 44 24 02          	mov    %al,0x2(%rsp)
  10ef04:	74 07                	je     10ef0d <_ZN4core3fmt8builders10DebugTuple6finish28_$u7b$$u7b$closure$u7d$$u7d$17h70d154af4296576fE+0x7d>
  10ef06:	e9 d4 00 00 00       	jmpq   10efdf <_ZN4core3fmt8builders10DebugTuple6finish28_$u7b$$u7b$closure$u7d$$u7d$17h70d154af4296576fE+0x14f>
  10ef0b:	eb 13                	jmp    10ef20 <_ZN4core3fmt8builders10DebugTuple6finish28_$u7b$$u7b$closure$u7d$$u7d$17h70d154af4296576fE+0x90>
  10ef0d:	e8 ce 62 ff ff       	callq  1051e0 <_ZN50_$LT$T$u20$as$u20$core..convert..From$LT$T$GT$$GT$4from17hde9d3f996ad54071E>
  10ef12:	c6 44 24 08 01       	movb   $0x1,0x8(%rsp)
  10ef17:	8a 44 24 08          	mov    0x8(%rsp),%al
  10ef1b:	48 83 c4 48          	add    $0x48,%rsp
  10ef1f:	c3                   	retq   
  10ef20:	48 8b 44 24 38       	mov    0x38(%rsp),%rax
  10ef25:	48 8b 00             	mov    (%rax),%rax
  10ef28:	48 83 78 10 01       	cmpq   $0x1,0x10(%rax)
  10ef2d:	74 10                	je     10ef3f <_ZN4core3fmt8builders10DebugTuple6finish28_$u7b$$u7b$closure$u7d$$u7d$17h70d154af4296576fE+0xaf>
  10ef2f:	eb 07                	jmp    10ef38 <_ZN4core3fmt8builders10DebugTuple6finish28_$u7b$$u7b$closure$u7d$$u7d$17h70d154af4296576fE+0xa8>
  10ef31:	c6 44 24 17 01       	movb   $0x1,0x17(%rsp)
  10ef36:	eb 17                	jmp    10ef4f <_ZN4core3fmt8builders10DebugTuple6finish28_$u7b$$u7b$closure$u7d$$u7d$17h70d154af4296576fE+0xbf>
  10ef38:	c6 44 24 17 00       	movb   $0x0,0x17(%rsp)
  10ef3d:	eb 10                	jmp    10ef4f <_ZN4core3fmt8builders10DebugTuple6finish28_$u7b$$u7b$closure$u7d$$u7d$17h70d154af4296576fE+0xbf>
  10ef3f:	48 8b 44 24 38       	mov    0x38(%rsp),%rax
  10ef44:	48 8b 00             	mov    (%rax),%rax
  10ef47:	f6 40 18 01          	testb  $0x1,0x18(%rax)
  10ef4b:	75 e4                	jne    10ef31 <_ZN4core3fmt8builders10DebugTuple6finish28_$u7b$$u7b$closure$u7d$$u7d$17h70d154af4296576fE+0xa1>
  10ef4d:	eb e9                	jmp    10ef38 <_ZN4core3fmt8builders10DebugTuple6finish28_$u7b$$u7b$closure$u7d$$u7d$17h70d154af4296576fE+0xa8>
  10ef4f:	f6 44 24 17 01       	testb  $0x1,0x17(%rsp)
  10ef54:	74 2c                	je     10ef82 <_ZN4core3fmt8builders10DebugTuple6finish28_$u7b$$u7b$closure$u7d$$u7d$17h70d154af4296576fE+0xf2>
  10ef56:	48 8d 35 93 0e 00 00 	lea    0xe93(%rip),%rsi        # 10fdf0 <str14754>
  10ef5d:	b8 01 00 00 00       	mov    $0x1,%eax
  10ef62:	89 c2                	mov    %eax,%edx
  10ef64:	48 8b 4c 24 38       	mov    0x38(%rsp),%rcx
  10ef69:	48 8b 09             	mov    (%rcx),%rcx
  10ef6c:	48 8b 39             	mov    (%rcx),%rdi
  10ef6f:	e8 5c f4 ff ff       	callq  10e3d0 <_ZN4core3fmt9Formatter9write_str17he56f8161327f9d8fE>
  10ef74:	88 44 24 06          	mov    %al,0x6(%rsp)
  10ef78:	8a 44 24 06          	mov    0x6(%rsp),%al
  10ef7c:	88 44 24 10          	mov    %al,0x10(%rsp)
  10ef80:	eb 02                	jmp    10ef84 <_ZN4core3fmt8builders10DebugTuple6finish28_$u7b$$u7b$closure$u7d$$u7d$17h70d154af4296576fE+0xf4>
  10ef82:	eb 2c                	jmp    10efb0 <_ZN4core3fmt8builders10DebugTuple6finish28_$u7b$$u7b$closure$u7d$$u7d$17h70d154af4296576fE+0x120>
  10ef84:	8a 44 24 10          	mov    0x10(%rsp),%al
  10ef88:	84 c0                	test   %al,%al
  10ef8a:	88 44 24 01          	mov    %al,0x1(%rsp)
  10ef8e:	74 0f                	je     10ef9f <_ZN4core3fmt8builders10DebugTuple6finish28_$u7b$$u7b$closure$u7d$$u7d$17h70d154af4296576fE+0x10f>
  10ef90:	eb 00                	jmp    10ef92 <_ZN4core3fmt8builders10DebugTuple6finish28_$u7b$$u7b$closure$u7d$$u7d$17h70d154af4296576fE+0x102>
  10ef92:	8a 44 24 01          	mov    0x1(%rsp),%al
  10ef96:	2c 01                	sub    $0x1,%al
  10ef98:	88 04 24             	mov    %al,(%rsp)
  10ef9b:	74 04                	je     10efa1 <_ZN4core3fmt8builders10DebugTuple6finish28_$u7b$$u7b$closure$u7d$$u7d$17h70d154af4296576fE+0x111>
  10ef9d:	eb 40                	jmp    10efdf <_ZN4core3fmt8builders10DebugTuple6finish28_$u7b$$u7b$closure$u7d$$u7d$17h70d154af4296576fE+0x14f>
  10ef9f:	eb 0f                	jmp    10efb0 <_ZN4core3fmt8builders10DebugTuple6finish28_$u7b$$u7b$closure$u7d$$u7d$17h70d154af4296576fE+0x120>
  10efa1:	e8 3a 62 ff ff       	callq  1051e0 <_ZN50_$LT$T$u20$as$u20$core..convert..From$LT$T$GT$$GT$4from17hde9d3f996ad54071E>
  10efa6:	c6 44 24 08 01       	movb   $0x1,0x8(%rsp)
  10efab:	e9 67 ff ff ff       	jmpq   10ef17 <_ZN4core3fmt8builders10DebugTuple6finish28_$u7b$$u7b$closure$u7d$$u7d$17h70d154af4296576fE+0x87>
  10efb0:	48 8d 35 c1 0e 00 00 	lea    0xec1(%rip),%rsi        # 10fe78 <str14769>
  10efb7:	b8 01 00 00 00       	mov    $0x1,%eax
  10efbc:	89 c2                	mov    %eax,%edx
  10efbe:	48 8b 4c 24 38       	mov    0x38(%rsp),%rcx
  10efc3:	48 8b 09             	mov    (%rcx),%rcx
  10efc6:	48 8b 39             	mov    (%rcx),%rdi
  10efc9:	e8 02 f4 ff ff       	callq  10e3d0 <_ZN4core3fmt9Formatter9write_str17he56f8161327f9d8fE>
  10efce:	88 44 24 05          	mov    %al,0x5(%rsp)
  10efd2:	8a 44 24 05          	mov    0x5(%rsp),%al
  10efd6:	88 44 24 08          	mov    %al,0x8(%rsp)
  10efda:	e9 38 ff ff ff       	jmpq   10ef17 <_ZN4core3fmt8builders10DebugTuple6finish28_$u7b$$u7b$closure$u7d$$u7d$17h70d154af4296576fE+0x87>
  10efdf:	90                   	nop

000000000010efe0 <_ZN4core3fmt9Formatter12pad_integral28_$u7b$$u7b$closure$u7d$$u7d$17hb0180034780c0952E>:
  10efe0:	48 81 ec a8 00 00 00 	sub    $0xa8,%rsp
  10efe7:	48 89 7c 24 50       	mov    %rdi,0x50(%rsp)
  10efec:	48 89 74 24 48       	mov    %rsi,0x48(%rsp)
  10eff1:	48 8b 44 24 50       	mov    0x50(%rsp),%rax
  10eff6:	48 8b 08             	mov    (%rax),%rcx
  10eff9:	8b 11                	mov    (%rcx),%edx
  10effb:	85 d2                	test   %edx,%edx
  10effd:	89 54 24 44          	mov    %edx,0x44(%rsp)
  10f001:	74 14                	je     10f017 <_ZN4core3fmt9Formatter12pad_integral28_$u7b$$u7b$closure$u7d$$u7d$17hb0180034780c0952E+0x37>
  10f003:	eb 00                	jmp    10f005 <_ZN4core3fmt9Formatter12pad_integral28_$u7b$$u7b$closure$u7d$$u7d$17hb0180034780c0952E+0x25>
  10f005:	8b 44 24 44          	mov    0x44(%rsp),%eax
  10f009:	83 e8 01             	sub    $0x1,%eax
  10f00c:	89 44 24 40          	mov    %eax,0x40(%rsp)
  10f010:	74 07                	je     10f019 <_ZN4core3fmt9Formatter12pad_integral28_$u7b$$u7b$closure$u7d$$u7d$17hb0180034780c0952E+0x39>
  10f012:	e9 1f 01 00 00       	jmpq   10f136 <_ZN4core3fmt9Formatter12pad_integral28_$u7b$$u7b$closure$u7d$$u7d$17hb0180034780c0952E+0x156>
  10f017:	eb 2e                	jmp    10f047 <_ZN4core3fmt9Formatter12pad_integral28_$u7b$$u7b$closure$u7d$$u7d$17hb0180034780c0952E+0x67>
  10f019:	48 8d 7c 24 70       	lea    0x70(%rsp),%rdi
  10f01e:	48 8b 44 24 50       	mov    0x50(%rsp),%rax
  10f023:	48 8b 08             	mov    (%rax),%rcx
  10f026:	8b 71 04             	mov    0x4(%rcx),%esi
  10f029:	48 8b 4c 24 48       	mov    0x48(%rsp),%rcx
  10f02e:	48 8b 51 30          	mov    0x30(%rcx),%rdx
  10f032:	4c 8b 41 38          	mov    0x38(%rcx),%r8
  10f036:	4c 89 44 24 38       	mov    %r8,0x38(%rsp)
  10f03b:	48 89 54 24 30       	mov    %rdx,0x30(%rsp)
  10f040:	e8 cb 61 ff ff       	callq  105210 <_ZN44_$LT$char$u20$as$u20$core..char..CharExt$GT$11encode_utf817h7df4fc3325f57883E>
  10f045:	eb 17                	jmp    10f05e <_ZN4core3fmt9Formatter12pad_integral28_$u7b$$u7b$closure$u7d$$u7d$17hb0180034780c0952E+0x7e>
  10f047:	48 8b 44 24 50       	mov    0x50(%rsp),%rax
  10f04c:	48 8b 48 08          	mov    0x8(%rax),%rcx
  10f050:	f6 01 01             	testb  $0x1,(%rcx)
  10f053:	0f 85 a5 00 00 00    	jne    10f0fe <_ZN4core3fmt9Formatter12pad_integral28_$u7b$$u7b$closure$u7d$$u7d$17hb0180034780c0952E+0x11e>
  10f059:	e9 d1 00 00 00       	jmpq   10f12f <_ZN4core3fmt9Formatter12pad_integral28_$u7b$$u7b$closure$u7d$$u7d$17hb0180034780c0952E+0x14f>
  10f05e:	48 8d 7c 24 70       	lea    0x70(%rsp),%rdi
  10f063:	e8 d8 63 ff ff       	callq  105440 <_ZN4core4char10EncodeUtf88as_slice17h087b7807397e0642E>
  10f068:	48 89 44 24 28       	mov    %rax,0x28(%rsp)
  10f06d:	48 89 54 24 20       	mov    %rdx,0x20(%rsp)
  10f072:	48 8b 44 24 28       	mov    0x28(%rsp),%rax
  10f077:	48 89 84 24 98 00 00 	mov    %rax,0x98(%rsp)
  10f07e:	00 
  10f07f:	48 8b 4c 24 20       	mov    0x20(%rsp),%rcx
  10f084:	48 89 8c 24 a0 00 00 	mov    %rcx,0xa0(%rsp)
  10f08b:	00 
  10f08c:	48 8b b4 24 98 00 00 	mov    0x98(%rsp),%rsi
  10f093:	00 
  10f094:	48 89 4c 24 18       	mov    %rcx,0x18(%rsp)
  10f099:	48 89 74 24 10       	mov    %rsi,0x10(%rsp)
  10f09e:	48 8b 7c 24 30       	mov    0x30(%rsp),%rdi
  10f0a3:	48 8b 74 24 10       	mov    0x10(%rsp),%rsi
  10f0a8:	48 8b 54 24 18       	mov    0x18(%rsp),%rdx
  10f0ad:	48 8b 44 24 38       	mov    0x38(%rsp),%rax
  10f0b2:	ff 50 18             	callq  *0x18(%rax)
  10f0b5:	88 44 24 5f          	mov    %al,0x5f(%rsp)
  10f0b9:	8a 44 24 5f          	mov    0x5f(%rsp),%al
  10f0bd:	88 84 24 80 00 00 00 	mov    %al,0x80(%rsp)
  10f0c4:	8a 84 24 80 00 00 00 	mov    0x80(%rsp),%al
  10f0cb:	84 c0                	test   %al,%al
  10f0cd:	88 44 24 0f          	mov    %al,0xf(%rsp)
  10f0d1:	74 10                	je     10f0e3 <_ZN4core3fmt9Formatter12pad_integral28_$u7b$$u7b$closure$u7d$$u7d$17hb0180034780c0952E+0x103>
  10f0d3:	eb 00                	jmp    10f0d5 <_ZN4core3fmt9Formatter12pad_integral28_$u7b$$u7b$closure$u7d$$u7d$17hb0180034780c0952E+0xf5>
  10f0d5:	8a 44 24 0f          	mov    0xf(%rsp),%al
  10f0d9:	2c 01                	sub    $0x1,%al
  10f0db:	88 44 24 0e          	mov    %al,0xe(%rsp)
  10f0df:	74 07                	je     10f0e8 <_ZN4core3fmt9Formatter12pad_integral28_$u7b$$u7b$closure$u7d$$u7d$17hb0180034780c0952E+0x108>
  10f0e1:	eb 53                	jmp    10f136 <_ZN4core3fmt9Formatter12pad_integral28_$u7b$$u7b$closure$u7d$$u7d$17hb0180034780c0952E+0x156>
  10f0e3:	e9 5f ff ff ff       	jmpq   10f047 <_ZN4core3fmt9Formatter12pad_integral28_$u7b$$u7b$closure$u7d$$u7d$17hb0180034780c0952E+0x67>
  10f0e8:	e8 f3 60 ff ff       	callq  1051e0 <_ZN50_$LT$T$u20$as$u20$core..convert..From$LT$T$GT$$GT$4from17hde9d3f996ad54071E>
  10f0ed:	c6 44 24 60 01       	movb   $0x1,0x60(%rsp)
  10f0f2:	8a 44 24 60          	mov    0x60(%rsp),%al
  10f0f6:	48 81 c4 a8 00 00 00 	add    $0xa8,%rsp
  10f0fd:	c3                   	retq   
  10f0fe:	48 8b 44 24 48       	mov    0x48(%rsp),%rax
  10f103:	48 8b 78 30          	mov    0x30(%rax),%rdi
  10f107:	48 8b 48 38          	mov    0x38(%rax),%rcx
  10f10b:	48 8b 54 24 50       	mov    0x50(%rsp),%rdx
  10f110:	48 8b 72 10          	mov    0x10(%rdx),%rsi
  10f114:	4c 8b 06             	mov    (%rsi),%r8
  10f117:	48 8b 56 08          	mov    0x8(%rsi),%rdx
  10f11b:	4c 89 c6             	mov    %r8,%rsi
  10f11e:	ff 51 18             	callq  *0x18(%rcx)
  10f121:	88 44 24 5e          	mov    %al,0x5e(%rsp)
  10f125:	8a 44 24 5e          	mov    0x5e(%rsp),%al
  10f129:	88 44 24 60          	mov    %al,0x60(%rsp)
  10f12d:	eb c3                	jmp    10f0f2 <_ZN4core3fmt9Formatter12pad_integral28_$u7b$$u7b$closure$u7d$$u7d$17hb0180034780c0952E+0x112>
  10f12f:	c6 44 24 60 00       	movb   $0x0,0x60(%rsp)
  10f134:	eb bc                	jmp    10f0f2 <_ZN4core3fmt9Formatter12pad_integral28_$u7b$$u7b$closure$u7d$$u7d$17hb0180034780c0952E+0x112>
  10f136:	66 2e 0f 1f 84 00 00 	nopw   %cs:0x0(%rax,%rax,1)
  10f13d:	00 00 00 

000000000010f140 <_ZN4core3fmt9Formatter12pad_integral28_$u7b$$u7b$closure$u7d$$u7d$17h26cad4afcf366cd1E>:
  10f140:	48 83 ec 48          	sub    $0x48,%rsp
  10f144:	48 89 7c 24 18       	mov    %rdi,0x18(%rsp)
  10f149:	48 89 74 24 10       	mov    %rsi,0x10(%rsp)
  10f14e:	48 8b 44 24 18       	mov    0x18(%rsp),%rax
  10f153:	48 8b 38             	mov    (%rax),%rdi
  10f156:	48 8b 4c 24 10       	mov    0x10(%rsp),%rcx
  10f15b:	48 89 4c 24 30       	mov    %rcx,0x30(%rsp)
  10f160:	48 89 ce             	mov    %rcx,%rsi
  10f163:	e8 78 fe ff ff       	callq  10efe0 <_ZN4core3fmt9Formatter12pad_integral28_$u7b$$u7b$closure$u7d$$u7d$17hb0180034780c0952E>
  10f168:	88 44 24 27          	mov    %al,0x27(%rsp)
  10f16c:	8a 44 24 27          	mov    0x27(%rsp),%al
  10f170:	88 44 24 38          	mov    %al,0x38(%rsp)
  10f174:	8a 44 24 38          	mov    0x38(%rsp),%al
  10f178:	84 c0                	test   %al,%al
  10f17a:	88 44 24 0f          	mov    %al,0xf(%rsp)
  10f17e:	74 10                	je     10f190 <_ZN4core3fmt9Formatter12pad_integral28_$u7b$$u7b$closure$u7d$$u7d$17h26cad4afcf366cd1E+0x50>
  10f180:	eb 00                	jmp    10f182 <_ZN4core3fmt9Formatter12pad_integral28_$u7b$$u7b$closure$u7d$$u7d$17h26cad4afcf366cd1E+0x42>
  10f182:	8a 44 24 0f          	mov    0xf(%rsp),%al
  10f186:	2c 01                	sub    $0x1,%al
  10f188:	88 44 24 0e          	mov    %al,0xe(%rsp)
  10f18c:	74 33                	je     10f1c1 <_ZN4core3fmt9Formatter12pad_integral28_$u7b$$u7b$closure$u7d$$u7d$17h26cad4afcf366cd1E+0x81>
  10f18e:	eb 44                	jmp    10f1d4 <_ZN4core3fmt9Formatter12pad_integral28_$u7b$$u7b$closure$u7d$$u7d$17h26cad4afcf366cd1E+0x94>
  10f190:	48 8b 44 24 10       	mov    0x10(%rsp),%rax
  10f195:	48 8b 78 30          	mov    0x30(%rax),%rdi
  10f199:	48 8b 48 38          	mov    0x38(%rax),%rcx
  10f19d:	48 8b 54 24 18       	mov    0x18(%rsp),%rdx
  10f1a2:	48 8b 72 08          	mov    0x8(%rdx),%rsi
  10f1a6:	4c 8b 06             	mov    (%rsi),%r8
  10f1a9:	48 8b 56 08          	mov    0x8(%rsi),%rdx
  10f1ad:	4c 89 c6             	mov    %r8,%rsi
  10f1b0:	ff 51 18             	callq  *0x18(%rcx)
  10f1b3:	88 44 24 26          	mov    %al,0x26(%rsp)
  10f1b7:	8a 44 24 26          	mov    0x26(%rsp),%al
  10f1bb:	88 44 24 28          	mov    %al,0x28(%rsp)
  10f1bf:	eb 0a                	jmp    10f1cb <_ZN4core3fmt9Formatter12pad_integral28_$u7b$$u7b$closure$u7d$$u7d$17h26cad4afcf366cd1E+0x8b>
  10f1c1:	e8 1a 60 ff ff       	callq  1051e0 <_ZN50_$LT$T$u20$as$u20$core..convert..From$LT$T$GT$$GT$4from17hde9d3f996ad54071E>
  10f1c6:	c6 44 24 28 01       	movb   $0x1,0x28(%rsp)
  10f1cb:	8a 44 24 28          	mov    0x28(%rsp),%al
  10f1cf:	48 83 c4 48          	add    $0x48,%rsp
  10f1d3:	c3                   	retq   
  10f1d4:	66 2e 0f 1f 84 00 00 	nopw   %cs:0x0(%rax,%rax,1)
  10f1db:	00 00 00 
  10f1de:	66 90                	xchg   %ax,%ax

000000000010f1e0 <_ZN4core3fmt9Formatter12pad_integral28_$u7b$$u7b$closure$u7d$$u7d$17h48c8183bf134a05aE>:
  10f1e0:	48 83 ec 38          	sub    $0x38,%rsp
  10f1e4:	48 89 7c 24 20       	mov    %rdi,0x20(%rsp)
  10f1e9:	48 8b 7c 24 20       	mov    0x20(%rsp),%rdi
  10f1ee:	48 89 7c 24 28       	mov    %rdi,0x28(%rsp)
  10f1f3:	48 89 74 24 08       	mov    %rsi,0x8(%rsp)
  10f1f8:	48 8b 44 24 08       	mov    0x8(%rsp),%rax
  10f1fd:	48 8b 78 30          	mov    0x30(%rax),%rdi
  10f201:	48 8b 48 38          	mov    0x38(%rax),%rcx
  10f205:	48 8b 54 24 28       	mov    0x28(%rsp),%rdx
  10f20a:	48 8b 32             	mov    (%rdx),%rsi
  10f20d:	48 8b 52 08          	mov    0x8(%rdx),%rdx
  10f211:	ff 51 18             	callq  *0x18(%rcx)
  10f214:	88 44 24 17          	mov    %al,0x17(%rsp)
  10f218:	8a 44 24 17          	mov    0x17(%rsp),%al
  10f21c:	88 44 24 18          	mov    %al,0x18(%rsp)
  10f220:	8a 44 24 18          	mov    0x18(%rsp),%al
  10f224:	48 83 c4 38          	add    $0x38,%rsp
  10f228:	c3                   	retq   
  10f229:	0f 1f 80 00 00 00 00 	nopl   0x0(%rax)

000000000010f230 <_ZN4core3fmt9Formatter3pad28_$u7b$$u7b$closure$u7d$$u7d$17h1999afa8ab84d6dbE>:
  10f230:	48 83 ec 38          	sub    $0x38,%rsp
  10f234:	48 89 7c 24 20       	mov    %rdi,0x20(%rsp)
  10f239:	48 8b 7c 24 20       	mov    0x20(%rsp),%rdi
  10f23e:	48 89 7c 24 28       	mov    %rdi,0x28(%rsp)
  10f243:	48 89 74 24 08       	mov    %rsi,0x8(%rsp)
  10f248:	48 8b 44 24 08       	mov    0x8(%rsp),%rax
  10f24d:	48 8b 78 30          	mov    0x30(%rax),%rdi
  10f251:	48 8b 48 38          	mov    0x38(%rax),%rcx
  10f255:	48 8b 54 24 28       	mov    0x28(%rsp),%rdx
  10f25a:	48 8b 32             	mov    (%rdx),%rsi
  10f25d:	48 8b 52 08          	mov    0x8(%rdx),%rdx
  10f261:	ff 51 18             	callq  *0x18(%rcx)
  10f264:	88 44 24 17          	mov    %al,0x17(%rsp)
  10f268:	8a 44 24 17          	mov    0x17(%rsp),%al
  10f26c:	88 44 24 18          	mov    %al,0x18(%rsp)
  10f270:	8a 44 24 18          	mov    0x18(%rsp),%al
  10f274:	48 83 c4 38          	add    $0x38,%rsp
  10f278:	c3                   	retq   
