
build/kernel-x86_64.bin:     file format elf64-x86-64


Disassembly of section .text:

0000000000100020 <long_mode_start>:
  100020:	e8 a1 00 00 00       	callq  1000c6 <ok>
  100025:	e8 18 00 00 00       	callq  100042 <setup_interrupt_handlers>
  10002a:	48 b8 4f 2f 4b 2f 41 	movabs $0x2f592f412f4b2f4f,%rax
  100031:	2f 59 2f 
  100034:	48 89 04 25 00 80 0b 	mov    %rax,0xb8000
  10003b:	00 
  10003c:	e8 9f 31 00 00       	callq  1031e0 <rust_main>
  100041:	f4                   	hlt    

0000000000100042 <setup_interrupt_handlers>:
  100042:	48 c7 04 25 02 20 11 	movq   $0x112006,0x112002
  100049:	00 06 20 11 00 
  10004e:	66 c7 04 25 00 20 11 	movw   $0x640,0x112000
  100055:	00 40 06 
  100058:	48 b8 d2 00 10 00 00 	movabs $0x1000d2,%rax
  10005f:	00 00 00 
  100062:	b9 63 00 00 00       	mov    $0x63,%ecx

0000000000100067 <setup_interrupt_handlers.setup_idt_loop>:
  100067:	89 cb                	mov    %ecx,%ebx
  100069:	c1 e3 04             	shl    $0x4,%ebx
  10006c:	81 c3 06 20 11 00    	add    $0x112006,%ebx
  100072:	66 67 89 03          	mov    %ax,(%ebx)
  100076:	48 c1 e8 08          	shr    $0x8,%rax
  10007a:	83 c3 02             	add    $0x2,%ebx
  10007d:	66 67 c7 03 01 00    	movw   $0x1,(%ebx)
  100083:	83 c3 02             	add    $0x2,%ebx
  100086:	67 c6 03 00          	movb   $0x0,(%ebx)
  10008a:	83 c3 01             	add    $0x1,%ebx
  10008d:	67 c6 03 0e          	movb   $0xe,(%ebx)
  100091:	83 c3 01             	add    $0x1,%ebx
  100094:	66 67 89 03          	mov    %ax,(%ebx)
  100098:	83 c3 02             	add    $0x2,%ebx
  10009b:	48 c1 e8 10          	shr    $0x10,%rax
  10009f:	67 89 03             	mov    %eax,(%ebx)
  1000a2:	83 c3 04             	add    $0x4,%ebx
  1000a5:	67 c7 03 00 00 00 00 	movl   $0x0,(%ebx)
  1000ac:	89 cb                	mov    %ecx,%ebx
  1000ae:	83 c3 21             	add    $0x21,%ebx
  1000b1:	66 89 1c 25 00 80 0b 	mov    %bx,0xb8000
  1000b8:	00 
  1000b9:	ff c9                	dec    %ecx
  1000bb:	75 aa                	jne    100067 <setup_interrupt_handlers.setup_idt_loop>
  1000bd:	0f 01 1c 25 00 20 11 	lidt   0x112000
  1000c4:	00 
  1000c5:	c3                   	retq   

00000000001000c6 <ok>:
  1000c6:	c7 04 25 00 80 0b 00 	movl   $0x2f4b2f4f,0xb8000
  1000cd:	4f 2f 4b 2f 
  1000d1:	c3                   	retq   

00000000001000d2 <i_ok>:
  1000d2:	c7 04 25 00 80 0b 00 	movl   $0x2f4b2f4f,0xb8000
  1000d9:	4f 2f 4b 2f 
  1000dd:	f4                   	hlt    
  1000de:	cf                   	iret   

00000000001000df <error>:
  1000df:	c7 04 25 00 80 0b 00 	movl   $0x2f524f45,0xb8000
  1000e6:	45 4f 52 2f 
  1000ea:	c7 04 25 04 80 0b 00 	movl   $0x4f3a4f52,0xb8004
  1000f1:	52 4f 3a 4f 
  1000f5:	c7 04 25 08 80 0b 00 	movl   $0x4f204f20,0xb8008
  1000fc:	20 4f 20 4f 
  100100:	88 04 25 0c 80 0b 00 	mov    %al,0xb800c
  100107:	f4                   	hlt    
  100108:	0f 1f 84 00 00 00 00 	nopl   0x0(%rax,%rax,1)
  10010f:	00 

0000000000100110 <start>:
  100110:	bc 00 64 11 00       	mov    $0x116400,%esp
  100115:	89 df                	mov    %ebx,%edi
  100117:	e8 36 00 00 00       	callq  100152 <check_multiboot>
  10011c:	e8 40 00 00 00       	callq  100161 <check_cpuid>
  100121:	e8 56 00 00 00       	callq  10017c <check_long_mode>
  100126:	e8 76 00 00 00       	callq  1001a1 <set_up_page_tables>
  10012b:	e8 aa 00 00 00       	callq  1001da <enable_paging>
  100130:	e8 d0 00 00 00       	callq  100205 <set_up_SSE>
  100135:	0f 01 15 c8 f2 10 00 	lgdt   0x10f2c8(%rip)        # 20f404 <stack_top+0xf9004>
  10013c:	66 b8 10 00          	mov    $0x10,%ax
  100140:	8e d0                	mov    %eax,%ss
  100142:	8e d8                	mov    %eax,%ds
  100144:	8e c0                	mov    %eax,%es
  100146:	ea                   	(bad)  
  100147:	20 00                	and    %al,(%rax)
  100149:	10 00                	adc    %al,(%rax)
  10014b:	08 00                	or     %al,(%rax)
  10014d:	e8 ea 00 00 00       	callq  10023c <error>

0000000000100152 <check_multiboot>:
  100152:	3d 89 62 d7 36       	cmp    $0x36d76289,%eax
  100157:	75 01                	jne    10015a <check_multiboot.no_multiboot>
  100159:	c3                   	retq   

000000000010015a <check_multiboot.no_multiboot>:
  10015a:	b0 30                	mov    $0x30,%al
  10015c:	e9 db 00 00 00       	jmpq   10023c <error>

0000000000100161 <check_cpuid>:
  100161:	9c                   	pushfq 
  100162:	58                   	pop    %rax
  100163:	89 c1                	mov    %eax,%ecx
  100165:	35 00 00 20 00       	xor    $0x200000,%eax
  10016a:	50                   	push   %rax
  10016b:	9d                   	popfq  
  10016c:	9c                   	pushfq 
  10016d:	58                   	pop    %rax
  10016e:	51                   	push   %rcx
  10016f:	9d                   	popfq  
  100170:	39 c8                	cmp    %ecx,%eax
  100172:	74 01                	je     100175 <check_cpuid.no_cpuid>
  100174:	c3                   	retq   

0000000000100175 <check_cpuid.no_cpuid>:
  100175:	b0 31                	mov    $0x31,%al
  100177:	e9 c0 00 00 00       	jmpq   10023c <error>

000000000010017c <check_long_mode>:
  10017c:	b8 00 00 00 80       	mov    $0x80000000,%eax
  100181:	0f a2                	cpuid  
  100183:	3d 01 00 00 80       	cmp    $0x80000001,%eax
  100188:	72 10                	jb     10019a <check_long_mode.no_long_mode>
  10018a:	b8 01 00 00 80       	mov    $0x80000001,%eax
  10018f:	0f a2                	cpuid  
  100191:	f7 c2 00 00 00 20    	test   $0x20000000,%edx
  100197:	74 01                	je     10019a <check_long_mode.no_long_mode>
  100199:	c3                   	retq   

000000000010019a <check_long_mode.no_long_mode>:
  10019a:	b0 32                	mov    $0x32,%al
  10019c:	e9 9b 00 00 00       	jmpq   10023c <error>

00000000001001a1 <set_up_page_tables>:
  1001a1:	b8 00 40 11 00       	mov    $0x114000,%eax
  1001a6:	83 c8 03             	or     $0x3,%eax
  1001a9:	a3 00 30 11 00 b8 00 	movabs %eax,0x115000b800113000
  1001b0:	50 11 
  1001b2:	00 83 c8 03 a3 00    	add    %al,0xa303c8(%rbx)
  1001b8:	40 11 00             	rex adc %eax,(%rax)
  1001bb:	31 c9                	xor    %ecx,%ecx

00000000001001bd <set_up_page_tables.map_p2_table>:
  1001bd:	b8 00 00 20 00       	mov    $0x200000,%eax
  1001c2:	f7 e1                	mul    %ecx
  1001c4:	0d 83 00 00 00       	or     $0x83,%eax
  1001c9:	89 04 cd 00 50 11 00 	mov    %eax,0x115000(,%rcx,8)
  1001d0:	41 81 f9 00 02 00 00 	cmp    $0x200,%r9d
  1001d7:	75 e4                	jne    1001bd <set_up_page_tables.map_p2_table>
  1001d9:	c3                   	retq   

00000000001001da <enable_paging>:
  1001da:	b8 00 30 11 00       	mov    $0x113000,%eax
  1001df:	0f 22 d8             	mov    %rax,%cr3
  1001e2:	0f 20 e0             	mov    %cr4,%rax
  1001e5:	83 c8 20             	or     $0x20,%eax
  1001e8:	0f 22 e0             	mov    %rax,%cr4
  1001eb:	b9 80 00 00 c0       	mov    $0xc0000080,%ecx
  1001f0:	0f 32                	rdmsr  
  1001f2:	0d 00 01 00 00       	or     $0x100,%eax
  1001f7:	0f 30                	wrmsr  
  1001f9:	0f 20 c0             	mov    %cr0,%rax
  1001fc:	0d 00 00 00 80       	or     $0x80000000,%eax
  100201:	0f 22 c0             	mov    %rax,%cr0
  100204:	c3                   	retq   

0000000000100205 <set_up_SSE>:
  100205:	b8 01 00 00 00       	mov    $0x1,%eax
  10020a:	0f a2                	cpuid  
  10020c:	f7 c2 00 00 00 02    	test   $0x2000000,%edx
  100212:	74 19                	je     10022d <set_up_SSE.no_SSE>
  100214:	0f 20 c0             	mov    %cr0,%rax
  100217:	66 83 e0 fb          	and    $0xfffb,%ax
  10021b:	66 83 c8 02          	or     $0x2,%ax
  10021f:	0f 22 c0             	mov    %rax,%cr0
  100222:	0f 20 e0             	mov    %cr4,%rax
  100225:	66 0d 00 06          	or     $0x600,%ax
  100229:	0f 22 e0             	mov    %rax,%cr4
  10022c:	c3                   	retq   

000000000010022d <set_up_SSE.no_SSE>:
  10022d:	b0 61                	mov    $0x61,%al
  10022f:	eb 0b                	jmp    10023c <error>

0000000000100231 <ok>:
  100231:	c7 05 00 80 0b 00 4f 	movl   $0x2f4b2f4f,0xb8000(%rip)        # 1b823b <stack_top+0xa1e3b>
  100238:	2f 4b 2f 
  10023b:	c3                   	retq   

000000000010023c <error>:
  10023c:	c7 05 00 80 0b 00 45 	movl   $0x2f524f45,0xb8000(%rip)        # 1b8246 <stack_top+0xa1e46>
  100243:	4f 52 2f 
  100246:	c7 05 04 80 0b 00 52 	movl   $0x4f3a4f52,0xb8004(%rip)        # 1b8254 <stack_top+0xa1e54>
  10024d:	4f 3a 4f 
  100250:	c7 05 08 80 0b 00 20 	movl   $0x4f204f20,0xb8008(%rip)        # 1b8262 <stack_top+0xa1e62>
  100257:	4f 20 4f 
  10025a:	a2 0c 80 0b 00 f4 55 	movabs %al,0x894855f4000b800c
  100261:	48 89 

0000000000100260 <_ZN13drop_contents17h0da496a0673bac19E>:
  100260:	55                   	push   %rbp
  100261:	48 89 e5             	mov    %rsp,%rbp
  100264:	50                   	push   %rax
  100265:	48 89 7d f8          	mov    %rdi,-0x8(%rbp)
  100269:	48 83 c4 08          	add    $0x8,%rsp
  10026d:	5d                   	pop    %rbp
  10026e:	c3                   	retq   
  10026f:	90                   	nop

0000000000100270 <_ZN13drop_contents17h80e900ba5b592571E>:
  100270:	55                   	push   %rbp
  100271:	48 89 e5             	mov    %rsp,%rbp
  100274:	50                   	push   %rax
  100275:	48 89 7d f8          	mov    %rdi,-0x8(%rbp)
  100279:	48 83 c4 08          	add    $0x8,%rsp
  10027d:	5d                   	pop    %rbp
  10027e:	c3                   	retq   
  10027f:	90                   	nop

0000000000100280 <_ZN35_$LT$core..ptr..Unique$LT$T$GT$$GT$7get_mut17h2e0e666a563b615eE>:
  100280:	55                   	push   %rbp
  100281:	48 89 e5             	mov    %rsp,%rbp
  100284:	48 83 ec 20          	sub    $0x20,%rsp
  100288:	48 89 7d f0          	mov    %rdi,-0x10(%rbp)
  10028c:	48 8b 45 f0          	mov    -0x10(%rbp),%rax
  100290:	48 89 45 e8          	mov    %rax,-0x18(%rbp)
  100294:	48 8b 7d e8          	mov    -0x18(%rbp),%rdi
  100298:	e8 83 21 00 00       	callq  102420 <_ZN63_$LT$core..ptr..Unique$LT$T$GT$$u20$as$u20$core..ops..Deref$GT$5deref17h6843bb1cf0c52deeE>
  10029d:	48 89 45 e0          	mov    %rax,-0x20(%rbp)
  1002a1:	48 8b 45 e0          	mov    -0x20(%rbp),%rax
  1002a5:	48 8b 00             	mov    (%rax),%rax
  1002a8:	48 83 c4 20          	add    $0x20,%rsp
  1002ac:	5d                   	pop    %rbp
  1002ad:	c3                   	retq   
  1002ae:	66 90                	xchg   %ax,%ax

00000000001002b0 <_ZN36_$LT$spin..mutex..Mutex$LT$T$GT$$GT$11obtain_lock17h9fdb6156d33e71eeE>:
  1002b0:	55                   	push   %rbp
  1002b1:	48 89 e5             	mov    %rsp,%rbp
  1002b4:	48 83 ec 30          	sub    $0x30,%rsp
  1002b8:	48 89 7d f8          	mov    %rdi,-0x8(%rbp)
  1002bc:	48 8b 45 f8          	mov    -0x8(%rbp),%rax
  1002c0:	48 89 45 f0          	mov    %rax,-0x10(%rbp)
  1002c4:	31 f6                	xor    %esi,%esi
  1002c6:	ba 01 00 00 00       	mov    $0x1,%edx
  1002cb:	48 8b 7d f0          	mov    -0x10(%rbp),%rdi
  1002cf:	c6 45 ef 04          	movb   $0x4,-0x11(%rbp)
  1002d3:	0f b6 4d ef          	movzbl -0x11(%rbp),%ecx
  1002d7:	e8 c4 10 00 00       	callq  1013a0 <_ZN4core4sync6atomic10AtomicBool16compare_and_swap17h9c902c6fd9ec24ccE>
  1002dc:	88 45 df             	mov    %al,-0x21(%rbp)
  1002df:	eb 06                	jmp    1002e7 <_ZN36_$LT$spin..mutex..Mutex$LT$T$GT$$GT$11obtain_lock17h9fdb6156d33e71eeE+0x37>
  1002e1:	48 83 c4 30          	add    $0x30,%rsp
  1002e5:	5d                   	pop    %rbp
  1002e6:	c3                   	retq   
  1002e7:	31 c0                	xor    %eax,%eax
  1002e9:	88 c1                	mov    %al,%cl
  1002eb:	8a 55 df             	mov    -0x21(%rbp),%dl
  1002ee:	38 ca                	cmp    %cl,%dl
  1002f0:	74 ef                	je     1002e1 <_ZN36_$LT$spin..mutex..Mutex$LT$T$GT$$GT$11obtain_lock17h9fdb6156d33e71eeE+0x31>
  1002f2:	f3 90                	pause  
  1002f4:	eb ce                	jmp    1002c4 <_ZN36_$LT$spin..mutex..Mutex$LT$T$GT$$GT$11obtain_lock17h9fdb6156d33e71eeE+0x14>
  1002f6:	66 2e 0f 1f 84 00 00 	nopw   %cs:0x0(%rax,%rax,1)
  1002fd:	00 00 00 

0000000000100300 <_ZN36_$LT$spin..mutex..Mutex$LT$T$GT$$GT$11obtain_lock17hf887025ae6741434E>:
  100300:	55                   	push   %rbp
  100301:	48 89 e5             	mov    %rsp,%rbp
  100304:	48 83 ec 30          	sub    $0x30,%rsp
  100308:	48 89 7d f8          	mov    %rdi,-0x8(%rbp)
  10030c:	48 8b 45 f8          	mov    -0x8(%rbp),%rax
  100310:	48 89 45 f0          	mov    %rax,-0x10(%rbp)
  100314:	31 f6                	xor    %esi,%esi
  100316:	ba 01 00 00 00       	mov    $0x1,%edx
  10031b:	48 8b 7d f0          	mov    -0x10(%rbp),%rdi
  10031f:	c6 45 ef 04          	movb   $0x4,-0x11(%rbp)
  100323:	0f b6 4d ef          	movzbl -0x11(%rbp),%ecx
  100327:	e8 74 10 00 00       	callq  1013a0 <_ZN4core4sync6atomic10AtomicBool16compare_and_swap17h9c902c6fd9ec24ccE>
  10032c:	88 45 df             	mov    %al,-0x21(%rbp)
  10032f:	eb 06                	jmp    100337 <_ZN36_$LT$spin..mutex..Mutex$LT$T$GT$$GT$11obtain_lock17hf887025ae6741434E+0x37>
  100331:	48 83 c4 30          	add    $0x30,%rsp
  100335:	5d                   	pop    %rbp
  100336:	c3                   	retq   
  100337:	31 c0                	xor    %eax,%eax
  100339:	88 c1                	mov    %al,%cl
  10033b:	8a 55 df             	mov    -0x21(%rbp),%dl
  10033e:	38 ca                	cmp    %cl,%dl
  100340:	74 ef                	je     100331 <_ZN36_$LT$spin..mutex..Mutex$LT$T$GT$$GT$11obtain_lock17hf887025ae6741434E+0x31>
  100342:	f3 90                	pause  
  100344:	eb ce                	jmp    100314 <_ZN36_$LT$spin..mutex..Mutex$LT$T$GT$$GT$11obtain_lock17hf887025ae6741434E+0x14>
  100346:	66 2e 0f 1f 84 00 00 	nopw   %cs:0x0(%rax,%rax,1)
  10034d:	00 00 00 

0000000000100350 <_ZN36_$LT$spin..mutex..Mutex$LT$T$GT$$GT$4lock17h03f1204486b499d4E>:
  100350:	55                   	push   %rbp
  100351:	48 89 e5             	mov    %rsp,%rbp
  100354:	48 83 ec 30          	sub    $0x30,%rsp
  100358:	48 89 f8             	mov    %rdi,%rax
  10035b:	48 89 75 f8          	mov    %rsi,-0x8(%rbp)
  10035f:	48 89 45 e8          	mov    %rax,-0x18(%rbp)
  100363:	48 89 7d e0          	mov    %rdi,-0x20(%rbp)
  100367:	48 8b 45 f8          	mov    -0x8(%rbp),%rax
  10036b:	48 89 45 f0          	mov    %rax,-0x10(%rbp)
  10036f:	48 8b 7d f0          	mov    -0x10(%rbp),%rdi
  100373:	e8 88 ff ff ff       	callq  100300 <_ZN36_$LT$spin..mutex..Mutex$LT$T$GT$$GT$11obtain_lock17hf887025ae6741434E>
  100378:	48 8b 45 f0          	mov    -0x10(%rbp),%rax
  10037c:	48 8b 4d f0          	mov    -0x10(%rbp),%rcx
  100380:	48 83 c1 02          	add    $0x2,%rcx
  100384:	48 89 cf             	mov    %rcx,%rdi
  100387:	48 89 45 d8          	mov    %rax,-0x28(%rbp)
  10038b:	e8 a0 03 00 00       	callq  100730 <_ZN40_$LT$core..cell..UnsafeCell$LT$T$GT$$GT$3get17h3ff4e6203bf13cffE>
  100390:	48 89 45 d0          	mov    %rax,-0x30(%rbp)
  100394:	48 8b 45 e0          	mov    -0x20(%rbp),%rax
  100398:	c6 40 10 d4          	movb   $0xd4,0x10(%rax)
  10039c:	48 8b 4d d8          	mov    -0x28(%rbp),%rcx
  1003a0:	48 89 08             	mov    %rcx,(%rax)
  1003a3:	48 8b 55 d0          	mov    -0x30(%rbp),%rdx
  1003a7:	48 89 50 08          	mov    %rdx,0x8(%rax)
  1003ab:	48 8b 45 e8          	mov    -0x18(%rbp),%rax
  1003af:	48 83 c4 30          	add    $0x30,%rsp
  1003b3:	5d                   	pop    %rbp
  1003b4:	c3                   	retq   
  1003b5:	66 2e 0f 1f 84 00 00 	nopw   %cs:0x0(%rax,%rax,1)
  1003bc:	00 00 00 
  1003bf:	90                   	nop

00000000001003c0 <_ZN36_$LT$spin..mutex..Mutex$LT$T$GT$$GT$4lock17hcc1d961b5e07eeebE>:
  1003c0:	55                   	push   %rbp
  1003c1:	48 89 e5             	mov    %rsp,%rbp
  1003c4:	48 83 ec 30          	sub    $0x30,%rsp
  1003c8:	48 89 f8             	mov    %rdi,%rax
  1003cb:	48 89 75 f8          	mov    %rsi,-0x8(%rbp)
  1003cf:	48 89 45 e8          	mov    %rax,-0x18(%rbp)
  1003d3:	48 89 7d e0          	mov    %rdi,-0x20(%rbp)
  1003d7:	48 8b 45 f8          	mov    -0x8(%rbp),%rax
  1003db:	48 89 45 f0          	mov    %rax,-0x10(%rbp)
  1003df:	48 8b 7d f0          	mov    -0x10(%rbp),%rdi
  1003e3:	e8 c8 fe ff ff       	callq  1002b0 <_ZN36_$LT$spin..mutex..Mutex$LT$T$GT$$GT$11obtain_lock17h9fdb6156d33e71eeE>
  1003e8:	48 8b 45 f0          	mov    -0x10(%rbp),%rax
  1003ec:	48 8b 4d f0          	mov    -0x10(%rbp),%rcx
  1003f0:	48 83 c1 08          	add    $0x8,%rcx
  1003f4:	48 89 cf             	mov    %rcx,%rdi
  1003f7:	48 89 45 d8          	mov    %rax,-0x28(%rbp)
  1003fb:	e8 60 03 00 00       	callq  100760 <_ZN40_$LT$core..cell..UnsafeCell$LT$T$GT$$GT$3get17h800469efd7168e40E>
  100400:	48 89 45 d0          	mov    %rax,-0x30(%rbp)
  100404:	48 8b 45 e0          	mov    -0x20(%rbp),%rax
  100408:	c6 40 10 d4          	movb   $0xd4,0x10(%rax)
  10040c:	48 8b 4d d8          	mov    -0x28(%rbp),%rcx
  100410:	48 89 08             	mov    %rcx,(%rax)
  100413:	48 8b 55 d0          	mov    -0x30(%rbp),%rdx
  100417:	48 89 50 08          	mov    %rdx,0x8(%rax)
  10041b:	48 8b 45 e8          	mov    -0x18(%rbp),%rax
  10041f:	48 83 c4 30          	add    $0x30,%rsp
  100423:	5d                   	pop    %rbp
  100424:	c3                   	retq   
  100425:	66 2e 0f 1f 84 00 00 	nopw   %cs:0x0(%rax,%rax,1)
  10042c:	00 00 00 
  10042f:	90                   	nop

0000000000100430 <_ZN38_$LT$core..option..Option$LT$T$GT$$GT$3map17h3f4d6bfb797995ebE>:
  100430:	55                   	push   %rbp
  100431:	48 89 e5             	mov    %rsp,%rbp
  100434:	48 81 ec 90 00 00 00 	sub    $0x90,%rsp
  10043b:	48 89 f8             	mov    %rdi,%rax
  10043e:	48 89 75 f8          	mov    %rsi,-0x8(%rbp)
  100442:	48 89 55 e8          	mov    %rdx,-0x18(%rbp)
  100446:	48 8b 55 e8          	mov    -0x18(%rbp),%rdx
  10044a:	48 89 55 f0          	mov    %rdx,-0x10(%rbp)
  10044e:	48 89 45 98          	mov    %rax,-0x68(%rbp)
  100452:	48 89 7d 90          	mov    %rdi,-0x70(%rbp)
  100456:	c6 45 bf 00          	movb   $0x0,-0x41(%rbp)
  10045a:	c6 45 be 00          	movb   $0x0,-0x42(%rbp)
  10045e:	c6 45 be 01          	movb   $0x1,-0x42(%rbp)
  100462:	48 8b 45 f8          	mov    -0x8(%rbp),%rax
  100466:	48 89 45 e0          	mov    %rax,-0x20(%rbp)
  10046a:	c6 45 bf 01          	movb   $0x1,-0x41(%rbp)
  10046e:	48 8b 45 f0          	mov    -0x10(%rbp),%rax
  100472:	48 89 45 d8          	mov    %rax,-0x28(%rbp)
  100476:	48 8b 45 e0          	mov    -0x20(%rbp),%rax
  10047a:	48 85 c0             	test   %rax,%rax
  10047d:	0f 95 c1             	setne  %cl
  100480:	88 4d 8f             	mov    %cl,-0x71(%rbp)
  100483:	75 1f                	jne    1004a4 <_ZN38_$LT$core..option..Option$LT$T$GT$$GT$3map17h3f4d6bfb797995ebE+0x74>
  100485:	eb 00                	jmp    100487 <_ZN38_$LT$core..option..Option$LT$T$GT$$GT$3map17h3f4d6bfb797995ebE+0x57>
  100487:	8a 45 8f             	mov    -0x71(%rbp),%al
  10048a:	f6 d0                	not    %al
  10048c:	a8 01                	test   $0x1,%al
  10048e:	0f 84 bc 00 00 00    	je     100550 <_ZN38_$LT$core..option..Option$LT$T$GT$$GT$3map17h7db3fffd5b1d18a3E>
  100494:	eb 00                	jmp    100496 <_ZN38_$LT$core..option..Option$LT$T$GT$$GT$3map17h3f4d6bfb797995ebE+0x66>
  100496:	48 8b 45 90          	mov    -0x70(%rbp),%rax
  10049a:	48 c7 40 08 00 00 00 	movq   $0x0,0x8(%rax)
  1004a1:	00 
  1004a2:	eb 76                	jmp    10051a <_ZN38_$LT$core..option..Option$LT$T$GT$$GT$3map17h3f4d6bfb797995ebE+0xea>
  1004a4:	48 8d 7d a8          	lea    -0x58(%rbp),%rdi
  1004a8:	c6 45 be 00          	movb   $0x0,-0x42(%rbp)
  1004ac:	48 8b 45 e0          	mov    -0x20(%rbp),%rax
  1004b0:	48 89 45 d0          	mov    %rax,-0x30(%rbp)
  1004b4:	c6 45 bf 00          	movb   $0x0,-0x41(%rbp)
  1004b8:	48 8b 45 d8          	mov    -0x28(%rbp),%rax
  1004bc:	48 89 45 c8          	mov    %rax,-0x38(%rbp)
  1004c0:	48 8b 45 d0          	mov    -0x30(%rbp),%rax
  1004c4:	48 89 45 c0          	mov    %rax,-0x40(%rbp)
  1004c8:	48 8b 45 c8          	mov    -0x38(%rbp),%rax
  1004cc:	48 89 45 a0          	mov    %rax,-0x60(%rbp)
  1004d0:	48 8b 55 c0          	mov    -0x40(%rbp),%rdx
  1004d4:	48 89 c6             	mov    %rax,%rsi
  1004d7:	e8 14 3b 00 00       	callq  103ff0 <_ZN81_$LT$core..iter..Enumerate$LT$I$GT$$u20$as$u20$core..iter..iterator..Iterator$GT$4next28_$u7b$$u7b$closure$u7d$$u7d$17h92081411776c22caE>
  1004dc:	48 8b 45 a8          	mov    -0x58(%rbp),%rax
  1004e0:	48 8b 55 b0          	mov    -0x50(%rbp),%rdx
  1004e4:	48 89 45 80          	mov    %rax,-0x80(%rbp)
  1004e8:	48 89 95 78 ff ff ff 	mov    %rdx,-0x88(%rbp)
  1004ef:	48 8b 45 90          	mov    -0x70(%rbp),%rax
  1004f3:	48 8b 4d 80          	mov    -0x80(%rbp),%rcx
  1004f7:	48 89 08             	mov    %rcx,(%rax)
  1004fa:	48 8b 95 78 ff ff ff 	mov    -0x88(%rbp),%rdx
  100501:	48 89 50 08          	mov    %rdx,0x8(%rax)
  100505:	eb 13                	jmp    10051a <_ZN38_$LT$core..option..Option$LT$T$GT$$GT$3map17h3f4d6bfb797995ebE+0xea>
  100507:	48 8b 45 98          	mov    -0x68(%rbp),%rax
  10050b:	48 81 c4 90 00 00 00 	add    $0x90,%rsp
  100512:	5d                   	pop    %rbp
  100513:	c3                   	retq   
  100514:	c6 45 bf 00          	movb   $0x0,-0x41(%rbp)
  100518:	eb 16                	jmp    100530 <_ZN38_$LT$core..option..Option$LT$T$GT$$GT$3map17h3f4d6bfb797995ebE+0x100>
  10051a:	f6 45 bf 01          	testb  $0x1,-0x41(%rbp)
  10051e:	75 f4                	jne    100514 <_ZN38_$LT$core..option..Option$LT$T$GT$$GT$3map17h3f4d6bfb797995ebE+0xe4>
  100520:	eb 0e                	jmp    100530 <_ZN38_$LT$core..option..Option$LT$T$GT$$GT$3map17h3f4d6bfb797995ebE+0x100>
  100522:	eb e3                	jmp    100507 <_ZN38_$LT$core..option..Option$LT$T$GT$$GT$3map17h3f4d6bfb797995ebE+0xd7>
  100524:	f6 45 be 01          	testb  $0x1,-0x42(%rbp)
  100528:	74 dd                	je     100507 <_ZN38_$LT$core..option..Option$LT$T$GT$$GT$3map17h3f4d6bfb797995ebE+0xd7>
  10052a:	c6 45 be 00          	movb   $0x0,-0x42(%rbp)
  10052e:	eb d7                	jmp    100507 <_ZN38_$LT$core..option..Option$LT$T$GT$$GT$3map17h3f4d6bfb797995ebE+0xd7>
  100530:	48 8b 45 e0          	mov    -0x20(%rbp),%rax
  100534:	48 85 c0             	test   %rax,%rax
  100537:	0f 95 c1             	setne  %cl
  10053a:	88 8d 77 ff ff ff    	mov    %cl,-0x89(%rbp)
  100540:	75 e2                	jne    100524 <_ZN38_$LT$core..option..Option$LT$T$GT$$GT$3map17h3f4d6bfb797995ebE+0xf4>
  100542:	eb 00                	jmp    100544 <_ZN38_$LT$core..option..Option$LT$T$GT$$GT$3map17h3f4d6bfb797995ebE+0x114>
  100544:	8a 85 77 ff ff ff    	mov    -0x89(%rbp),%al
  10054a:	a8 01                	test   $0x1,%al
  10054c:	74 d4                	je     100522 <_ZN38_$LT$core..option..Option$LT$T$GT$$GT$3map17h3f4d6bfb797995ebE+0xf2>
  10054e:	eb 00                	jmp    100550 <_ZN38_$LT$core..option..Option$LT$T$GT$$GT$3map17h7db3fffd5b1d18a3E>

0000000000100550 <_ZN38_$LT$core..option..Option$LT$T$GT$$GT$3map17h7db3fffd5b1d18a3E>:
  100550:	55                   	push   %rbp
  100551:	48 89 e5             	mov    %rsp,%rbp
  100554:	48 83 ec 50          	sub    $0x50,%rsp
  100558:	48 89 7d f0          	mov    %rdi,-0x10(%rbp)
  10055c:	c6 45 c7 00          	movb   $0x0,-0x39(%rbp)
  100560:	c6 45 c6 00          	movb   $0x0,-0x3a(%rbp)
  100564:	c6 45 c6 01          	movb   $0x1,-0x3a(%rbp)
  100568:	48 8b 45 f0          	mov    -0x10(%rbp),%rax
  10056c:	48 89 45 e0          	mov    %rax,-0x20(%rbp)
  100570:	c6 45 c7 01          	movb   $0x1,-0x39(%rbp)
  100574:	48 8b 45 e0          	mov    -0x20(%rbp),%rax
  100578:	48 85 c0             	test   %rax,%rax
  10057b:	0f 95 c1             	setne  %cl
  10057e:	88 4d bf             	mov    %cl,-0x41(%rbp)
  100581:	75 13                	jne    100596 <_ZN38_$LT$core..option..Option$LT$T$GT$$GT$3map17h7db3fffd5b1d18a3E+0x46>
  100583:	eb 00                	jmp    100585 <_ZN38_$LT$core..option..Option$LT$T$GT$$GT$3map17h7db3fffd5b1d18a3E+0x35>
  100585:	8a 45 bf             	mov    -0x41(%rbp),%al
  100588:	f6 d0                	not    %al
  10058a:	a8 01                	test   $0x1,%al
  10058c:	74 77                	je     100605 <_ZN38_$LT$core..option..Option$LT$T$GT$$GT$3map17h7db3fffd5b1d18a3E+0xb5>
  10058e:	eb 00                	jmp    100590 <_ZN38_$LT$core..option..Option$LT$T$GT$$GT$3map17h7db3fffd5b1d18a3E+0x40>
  100590:	c6 45 c0 00          	movb   $0x0,-0x40(%rbp)
  100594:	eb 3f                	jmp    1005d5 <_ZN38_$LT$core..option..Option$LT$T$GT$$GT$3map17h7db3fffd5b1d18a3E+0x85>
  100596:	c6 45 c6 00          	movb   $0x0,-0x3a(%rbp)
  10059a:	48 8b 45 e0          	mov    -0x20(%rbp),%rax
  10059e:	48 89 45 d0          	mov    %rax,-0x30(%rbp)
  1005a2:	c6 45 c7 00          	movb   $0x0,-0x39(%rbp)
  1005a6:	48 8b 45 d0          	mov    -0x30(%rbp),%rax
  1005aa:	48 89 45 c8          	mov    %rax,-0x38(%rbp)
  1005ae:	48 89 c7             	mov    %rax,%rdi
  1005b1:	e8 ca 3a 00 00       	callq  104080 <_ZN53_$LT$core..option..Option$LT$$RF$$u27$a$u20$T$GT$$GT$6cloned28_$u7b$$u7b$closure$u7d$$u7d$17h2956de0948f04beeE>
  1005b6:	88 45 be             	mov    %al,-0x42(%rbp)
  1005b9:	c6 45 c0 01          	movb   $0x1,-0x40(%rbp)
  1005bd:	8a 45 be             	mov    -0x42(%rbp),%al
  1005c0:	88 45 c1             	mov    %al,-0x3f(%rbp)
  1005c3:	eb 10                	jmp    1005d5 <_ZN38_$LT$core..option..Option$LT$T$GT$$GT$3map17h7db3fffd5b1d18a3E+0x85>
  1005c5:	66 8b 45 c0          	mov    -0x40(%rbp),%ax
  1005c9:	48 83 c4 50          	add    $0x50,%rsp
  1005cd:	5d                   	pop    %rbp
  1005ce:	c3                   	retq   
  1005cf:	c6 45 c7 00          	movb   $0x0,-0x39(%rbp)
  1005d3:	eb 16                	jmp    1005eb <_ZN38_$LT$core..option..Option$LT$T$GT$$GT$3map17h7db3fffd5b1d18a3E+0x9b>
  1005d5:	f6 45 c7 01          	testb  $0x1,-0x39(%rbp)
  1005d9:	75 f4                	jne    1005cf <_ZN38_$LT$core..option..Option$LT$T$GT$$GT$3map17h7db3fffd5b1d18a3E+0x7f>
  1005db:	eb 0e                	jmp    1005eb <_ZN38_$LT$core..option..Option$LT$T$GT$$GT$3map17h7db3fffd5b1d18a3E+0x9b>
  1005dd:	eb e6                	jmp    1005c5 <_ZN38_$LT$core..option..Option$LT$T$GT$$GT$3map17h7db3fffd5b1d18a3E+0x75>
  1005df:	f6 45 c6 01          	testb  $0x1,-0x3a(%rbp)
  1005e3:	74 e0                	je     1005c5 <_ZN38_$LT$core..option..Option$LT$T$GT$$GT$3map17h7db3fffd5b1d18a3E+0x75>
  1005e5:	c6 45 c6 00          	movb   $0x0,-0x3a(%rbp)
  1005e9:	eb da                	jmp    1005c5 <_ZN38_$LT$core..option..Option$LT$T$GT$$GT$3map17h7db3fffd5b1d18a3E+0x75>
  1005eb:	48 8b 45 e0          	mov    -0x20(%rbp),%rax
  1005ef:	48 85 c0             	test   %rax,%rax
  1005f2:	0f 95 c1             	setne  %cl
  1005f5:	88 4d bd             	mov    %cl,-0x43(%rbp)
  1005f8:	75 e5                	jne    1005df <_ZN38_$LT$core..option..Option$LT$T$GT$$GT$3map17h7db3fffd5b1d18a3E+0x8f>
  1005fa:	eb 00                	jmp    1005fc <_ZN38_$LT$core..option..Option$LT$T$GT$$GT$3map17h7db3fffd5b1d18a3E+0xac>
  1005fc:	8a 45 bd             	mov    -0x43(%rbp),%al
  1005ff:	a8 01                	test   $0x1,%al
  100601:	74 da                	je     1005dd <_ZN38_$LT$core..option..Option$LT$T$GT$$GT$3map17h7db3fffd5b1d18a3E+0x8d>
  100603:	eb 00                	jmp    100605 <_ZN38_$LT$core..option..Option$LT$T$GT$$GT$3map17h7db3fffd5b1d18a3E+0xb5>
  100605:	66 2e 0f 1f 84 00 00 	nopw   %cs:0x0(%rax,%rax,1)
  10060c:	00 00 00 
  10060f:	90                   	nop

0000000000100610 <_ZN38_$LT$core..option..Option$LT$T$GT$$GT$6expect17h3a279f31c26c0a71E>:
  100610:	55                   	push   %rbp
  100611:	48 89 e5             	mov    %rsp,%rbp
  100614:	48 83 ec 60          	sub    $0x60,%rsp
  100618:	48 89 7d f0          	mov    %rdi,-0x10(%rbp)
  10061c:	48 89 75 e0          	mov    %rsi,-0x20(%rbp)
  100620:	48 89 55 e8          	mov    %rdx,-0x18(%rbp)
  100624:	48 8b 45 f0          	mov    -0x10(%rbp),%rax
  100628:	48 89 45 d8          	mov    %rax,-0x28(%rbp)
  10062c:	48 8b 45 e0          	mov    -0x20(%rbp),%rax
  100630:	48 8b 4d e8          	mov    -0x18(%rbp),%rcx
  100634:	48 89 45 c8          	mov    %rax,-0x38(%rbp)
  100638:	48 89 4d d0          	mov    %rcx,-0x30(%rbp)
  10063c:	48 8b 45 d8          	mov    -0x28(%rbp),%rax
  100640:	48 85 c0             	test   %rax,%rax
  100643:	0f 95 c2             	setne  %dl
  100646:	88 55 bf             	mov    %dl,-0x41(%rbp)
  100649:	75 1a                	jne    100665 <_ZN38_$LT$core..option..Option$LT$T$GT$$GT$6expect17h3a279f31c26c0a71E+0x55>
  10064b:	eb 00                	jmp    10064d <_ZN38_$LT$core..option..Option$LT$T$GT$$GT$6expect17h3a279f31c26c0a71E+0x3d>
  10064d:	8a 45 bf             	mov    -0x41(%rbp),%al
  100650:	f6 d0                	not    %al
  100652:	a8 01                	test   $0x1,%al
  100654:	74 47                	je     10069d <_ZN38_$LT$core..option..Option$LT$T$GT$$GT$6expect17h3a279f31c26c0a71E+0x8d>
  100656:	eb 00                	jmp    100658 <_ZN38_$LT$core..option..Option$LT$T$GT$$GT$6expect17h3a279f31c26c0a71E+0x48>
  100658:	48 8b 7d c8          	mov    -0x38(%rbp),%rdi
  10065c:	48 8b 75 d0          	mov    -0x30(%rbp),%rsi
  100660:	e8 0b 68 00 00       	callq  106e70 <_ZN4core6option13expect_failed17h503df6cb4163e3efE>
  100665:	48 8b 45 d8          	mov    -0x28(%rbp),%rax
  100669:	48 89 45 c0          	mov    %rax,-0x40(%rbp)
  10066d:	48 8b 45 c0          	mov    -0x40(%rbp),%rax
  100671:	48 89 45 b0          	mov    %rax,-0x50(%rbp)
  100675:	eb 0c                	jmp    100683 <_ZN38_$LT$core..option..Option$LT$T$GT$$GT$6expect17h3a279f31c26c0a71E+0x73>
  100677:	48 8b 45 b0          	mov    -0x50(%rbp),%rax
  10067b:	48 83 c4 60          	add    $0x60,%rsp
  10067f:	5d                   	pop    %rbp
  100680:	c3                   	retq   
  100681:	eb f4                	jmp    100677 <_ZN38_$LT$core..option..Option$LT$T$GT$$GT$6expect17h3a279f31c26c0a71E+0x67>
  100683:	48 8b 45 d8          	mov    -0x28(%rbp),%rax
  100687:	48 85 c0             	test   %rax,%rax
  10068a:	0f 95 c1             	setne  %cl
  10068d:	88 4d af             	mov    %cl,-0x51(%rbp)
  100690:	75 e5                	jne    100677 <_ZN38_$LT$core..option..Option$LT$T$GT$$GT$6expect17h3a279f31c26c0a71E+0x67>
  100692:	eb 00                	jmp    100694 <_ZN38_$LT$core..option..Option$LT$T$GT$$GT$6expect17h3a279f31c26c0a71E+0x84>
  100694:	8a 45 af             	mov    -0x51(%rbp),%al
  100697:	a8 01                	test   $0x1,%al
  100699:	74 e6                	je     100681 <_ZN38_$LT$core..option..Option$LT$T$GT$$GT$6expect17h3a279f31c26c0a71E+0x71>
  10069b:	eb 00                	jmp    10069d <_ZN38_$LT$core..option..Option$LT$T$GT$$GT$6expect17h3a279f31c26c0a71E+0x8d>
  10069d:	0f 1f 00             	nopl   (%rax)

00000000001006a0 <_ZN38_$LT$core..option..Option$LT$T$GT$$GT$6expect17hc59c0f205e0f0dedE>:
  1006a0:	55                   	push   %rbp
  1006a1:	48 89 e5             	mov    %rsp,%rbp
  1006a4:	48 83 ec 60          	sub    $0x60,%rsp
  1006a8:	48 89 7d f0          	mov    %rdi,-0x10(%rbp)
  1006ac:	48 89 75 e0          	mov    %rsi,-0x20(%rbp)
  1006b0:	48 89 55 e8          	mov    %rdx,-0x18(%rbp)
  1006b4:	48 8b 45 f0          	mov    -0x10(%rbp),%rax
  1006b8:	48 89 45 d8          	mov    %rax,-0x28(%rbp)
  1006bc:	48 8b 45 e0          	mov    -0x20(%rbp),%rax
  1006c0:	48 8b 4d e8          	mov    -0x18(%rbp),%rcx
  1006c4:	48 89 45 c8          	mov    %rax,-0x38(%rbp)
  1006c8:	48 89 4d d0          	mov    %rcx,-0x30(%rbp)
  1006cc:	48 8b 45 d8          	mov    -0x28(%rbp),%rax
  1006d0:	48 85 c0             	test   %rax,%rax
  1006d3:	0f 95 c2             	setne  %dl
  1006d6:	88 55 bf             	mov    %dl,-0x41(%rbp)
  1006d9:	75 1a                	jne    1006f5 <_ZN38_$LT$core..option..Option$LT$T$GT$$GT$6expect17hc59c0f205e0f0dedE+0x55>
  1006db:	eb 00                	jmp    1006dd <_ZN38_$LT$core..option..Option$LT$T$GT$$GT$6expect17hc59c0f205e0f0dedE+0x3d>
  1006dd:	8a 45 bf             	mov    -0x41(%rbp),%al
  1006e0:	f6 d0                	not    %al
  1006e2:	a8 01                	test   $0x1,%al
  1006e4:	74 47                	je     10072d <_ZN38_$LT$core..option..Option$LT$T$GT$$GT$6expect17hc59c0f205e0f0dedE+0x8d>
  1006e6:	eb 00                	jmp    1006e8 <_ZN38_$LT$core..option..Option$LT$T$GT$$GT$6expect17hc59c0f205e0f0dedE+0x48>
  1006e8:	48 8b 7d c8          	mov    -0x38(%rbp),%rdi
  1006ec:	48 8b 75 d0          	mov    -0x30(%rbp),%rsi
  1006f0:	e8 7b 67 00 00       	callq  106e70 <_ZN4core6option13expect_failed17h503df6cb4163e3efE>
  1006f5:	48 8b 45 d8          	mov    -0x28(%rbp),%rax
  1006f9:	48 89 45 c0          	mov    %rax,-0x40(%rbp)
  1006fd:	48 8b 45 c0          	mov    -0x40(%rbp),%rax
  100701:	48 89 45 b0          	mov    %rax,-0x50(%rbp)
  100705:	eb 0c                	jmp    100713 <_ZN38_$LT$core..option..Option$LT$T$GT$$GT$6expect17hc59c0f205e0f0dedE+0x73>
  100707:	48 8b 45 b0          	mov    -0x50(%rbp),%rax
  10070b:	48 83 c4 60          	add    $0x60,%rsp
  10070f:	5d                   	pop    %rbp
  100710:	c3                   	retq   
  100711:	eb f4                	jmp    100707 <_ZN38_$LT$core..option..Option$LT$T$GT$$GT$6expect17hc59c0f205e0f0dedE+0x67>
  100713:	48 8b 45 d8          	mov    -0x28(%rbp),%rax
  100717:	48 85 c0             	test   %rax,%rax
  10071a:	0f 95 c1             	setne  %cl
  10071d:	88 4d af             	mov    %cl,-0x51(%rbp)
  100720:	75 e5                	jne    100707 <_ZN38_$LT$core..option..Option$LT$T$GT$$GT$6expect17hc59c0f205e0f0dedE+0x67>
  100722:	eb 00                	jmp    100724 <_ZN38_$LT$core..option..Option$LT$T$GT$$GT$6expect17hc59c0f205e0f0dedE+0x84>
  100724:	8a 45 af             	mov    -0x51(%rbp),%al
  100727:	a8 01                	test   $0x1,%al
  100729:	74 e6                	je     100711 <_ZN38_$LT$core..option..Option$LT$T$GT$$GT$6expect17hc59c0f205e0f0dedE+0x71>
  10072b:	eb 00                	jmp    10072d <_ZN38_$LT$core..option..Option$LT$T$GT$$GT$6expect17hc59c0f205e0f0dedE+0x8d>
  10072d:	0f 1f 00             	nopl   (%rax)

0000000000100730 <_ZN40_$LT$core..cell..UnsafeCell$LT$T$GT$$GT$3get17h3ff4e6203bf13cffE>:
  100730:	55                   	push   %rbp
  100731:	48 89 e5             	mov    %rsp,%rbp
  100734:	48 83 ec 20          	sub    $0x20,%rsp
  100738:	48 89 7d f0          	mov    %rdi,-0x10(%rbp)
  10073c:	48 8b 45 f0          	mov    -0x10(%rbp),%rax
  100740:	48 89 45 e8          	mov    %rax,-0x18(%rbp)
  100744:	48 8b 45 e8          	mov    -0x18(%rbp),%rax
  100748:	48 89 45 e0          	mov    %rax,-0x20(%rbp)
  10074c:	48 8b 45 e0          	mov    -0x20(%rbp),%rax
  100750:	48 83 c4 20          	add    $0x20,%rsp
  100754:	5d                   	pop    %rbp
  100755:	c3                   	retq   
  100756:	66 2e 0f 1f 84 00 00 	nopw   %cs:0x0(%rax,%rax,1)
  10075d:	00 00 00 

0000000000100760 <_ZN40_$LT$core..cell..UnsafeCell$LT$T$GT$$GT$3get17h800469efd7168e40E>:
  100760:	55                   	push   %rbp
  100761:	48 89 e5             	mov    %rsp,%rbp
  100764:	48 83 ec 20          	sub    $0x20,%rsp
  100768:	48 89 7d f0          	mov    %rdi,-0x10(%rbp)
  10076c:	48 8b 45 f0          	mov    -0x10(%rbp),%rax
  100770:	48 89 45 e8          	mov    %rax,-0x18(%rbp)
  100774:	48 8b 45 e8          	mov    -0x18(%rbp),%rax
  100778:	48 89 45 e0          	mov    %rax,-0x20(%rbp)
  10077c:	48 8b 45 e0          	mov    -0x20(%rbp),%rax
  100780:	48 83 c4 20          	add    $0x20,%rsp
  100784:	5d                   	pop    %rbp
  100785:	c3                   	retq   
  100786:	66 2e 0f 1f 84 00 00 	nopw   %cs:0x0(%rax,%rax,1)
  10078d:	00 00 00 

0000000000100790 <_ZN40_$LT$core..cell..UnsafeCell$LT$T$GT$$GT$3get17he661653c140a9841E>:
  100790:	55                   	push   %rbp
  100791:	48 89 e5             	mov    %rsp,%rbp
  100794:	48 83 ec 20          	sub    $0x20,%rsp
  100798:	48 89 7d f0          	mov    %rdi,-0x10(%rbp)
  10079c:	48 8b 45 f0          	mov    -0x10(%rbp),%rax
  1007a0:	48 89 45 e8          	mov    %rax,-0x18(%rbp)
  1007a4:	48 8b 45 e8          	mov    -0x18(%rbp),%rax
  1007a8:	48 89 45 e0          	mov    %rax,-0x20(%rbp)
  1007ac:	48 8b 45 e0          	mov    -0x20(%rbp),%rax
  1007b0:	48 83 c4 20          	add    $0x20,%rsp
  1007b4:	5d                   	pop    %rbp
  1007b5:	c3                   	retq   
  1007b6:	66 2e 0f 1f 84 00 00 	nopw   %cs:0x0(%rax,%rax,1)
  1007bd:	00 00 00 

00000000001007c0 <_ZN41_$LT$str$u20$as$u20$core..str..StrExt$GT$5bytes17h25d3c1eaab1c59c0E>:
  1007c0:	55                   	push   %rbp
  1007c1:	48 89 e5             	mov    %rsp,%rbp
  1007c4:	48 83 ec 60          	sub    $0x60,%rsp
  1007c8:	48 89 f8             	mov    %rdi,%rax
  1007cb:	48 89 75 f0          	mov    %rsi,-0x10(%rbp)
  1007cf:	48 89 55 f8          	mov    %rdx,-0x8(%rbp)
  1007d3:	48 89 45 b8          	mov    %rax,-0x48(%rbp)
  1007d7:	48 89 7d b0          	mov    %rdi,-0x50(%rbp)
  1007db:	48 8b 45 f0          	mov    -0x10(%rbp),%rax
  1007df:	48 8b 4d f8          	mov    -0x8(%rbp),%rcx
  1007e3:	48 89 45 e0          	mov    %rax,-0x20(%rbp)
  1007e7:	48 89 4d e8          	mov    %rcx,-0x18(%rbp)
  1007eb:	48 8b 7d e0          	mov    -0x20(%rbp),%rdi
  1007ef:	48 8b 75 e8          	mov    -0x18(%rbp),%rsi
  1007f3:	e8 48 00 00 00       	callq  100840 <_ZN41_$LT$str$u20$as$u20$core..str..StrExt$GT$8as_bytes17ha3a4e2a47e792cf8E>
  1007f8:	48 89 45 a8          	mov    %rax,-0x58(%rbp)
  1007fc:	48 89 55 a0          	mov    %rdx,-0x60(%rbp)
  100800:	48 8d 7d c0          	lea    -0x40(%rbp),%rdi
  100804:	48 8b 75 a8          	mov    -0x58(%rbp),%rsi
  100808:	48 8b 55 a0          	mov    -0x60(%rbp),%rdx
  10080c:	e8 4f 17 00 00       	callq  101f60 <_ZN53_$LT$$u5b$T$u5d$$u20$as$u20$core..slice..SliceExt$GT$4iter17h7b0dda1c92ba97edE>
  100811:	48 8d 7d d0          	lea    -0x30(%rbp),%rdi
  100815:	48 8d 75 c0          	lea    -0x40(%rbp),%rsi
  100819:	e8 a2 0a 00 00       	callq  1012c0 <_ZN4core4iter8iterator8Iterator6cloned17heb982401e12d39c6E>
  10081e:	48 8b 45 d0          	mov    -0x30(%rbp),%rax
  100822:	48 8b 4d b0          	mov    -0x50(%rbp),%rcx
  100826:	48 89 01             	mov    %rax,(%rcx)
  100829:	48 8b 45 d8          	mov    -0x28(%rbp),%rax
  10082d:	48 89 41 08          	mov    %rax,0x8(%rcx)
  100831:	48 8b 45 b8          	mov    -0x48(%rbp),%rax
  100835:	48 83 c4 60          	add    $0x60,%rsp
  100839:	5d                   	pop    %rbp
  10083a:	c3                   	retq   
  10083b:	0f 1f 44 00 00       	nopl   0x0(%rax,%rax,1)

0000000000100840 <_ZN41_$LT$str$u20$as$u20$core..str..StrExt$GT$8as_bytes17ha3a4e2a47e792cf8E>:
  100840:	55                   	push   %rbp
  100841:	48 89 e5             	mov    %rsp,%rbp
  100844:	48 83 ec 50          	sub    $0x50,%rsp
  100848:	48 89 7d e0          	mov    %rdi,-0x20(%rbp)
  10084c:	48 89 75 e8          	mov    %rsi,-0x18(%rbp)
  100850:	48 8b 45 e0          	mov    -0x20(%rbp),%rax
  100854:	48 8b 4d e8          	mov    -0x18(%rbp),%rcx
  100858:	48 89 45 d0          	mov    %rax,-0x30(%rbp)
  10085c:	48 89 4d d8          	mov    %rcx,-0x28(%rbp)
  100860:	48 8b 45 d0          	mov    -0x30(%rbp),%rax
  100864:	48 8b 4d d8          	mov    -0x28(%rbp),%rcx
  100868:	48 89 45 c0          	mov    %rax,-0x40(%rbp)
  10086c:	48 89 4d c8          	mov    %rcx,-0x38(%rbp)
  100870:	48 8b 45 c0          	mov    -0x40(%rbp),%rax
  100874:	48 8b 55 c8          	mov    -0x38(%rbp),%rdx
  100878:	48 89 45 b8          	mov    %rax,-0x48(%rbp)
  10087c:	48 89 55 b0          	mov    %rdx,-0x50(%rbp)
  100880:	48 8b 45 b8          	mov    -0x48(%rbp),%rax
  100884:	48 8b 55 b0          	mov    -0x50(%rbp),%rdx
  100888:	48 83 c4 50          	add    $0x50,%rsp
  10088c:	5d                   	pop    %rbp
  10088d:	c3                   	retq   
  10088e:	66 90                	xchg   %ax,%ax

0000000000100890 <_ZN41_$LT$u8$u20$as$u20$core..clone..Clone$GT$5clone17h6751b84c5ec0546dE>:
  100890:	55                   	push   %rbp
  100891:	48 89 e5             	mov    %rsp,%rbp
  100894:	48 83 ec 20          	sub    $0x20,%rsp
  100898:	48 89 7d f0          	mov    %rdi,-0x10(%rbp)
  10089c:	48 8b 45 f0          	mov    -0x10(%rbp),%rax
  1008a0:	48 89 45 e8          	mov    %rax,-0x18(%rbp)
  1008a4:	48 8b 45 e8          	mov    -0x18(%rbp),%rax
  1008a8:	8a 00                	mov    (%rax),%al
  1008aa:	88 45 e7             	mov    %al,-0x19(%rbp)
  1008ad:	8a 45 e7             	mov    -0x19(%rbp),%al
  1008b0:	48 83 c4 20          	add    $0x20,%rsp
  1008b4:	5d                   	pop    %rbp
  1008b5:	c3                   	retq   
  1008b6:	66 2e 0f 1f 84 00 00 	nopw   %cs:0x0(%rax,%rax,1)
  1008bd:	00 00 00 

00000000001008c0 <_ZN44_$LT$char$u20$as$u20$core..char..CharExt$GT$11encode_utf817h7df4fc3325f57883E>:
  1008c0:	55                   	push   %rbp
  1008c1:	48 89 e5             	mov    %rsp,%rbp
  1008c4:	48 83 ec 78          	sub    $0x78,%rsp
  1008c8:	48 89 f8             	mov    %rdi,%rax
  1008cb:	89 75 fc             	mov    %esi,-0x4(%rbp)
  1008ce:	48 89 45 d8          	mov    %rax,-0x28(%rbp)
  1008d2:	48 89 7d d0          	mov    %rdi,-0x30(%rbp)
  1008d6:	48 8d 45 f0          	lea    -0x10(%rbp),%rax
  1008da:	8b 4d fc             	mov    -0x4(%rbp),%ecx
  1008dd:	89 4d f8             	mov    %ecx,-0x8(%rbp)
  1008e0:	8b 4d f8             	mov    -0x8(%rbp),%ecx
  1008e3:	89 4d f4             	mov    %ecx,-0xc(%rbp)
  1008e6:	48 89 c2             	mov    %rax,%rdx
  1008e9:	48 83 c2 04          	add    $0x4,%rdx
  1008ed:	48 89 55 c8          	mov    %rdx,-0x38(%rbp)
  1008f1:	48 89 45 c0          	mov    %rax,-0x40(%rbp)
  1008f5:	e9 85 01 00 00       	jmpq   100a7f <_ZN44_$LT$char$u20$as$u20$core..char..CharExt$GT$11encode_utf817h7df4fc3325f57883E+0x1bf>
  1008fa:	8b 45 f4             	mov    -0xc(%rbp),%eax
  1008fd:	89 45 bc             	mov    %eax,-0x44(%rbp)
  100900:	eb 0b                	jmp    10090d <_ZN44_$LT$char$u20$as$u20$core..char..CharExt$GT$11encode_utf817h7df4fc3325f57883E+0x4d>
  100902:	81 7d f4 00 08 00 00 	cmpl   $0x800,-0xc(%rbp)
  100909:	72 17                	jb     100922 <_ZN44_$LT$char$u20$as$u20$core..char..CharExt$GT$11encode_utf817h7df4fc3325f57883E+0x62>
  10090b:	eb 20                	jmp    10092d <_ZN44_$LT$char$u20$as$u20$core..char..CharExt$GT$11encode_utf817h7df4fc3325f57883E+0x6d>
  10090d:	8b 45 bc             	mov    -0x44(%rbp),%eax
  100910:	88 c1                	mov    %al,%cl
  100912:	88 4d f3             	mov    %cl,-0xd(%rbp)
  100915:	48 c7 45 e8 03 00 00 	movq   $0x3,-0x18(%rbp)
  10091c:	00 
  10091d:	e9 11 01 00 00       	jmpq   100a33 <_ZN44_$LT$char$u20$as$u20$core..char..CharExt$GT$11encode_utf817h7df4fc3325f57883E+0x173>
  100922:	8b 45 f4             	mov    -0xc(%rbp),%eax
  100925:	c1 e8 06             	shr    $0x6,%eax
  100928:	89 45 b8             	mov    %eax,-0x48(%rbp)
  10092b:	eb 0b                	jmp    100938 <_ZN44_$LT$char$u20$as$u20$core..char..CharExt$GT$11encode_utf817h7df4fc3325f57883E+0x78>
  10092d:	81 7d f4 00 00 01 00 	cmpl   $0x10000,-0xc(%rbp)
  100934:	72 35                	jb     10096b <_ZN44_$LT$char$u20$as$u20$core..char..CharExt$GT$11encode_utf817h7df4fc3325f57883E+0xab>
  100936:	eb 3e                	jmp    100976 <_ZN44_$LT$char$u20$as$u20$core..char..CharExt$GT$11encode_utf817h7df4fc3325f57883E+0xb6>
  100938:	8b 45 b8             	mov    -0x48(%rbp),%eax
  10093b:	83 e0 1f             	and    $0x1f,%eax
  10093e:	88 c1                	mov    %al,%cl
  100940:	88 4d b7             	mov    %cl,-0x49(%rbp)
  100943:	8a 45 b7             	mov    -0x49(%rbp),%al
  100946:	0c c0                	or     $0xc0,%al
  100948:	88 45 f2             	mov    %al,-0xe(%rbp)
  10094b:	8b 4d f4             	mov    -0xc(%rbp),%ecx
  10094e:	83 e1 3f             	and    $0x3f,%ecx
  100951:	88 c8                	mov    %cl,%al
  100953:	88 45 b6             	mov    %al,-0x4a(%rbp)
  100956:	8a 45 b6             	mov    -0x4a(%rbp),%al
  100959:	0c 80                	or     $0x80,%al
  10095b:	88 45 f3             	mov    %al,-0xd(%rbp)
  10095e:	48 c7 45 e8 02 00 00 	movq   $0x2,-0x18(%rbp)
  100965:	00 
  100966:	e9 c8 00 00 00       	jmpq   100a33 <_ZN44_$LT$char$u20$as$u20$core..char..CharExt$GT$11encode_utf817h7df4fc3325f57883E+0x173>
  10096b:	8b 45 f4             	mov    -0xc(%rbp),%eax
  10096e:	c1 e8 0c             	shr    $0xc,%eax
  100971:	89 45 b0             	mov    %eax,-0x50(%rbp)
  100974:	eb 0b                	jmp    100981 <_ZN44_$LT$char$u20$as$u20$core..char..CharExt$GT$11encode_utf817h7df4fc3325f57883E+0xc1>
  100976:	8b 45 f4             	mov    -0xc(%rbp),%eax
  100979:	c1 e8 12             	shr    $0x12,%eax
  10097c:	89 45 ac             	mov    %eax,-0x54(%rbp)
  10097f:	eb 4c                	jmp    1009cd <_ZN44_$LT$char$u20$as$u20$core..char..CharExt$GT$11encode_utf817h7df4fc3325f57883E+0x10d>
  100981:	8b 45 b0             	mov    -0x50(%rbp),%eax
  100984:	83 e0 0f             	and    $0xf,%eax
  100987:	88 c1                	mov    %al,%cl
  100989:	88 4d ab             	mov    %cl,-0x55(%rbp)
  10098c:	8a 45 ab             	mov    -0x55(%rbp),%al
  10098f:	0c e0                	or     $0xe0,%al
  100991:	88 45 f1             	mov    %al,-0xf(%rbp)
  100994:	8b 4d f4             	mov    -0xc(%rbp),%ecx
  100997:	c1 e9 06             	shr    $0x6,%ecx
  10099a:	89 4d a4             	mov    %ecx,-0x5c(%rbp)
  10099d:	8b 45 a4             	mov    -0x5c(%rbp),%eax
  1009a0:	83 e0 3f             	and    $0x3f,%eax
  1009a3:	88 c1                	mov    %al,%cl
  1009a5:	88 4d a3             	mov    %cl,-0x5d(%rbp)
  1009a8:	8a 45 a3             	mov    -0x5d(%rbp),%al
  1009ab:	0c 80                	or     $0x80,%al
  1009ad:	88 45 f2             	mov    %al,-0xe(%rbp)
  1009b0:	8b 4d f4             	mov    -0xc(%rbp),%ecx
  1009b3:	83 e1 3f             	and    $0x3f,%ecx
  1009b6:	88 c8                	mov    %cl,%al
  1009b8:	88 45 a2             	mov    %al,-0x5e(%rbp)
  1009bb:	8a 45 a2             	mov    -0x5e(%rbp),%al
  1009be:	0c 80                	or     $0x80,%al
  1009c0:	88 45 f3             	mov    %al,-0xd(%rbp)
  1009c3:	48 c7 45 e8 01 00 00 	movq   $0x1,-0x18(%rbp)
  1009ca:	00 
  1009cb:	eb 66                	jmp    100a33 <_ZN44_$LT$char$u20$as$u20$core..char..CharExt$GT$11encode_utf817h7df4fc3325f57883E+0x173>
  1009cd:	8b 45 ac             	mov    -0x54(%rbp),%eax
  1009d0:	83 e0 07             	and    $0x7,%eax
  1009d3:	88 c1                	mov    %al,%cl
  1009d5:	88 4d a1             	mov    %cl,-0x5f(%rbp)
  1009d8:	8a 45 a1             	mov    -0x5f(%rbp),%al
  1009db:	0c f0                	or     $0xf0,%al
  1009dd:	88 45 f0             	mov    %al,-0x10(%rbp)
  1009e0:	8b 4d f4             	mov    -0xc(%rbp),%ecx
  1009e3:	c1 e9 0c             	shr    $0xc,%ecx
  1009e6:	89 4d 9c             	mov    %ecx,-0x64(%rbp)
  1009e9:	8b 45 9c             	mov    -0x64(%rbp),%eax
  1009ec:	83 e0 3f             	and    $0x3f,%eax
  1009ef:	88 c1                	mov    %al,%cl
  1009f1:	88 4d 9b             	mov    %cl,-0x65(%rbp)
  1009f4:	8a 45 9b             	mov    -0x65(%rbp),%al
  1009f7:	0c 80                	or     $0x80,%al
  1009f9:	88 45 f1             	mov    %al,-0xf(%rbp)
  1009fc:	8b 4d f4             	mov    -0xc(%rbp),%ecx
  1009ff:	c1 e9 06             	shr    $0x6,%ecx
  100a02:	89 4d 94             	mov    %ecx,-0x6c(%rbp)
  100a05:	8b 45 94             	mov    -0x6c(%rbp),%eax
  100a08:	83 e0 3f             	and    $0x3f,%eax
  100a0b:	88 c1                	mov    %al,%cl
  100a0d:	88 4d 93             	mov    %cl,-0x6d(%rbp)
  100a10:	8a 45 93             	mov    -0x6d(%rbp),%al
  100a13:	0c 80                	or     $0x80,%al
  100a15:	88 45 f2             	mov    %al,-0xe(%rbp)
  100a18:	8b 4d f4             	mov    -0xc(%rbp),%ecx
  100a1b:	83 e1 3f             	and    $0x3f,%ecx
  100a1e:	88 c8                	mov    %cl,%al
  100a20:	88 45 92             	mov    %al,-0x6e(%rbp)
  100a23:	8a 45 92             	mov    -0x6e(%rbp),%al
  100a26:	0c 80                	or     $0x80,%al
  100a28:	88 45 f3             	mov    %al,-0xd(%rbp)
  100a2b:	48 c7 45 e8 00 00 00 	movq   $0x0,-0x18(%rbp)
  100a32:	00 
  100a33:	8a 45 f0             	mov    -0x10(%rbp),%al
  100a36:	8a 4d f1             	mov    -0xf(%rbp),%cl
  100a39:	8a 55 f2             	mov    -0xe(%rbp),%dl
  100a3c:	40 8a 75 f3          	mov    -0xd(%rbp),%sil
  100a40:	40 88 75 e7          	mov    %sil,-0x19(%rbp)
  100a44:	88 55 e6             	mov    %dl,-0x1a(%rbp)
  100a47:	88 4d e5             	mov    %cl,-0x1b(%rbp)
  100a4a:	88 45 e4             	mov    %al,-0x1c(%rbp)
  100a4d:	48 8b 7d e8          	mov    -0x18(%rbp),%rdi
  100a51:	8a 45 e4             	mov    -0x1c(%rbp),%al
  100a54:	8a 4d e5             	mov    -0x1b(%rbp),%cl
  100a57:	8a 55 e6             	mov    -0x1a(%rbp),%dl
  100a5a:	40 8a 75 e7          	mov    -0x19(%rbp),%sil
  100a5e:	4c 8b 45 d0          	mov    -0x30(%rbp),%r8
  100a62:	41 88 70 03          	mov    %sil,0x3(%r8)
  100a66:	41 88 50 02          	mov    %dl,0x2(%r8)
  100a6a:	41 88 48 01          	mov    %cl,0x1(%r8)
  100a6e:	41 88 00             	mov    %al,(%r8)
  100a71:	49 89 78 08          	mov    %rdi,0x8(%r8)
  100a75:	48 8b 45 d8          	mov    -0x28(%rbp),%rax
  100a79:	48 83 c4 78          	add    $0x78,%rsp
  100a7d:	5d                   	pop    %rbp
  100a7e:	c3                   	retq   
  100a7f:	48 8b 45 c0          	mov    -0x40(%rbp),%rax
  100a83:	48 8b 4d c8          	mov    -0x38(%rbp),%rcx
  100a87:	48 39 c8             	cmp    %rcx,%rax
  100a8a:	48 89 45 88          	mov    %rax,-0x78(%rbp)
  100a8e:	73 11                	jae    100aa1 <_ZN44_$LT$char$u20$as$u20$core..char..CharExt$GT$11encode_utf817h7df4fc3325f57883E+0x1e1>
  100a90:	48 8b 45 88          	mov    -0x78(%rbp),%rax
  100a94:	c6 00 00             	movb   $0x0,(%rax)
  100a97:	48 83 c0 01          	add    $0x1,%rax
  100a9b:	48 89 45 c0          	mov    %rax,-0x40(%rbp)
  100a9f:	eb de                	jmp    100a7f <_ZN44_$LT$char$u20$as$u20$core..char..CharExt$GT$11encode_utf817h7df4fc3325f57883E+0x1bf>
  100aa1:	81 7d f4 80 00 00 00 	cmpl   $0x80,-0xc(%rbp)
  100aa8:	0f 82 4c fe ff ff    	jb     1008fa <_ZN44_$LT$char$u20$as$u20$core..char..CharExt$GT$11encode_utf817h7df4fc3325f57883E+0x3a>
  100aae:	e9 4f fe ff ff       	jmpq   100902 <_ZN44_$LT$char$u20$as$u20$core..char..CharExt$GT$11encode_utf817h7df4fc3325f57883E+0x42>
  100ab3:	66 2e 0f 1f 84 00 00 	nopw   %cs:0x0(%rax,%rax,1)
  100aba:	00 00 00 
  100abd:	0f 1f 00             	nopl   (%rax)

0000000000100ac0 <_ZN47_$LT$core..result..Result$LT$T$C$$u20$E$GT$$GT$6unwrap17h6a65383c3a5182fcE>:
  100ac0:	55                   	push   %rbp
  100ac1:	48 89 e5             	mov    %rsp,%rbp
  100ac4:	48 83 ec 30          	sub    $0x30,%rsp
  100ac8:	40 88 f8             	mov    %dil,%al
  100acb:	88 45 f7             	mov    %al,-0x9(%rbp)
  100ace:	8a 45 f7             	mov    -0x9(%rbp),%al
  100ad1:	88 45 f8             	mov    %al,-0x8(%rbp)
  100ad4:	8a 45 f8             	mov    -0x8(%rbp),%al
  100ad7:	88 45 f0             	mov    %al,-0x10(%rbp)
  100ada:	84 c0                	test   %al,%al
  100adc:	88 45 df             	mov    %al,-0x21(%rbp)
  100adf:	74 0e                	je     100aef <_ZN47_$LT$core..result..Result$LT$T$C$$u20$E$GT$$GT$6unwrap17h6a65383c3a5182fcE+0x2f>
  100ae1:	eb 00                	jmp    100ae3 <_ZN47_$LT$core..result..Result$LT$T$C$$u20$E$GT$$GT$6unwrap17h6a65383c3a5182fcE+0x23>
  100ae3:	8a 45 df             	mov    -0x21(%rbp),%al
  100ae6:	2c 01                	sub    $0x1,%al
  100ae8:	88 45 de             	mov    %al,-0x22(%rbp)
  100aeb:	74 04                	je     100af1 <_ZN47_$LT$core..result..Result$LT$T$C$$u20$E$GT$$GT$6unwrap17h6a65383c3a5182fcE+0x31>
  100aed:	eb 35                	jmp    100b24 <_ZN47_$LT$core..result..Result$LT$T$C$$u20$E$GT$$GT$6unwrap17h6a65383c3a5182fcE+0x64>
  100aef:	eb 1b                	jmp    100b0c <_ZN47_$LT$core..result..Result$LT$T$C$$u20$E$GT$$GT$6unwrap17h6a65383c3a5182fcE+0x4c>
  100af1:	48 8d 3d 38 e8 00 00 	lea    0xe838(%rip),%rdi        # 10f330 <str3362>
  100af8:	b8 2b 00 00 00       	mov    $0x2b,%eax
  100afd:	89 c6                	mov    %eax,%esi
  100aff:	e8 cc 10 00 00       	callq  101bd0 <_ZN4core6result13unwrap_failed17h2281db82013e9106E>
  100b04:	48 83 c4 30          	add    $0x30,%rsp
  100b08:	5d                   	pop    %rbp
  100b09:	c3                   	retq   
  100b0a:	eb f8                	jmp    100b04 <_ZN47_$LT$core..result..Result$LT$T$C$$u20$E$GT$$GT$6unwrap17h6a65383c3a5182fcE+0x44>
  100b0c:	8a 45 f0             	mov    -0x10(%rbp),%al
  100b0f:	84 c0                	test   %al,%al
  100b11:	88 45 dd             	mov    %al,-0x23(%rbp)
  100b14:	74 ee                	je     100b04 <_ZN47_$LT$core..result..Result$LT$T$C$$u20$E$GT$$GT$6unwrap17h6a65383c3a5182fcE+0x44>
  100b16:	eb 00                	jmp    100b18 <_ZN47_$LT$core..result..Result$LT$T$C$$u20$E$GT$$GT$6unwrap17h6a65383c3a5182fcE+0x58>
  100b18:	8a 45 dd             	mov    -0x23(%rbp),%al
  100b1b:	2c 01                	sub    $0x1,%al
  100b1d:	88 45 dc             	mov    %al,-0x24(%rbp)
  100b20:	74 e8                	je     100b0a <_ZN47_$LT$core..result..Result$LT$T$C$$u20$E$GT$$GT$6unwrap17h6a65383c3a5182fcE+0x4a>
  100b22:	eb 00                	jmp    100b24 <_ZN47_$LT$core..result..Result$LT$T$C$$u20$E$GT$$GT$6unwrap17h6a65383c3a5182fcE+0x64>
  100b24:	66 2e 0f 1f 84 00 00 	nopw   %cs:0x0(%rax,%rax,1)
  100b2b:	00 00 00 
  100b2e:	66 90                	xchg   %ax,%ax

0000000000100b30 <_ZN49_$LT$usize$u20$as$u20$core..iter..range..Step$GT$7add_one17hf8bf05f63b081aa0E>:
  100b30:	55                   	push   %rbp
  100b31:	48 89 e5             	mov    %rsp,%rbp
  100b34:	48 83 ec 20          	sub    $0x20,%rsp
  100b38:	48 89 7d f0          	mov    %rdi,-0x10(%rbp)
  100b3c:	48 8b 45 f0          	mov    -0x10(%rbp),%rax
  100b40:	48 89 45 e8          	mov    %rax,-0x18(%rbp)
  100b44:	48 8b 45 e8          	mov    -0x18(%rbp),%rax
  100b48:	48 8b 00             	mov    (%rax),%rax
  100b4b:	48 83 c0 01          	add    $0x1,%rax
  100b4f:	0f 92 c1             	setb   %cl
  100b52:	f6 c1 01             	test   $0x1,%cl
  100b55:	48 89 45 e0          	mov    %rax,-0x20(%rbp)
  100b59:	75 0a                	jne    100b65 <_ZN49_$LT$usize$u20$as$u20$core..iter..range..Step$GT$7add_one17hf8bf05f63b081aa0E+0x35>
  100b5b:	48 8b 45 e0          	mov    -0x20(%rbp),%rax
  100b5f:	48 83 c4 20          	add    $0x20,%rsp
  100b63:	5d                   	pop    %rbp
  100b64:	c3                   	retq   
  100b65:	48 8d 3d b4 f3 00 00 	lea    0xf3b4(%rip),%rdi        # 10ff20 <panic_loc3367>
  100b6c:	e8 1f 49 00 00       	callq  105490 <_ZN4core9panicking5panic17h585bd70cda921012E>
  100b71:	66 2e 0f 1f 84 00 00 	nopw   %cs:0x0(%rax,%rax,1)
  100b78:	00 00 00 
  100b7b:	0f 1f 44 00 00       	nopl   0x0(%rax,%rax,1)

0000000000100b80 <_ZN4core3cmp5impls57_$LT$impl$u20$core..cmp..PartialOrd$u20$for$u20$usize$GT$2lt17hd644d2d93a548c2aE>:
  100b80:	55                   	push   %rbp
  100b81:	48 89 e5             	mov    %rsp,%rbp
  100b84:	48 83 ec 30          	sub    $0x30,%rsp
  100b88:	48 89 7d f0          	mov    %rdi,-0x10(%rbp)
  100b8c:	48 89 75 e8          	mov    %rsi,-0x18(%rbp)
  100b90:	48 8b 45 f0          	mov    -0x10(%rbp),%rax
  100b94:	48 89 45 e0          	mov    %rax,-0x20(%rbp)
  100b98:	48 8b 45 e8          	mov    -0x18(%rbp),%rax
  100b9c:	48 89 45 d8          	mov    %rax,-0x28(%rbp)
  100ba0:	48 8b 45 e0          	mov    -0x20(%rbp),%rax
  100ba4:	48 8b 00             	mov    (%rax),%rax
  100ba7:	48 8b 4d d8          	mov    -0x28(%rbp),%rcx
  100bab:	48 3b 01             	cmp    (%rcx),%rax
  100bae:	0f 92 c2             	setb   %dl
  100bb1:	88 55 d7             	mov    %dl,-0x29(%rbp)
  100bb4:	8a 45 d7             	mov    -0x29(%rbp),%al
  100bb7:	24 01                	and    $0x1,%al
  100bb9:	0f b6 c0             	movzbl %al,%eax
  100bbc:	48 83 c4 30          	add    $0x30,%rsp
  100bc0:	5d                   	pop    %rbp
  100bc1:	c3                   	retq   
  100bc2:	66 2e 0f 1f 84 00 00 	nopw   %cs:0x0(%rax,%rax,1)
  100bc9:	00 00 00 
  100bcc:	0f 1f 40 00          	nopl   0x0(%rax)

0000000000100bd0 <_ZN4core3fmt10ArgumentV13new17h190f0d83f1bf27fdE>:
  100bd0:	55                   	push   %rbp
  100bd1:	48 89 e5             	mov    %rsp,%rbp
  100bd4:	48 83 ec 50          	sub    $0x50,%rsp
  100bd8:	48 89 f8             	mov    %rdi,%rax
  100bdb:	48 89 75 f8          	mov    %rsi,-0x8(%rbp)
  100bdf:	48 89 55 f0          	mov    %rdx,-0x10(%rbp)
  100be3:	48 89 45 c8          	mov    %rax,-0x38(%rbp)
  100be7:	48 89 7d c0          	mov    %rdi,-0x40(%rbp)
  100beb:	48 8b 45 f8          	mov    -0x8(%rbp),%rax
  100bef:	48 89 45 e8          	mov    %rax,-0x18(%rbp)
  100bf3:	48 8b 45 f0          	mov    -0x10(%rbp),%rax
  100bf7:	48 89 45 e0          	mov    %rax,-0x20(%rbp)
  100bfb:	48 8b 45 e0          	mov    -0x20(%rbp),%rax
  100bff:	48 89 45 d8          	mov    %rax,-0x28(%rbp)
  100c03:	48 8b 45 d8          	mov    -0x28(%rbp),%rax
  100c07:	48 89 45 b8          	mov    %rax,-0x48(%rbp)
  100c0b:	48 8b 45 e8          	mov    -0x18(%rbp),%rax
  100c0f:	48 89 45 d0          	mov    %rax,-0x30(%rbp)
  100c13:	48 8b 45 d0          	mov    -0x30(%rbp),%rax
  100c17:	48 89 45 b0          	mov    %rax,-0x50(%rbp)
  100c1b:	48 8b 45 c0          	mov    -0x40(%rbp),%rax
  100c1f:	48 8b 4d b0          	mov    -0x50(%rbp),%rcx
  100c23:	48 89 08             	mov    %rcx,(%rax)
  100c26:	48 8b 55 b8          	mov    -0x48(%rbp),%rdx
  100c2a:	48 89 50 08          	mov    %rdx,0x8(%rax)
  100c2e:	48 8b 45 c8          	mov    -0x38(%rbp),%rax
  100c32:	48 83 c4 50          	add    $0x50,%rsp
  100c36:	5d                   	pop    %rbp
  100c37:	c3                   	retq   
  100c38:	0f 1f 84 00 00 00 00 	nopl   0x0(%rax,%rax,1)
  100c3f:	00 

0000000000100c40 <_ZN4core3fmt10ArgumentV13new17h5896756d47a52523E>:
  100c40:	55                   	push   %rbp
  100c41:	48 89 e5             	mov    %rsp,%rbp
  100c44:	48 83 ec 50          	sub    $0x50,%rsp
  100c48:	48 89 f8             	mov    %rdi,%rax
  100c4b:	48 89 75 f8          	mov    %rsi,-0x8(%rbp)
  100c4f:	48 89 55 f0          	mov    %rdx,-0x10(%rbp)
  100c53:	48 89 45 c8          	mov    %rax,-0x38(%rbp)
  100c57:	48 89 7d c0          	mov    %rdi,-0x40(%rbp)
  100c5b:	48 8b 45 f8          	mov    -0x8(%rbp),%rax
  100c5f:	48 89 45 e8          	mov    %rax,-0x18(%rbp)
  100c63:	48 8b 45 f0          	mov    -0x10(%rbp),%rax
  100c67:	48 89 45 e0          	mov    %rax,-0x20(%rbp)
  100c6b:	48 8b 45 e0          	mov    -0x20(%rbp),%rax
  100c6f:	48 89 45 d8          	mov    %rax,-0x28(%rbp)
  100c73:	48 8b 45 d8          	mov    -0x28(%rbp),%rax
  100c77:	48 89 45 b8          	mov    %rax,-0x48(%rbp)
  100c7b:	48 8b 45 e8          	mov    -0x18(%rbp),%rax
  100c7f:	48 89 45 d0          	mov    %rax,-0x30(%rbp)
  100c83:	48 8b 45 d0          	mov    -0x30(%rbp),%rax
  100c87:	48 89 45 b0          	mov    %rax,-0x50(%rbp)
  100c8b:	48 8b 45 c0          	mov    -0x40(%rbp),%rax
  100c8f:	48 8b 4d b0          	mov    -0x50(%rbp),%rcx
  100c93:	48 89 08             	mov    %rcx,(%rax)
  100c96:	48 8b 55 b8          	mov    -0x48(%rbp),%rdx
  100c9a:	48 89 50 08          	mov    %rdx,0x8(%rax)
  100c9e:	48 8b 45 c8          	mov    -0x38(%rbp),%rax
  100ca2:	48 83 c4 50          	add    $0x50,%rsp
  100ca6:	5d                   	pop    %rbp
  100ca7:	c3                   	retq   
  100ca8:	0f 1f 84 00 00 00 00 	nopl   0x0(%rax,%rax,1)
  100caf:	00 

0000000000100cb0 <_ZN4core3fmt10ArgumentV13new17h710935a10de9157aE>:
  100cb0:	55                   	push   %rbp
  100cb1:	48 89 e5             	mov    %rsp,%rbp
  100cb4:	48 83 ec 50          	sub    $0x50,%rsp
  100cb8:	48 89 f8             	mov    %rdi,%rax
  100cbb:	48 89 75 f8          	mov    %rsi,-0x8(%rbp)
  100cbf:	48 89 55 f0          	mov    %rdx,-0x10(%rbp)
  100cc3:	48 89 45 c8          	mov    %rax,-0x38(%rbp)
  100cc7:	48 89 7d c0          	mov    %rdi,-0x40(%rbp)
  100ccb:	48 8b 45 f8          	mov    -0x8(%rbp),%rax
  100ccf:	48 89 45 e8          	mov    %rax,-0x18(%rbp)
  100cd3:	48 8b 45 f0          	mov    -0x10(%rbp),%rax
  100cd7:	48 89 45 e0          	mov    %rax,-0x20(%rbp)
  100cdb:	48 8b 45 e0          	mov    -0x20(%rbp),%rax
  100cdf:	48 89 45 d8          	mov    %rax,-0x28(%rbp)
  100ce3:	48 8b 45 d8          	mov    -0x28(%rbp),%rax
  100ce7:	48 89 45 b8          	mov    %rax,-0x48(%rbp)
  100ceb:	48 8b 45 e8          	mov    -0x18(%rbp),%rax
  100cef:	48 89 45 d0          	mov    %rax,-0x30(%rbp)
  100cf3:	48 8b 45 d0          	mov    -0x30(%rbp),%rax
  100cf7:	48 89 45 b0          	mov    %rax,-0x50(%rbp)
  100cfb:	48 8b 45 c0          	mov    -0x40(%rbp),%rax
  100cff:	48 8b 4d b0          	mov    -0x50(%rbp),%rcx
  100d03:	48 89 08             	mov    %rcx,(%rax)
  100d06:	48 8b 55 b8          	mov    -0x48(%rbp),%rdx
  100d0a:	48 89 50 08          	mov    %rdx,0x8(%rax)
  100d0e:	48 8b 45 c8          	mov    -0x38(%rbp),%rax
  100d12:	48 83 c4 50          	add    $0x50,%rsp
  100d16:	5d                   	pop    %rbp
  100d17:	c3                   	retq   
  100d18:	0f 1f 84 00 00 00 00 	nopl   0x0(%rax,%rax,1)
  100d1f:	00 

0000000000100d20 <_ZN4core3fmt10ArgumentV13new17ha44b0589c3ad86f4E>:
  100d20:	55                   	push   %rbp
  100d21:	48 89 e5             	mov    %rsp,%rbp
  100d24:	48 83 ec 50          	sub    $0x50,%rsp
  100d28:	48 89 f8             	mov    %rdi,%rax
  100d2b:	48 89 75 f8          	mov    %rsi,-0x8(%rbp)
  100d2f:	48 89 55 f0          	mov    %rdx,-0x10(%rbp)
  100d33:	48 89 45 c8          	mov    %rax,-0x38(%rbp)
  100d37:	48 89 7d c0          	mov    %rdi,-0x40(%rbp)
  100d3b:	48 8b 45 f8          	mov    -0x8(%rbp),%rax
  100d3f:	48 89 45 e8          	mov    %rax,-0x18(%rbp)
  100d43:	48 8b 45 f0          	mov    -0x10(%rbp),%rax
  100d47:	48 89 45 e0          	mov    %rax,-0x20(%rbp)
  100d4b:	48 8b 45 e0          	mov    -0x20(%rbp),%rax
  100d4f:	48 89 45 d8          	mov    %rax,-0x28(%rbp)
  100d53:	48 8b 45 d8          	mov    -0x28(%rbp),%rax
  100d57:	48 89 45 b8          	mov    %rax,-0x48(%rbp)
  100d5b:	48 8b 45 e8          	mov    -0x18(%rbp),%rax
  100d5f:	48 89 45 d0          	mov    %rax,-0x30(%rbp)
  100d63:	48 8b 45 d0          	mov    -0x30(%rbp),%rax
  100d67:	48 89 45 b0          	mov    %rax,-0x50(%rbp)
  100d6b:	48 8b 45 c0          	mov    -0x40(%rbp),%rax
  100d6f:	48 8b 4d b0          	mov    -0x50(%rbp),%rcx
  100d73:	48 89 08             	mov    %rcx,(%rax)
  100d76:	48 8b 55 b8          	mov    -0x48(%rbp),%rdx
  100d7a:	48 89 50 08          	mov    %rdx,0x8(%rax)
  100d7e:	48 8b 45 c8          	mov    -0x38(%rbp),%rax
  100d82:	48 83 c4 50          	add    $0x50,%rsp
  100d86:	5d                   	pop    %rbp
  100d87:	c3                   	retq   
  100d88:	0f 1f 84 00 00 00 00 	nopl   0x0(%rax,%rax,1)
  100d8f:	00 

0000000000100d90 <_ZN4core3fmt10ArgumentV13new17hb135dd234f17800cE>:
  100d90:	55                   	push   %rbp
  100d91:	48 89 e5             	mov    %rsp,%rbp
  100d94:	48 83 ec 50          	sub    $0x50,%rsp
  100d98:	48 89 f8             	mov    %rdi,%rax
  100d9b:	48 89 75 f8          	mov    %rsi,-0x8(%rbp)
  100d9f:	48 89 55 f0          	mov    %rdx,-0x10(%rbp)
  100da3:	48 89 45 c8          	mov    %rax,-0x38(%rbp)
  100da7:	48 89 7d c0          	mov    %rdi,-0x40(%rbp)
  100dab:	48 8b 45 f8          	mov    -0x8(%rbp),%rax
  100daf:	48 89 45 e8          	mov    %rax,-0x18(%rbp)
  100db3:	48 8b 45 f0          	mov    -0x10(%rbp),%rax
  100db7:	48 89 45 e0          	mov    %rax,-0x20(%rbp)
  100dbb:	48 8b 45 e0          	mov    -0x20(%rbp),%rax
  100dbf:	48 89 45 d8          	mov    %rax,-0x28(%rbp)
  100dc3:	48 8b 45 d8          	mov    -0x28(%rbp),%rax
  100dc7:	48 89 45 b8          	mov    %rax,-0x48(%rbp)
  100dcb:	48 8b 45 e8          	mov    -0x18(%rbp),%rax
  100dcf:	48 89 45 d0          	mov    %rax,-0x30(%rbp)
  100dd3:	48 8b 45 d0          	mov    -0x30(%rbp),%rax
  100dd7:	48 89 45 b0          	mov    %rax,-0x50(%rbp)
  100ddb:	48 8b 45 c0          	mov    -0x40(%rbp),%rax
  100ddf:	48 8b 4d b0          	mov    -0x50(%rbp),%rcx
  100de3:	48 89 08             	mov    %rcx,(%rax)
  100de6:	48 8b 55 b8          	mov    -0x48(%rbp),%rdx
  100dea:	48 89 50 08          	mov    %rdx,0x8(%rax)
  100dee:	48 8b 45 c8          	mov    -0x38(%rbp),%rax
  100df2:	48 83 c4 50          	add    $0x50,%rsp
  100df6:	5d                   	pop    %rbp
  100df7:	c3                   	retq   
  100df8:	0f 1f 84 00 00 00 00 	nopl   0x0(%rax,%rax,1)
  100dff:	00 

0000000000100e00 <_ZN4core3fmt5Write10write_char17haa7b585e8a6f2d29E>:
  100e00:	55                   	push   %rbp
  100e01:	48 89 e5             	mov    %rsp,%rbp
  100e04:	48 81 ec a0 00 00 00 	sub    $0xa0,%rsp
  100e0b:	48 89 7d c0          	mov    %rdi,-0x40(%rbp)
  100e0f:	89 75 bc             	mov    %esi,-0x44(%rbp)
  100e12:	48 8d 7d 98          	lea    -0x68(%rbp),%rdi
  100e16:	48 8b 45 c0          	mov    -0x40(%rbp),%rax
  100e1a:	48 89 45 b0          	mov    %rax,-0x50(%rbp)
  100e1e:	8b 4d bc             	mov    -0x44(%rbp),%ecx
  100e21:	89 4d ac             	mov    %ecx,-0x54(%rbp)
  100e24:	48 8b 45 b0          	mov    -0x50(%rbp),%rax
  100e28:	8b 75 ac             	mov    -0x54(%rbp),%esi
  100e2b:	48 89 45 80          	mov    %rax,-0x80(%rbp)
  100e2f:	e8 8c fa ff ff       	callq  1008c0 <_ZN44_$LT$char$u20$as$u20$core..char..CharExt$GT$11encode_utf817h7df4fc3325f57883E>
  100e34:	48 8d 7d 98          	lea    -0x68(%rbp),%rdi
  100e38:	e8 03 46 00 00       	callq  105440 <_ZN4core4char10EncodeUtf88as_slice17h087b7807397e0642E>
  100e3d:	48 89 85 78 ff ff ff 	mov    %rax,-0x88(%rbp)
  100e44:	48 89 95 70 ff ff ff 	mov    %rdx,-0x90(%rbp)
  100e4b:	48 8b 85 78 ff ff ff 	mov    -0x88(%rbp),%rax
  100e52:	48 89 45 f0          	mov    %rax,-0x10(%rbp)
  100e56:	48 8b 8d 70 ff ff ff 	mov    -0x90(%rbp),%rcx
  100e5d:	48 89 4d f8          	mov    %rcx,-0x8(%rbp)
  100e61:	48 8b 55 f0          	mov    -0x10(%rbp),%rdx
  100e65:	48 89 55 e0          	mov    %rdx,-0x20(%rbp)
  100e69:	48 89 4d e8          	mov    %rcx,-0x18(%rbp)
  100e6d:	48 8b 55 e0          	mov    -0x20(%rbp),%rdx
  100e71:	48 89 55 d0          	mov    %rdx,-0x30(%rbp)
  100e75:	48 89 4d d8          	mov    %rcx,-0x28(%rbp)
  100e79:	48 8b 75 d0          	mov    -0x30(%rbp),%rsi
  100e7d:	48 89 8d 68 ff ff ff 	mov    %rcx,-0x98(%rbp)
  100e84:	48 89 b5 60 ff ff ff 	mov    %rsi,-0xa0(%rbp)
  100e8b:	48 8b 7d 80          	mov    -0x80(%rbp),%rdi
  100e8f:	48 8b b5 60 ff ff ff 	mov    -0xa0(%rbp),%rsi
  100e96:	48 8b 95 68 ff ff ff 	mov    -0x98(%rbp),%rdx
  100e9d:	e8 9e 1e 00 00       	callq  102d40 <_ZN64_$LT$rich_os..vga_buffer..Writer$u20$as$u20$core..fmt..Write$GT$9write_str17h33f53848afa97612E>
  100ea2:	88 45 8f             	mov    %al,-0x71(%rbp)
  100ea5:	8a 45 8f             	mov    -0x71(%rbp),%al
  100ea8:	88 45 90             	mov    %al,-0x70(%rbp)
  100eab:	8a 45 90             	mov    -0x70(%rbp),%al
  100eae:	48 81 c4 a0 00 00 00 	add    $0xa0,%rsp
  100eb5:	5d                   	pop    %rbp
  100eb6:	c3                   	retq   
  100eb7:	66 0f 1f 84 00 00 00 	nopw   0x0(%rax,%rax,1)
  100ebe:	00 00 

0000000000100ec0 <_ZN4core3fmt5Write9write_fmt17h7ffd43ad7946567dE>:
  100ec0:	55                   	push   %rbp
  100ec1:	48 89 e5             	mov    %rsp,%rbp
  100ec4:	48 81 ec f0 00 00 00 	sub    $0xf0,%rsp
  100ecb:	b8 30 00 00 00       	mov    $0x30,%eax
  100ed0:	89 c2                	mov    %eax,%edx
  100ed2:	48 8d 4d c0          	lea    -0x40(%rbp),%rcx
  100ed6:	48 89 7d f0          	mov    %rdi,-0x10(%rbp)
  100eda:	48 89 cf             	mov    %rcx,%rdi
  100edd:	e8 6e 32 00 00       	callq  104150 <memcpy>
  100ee2:	48 8d 35 5f f0 00 00 	lea    0xf05f(%rip),%rsi        # 10ff48 <vtable3369>
  100ee9:	48 8d 85 50 ff ff ff 	lea    -0xb0(%rbp),%rax
  100ef0:	b9 30 00 00 00       	mov    $0x30,%ecx
  100ef5:	89 ca                	mov    %ecx,%edx
  100ef7:	48 8d 7d 88          	lea    -0x78(%rbp),%rdi
  100efb:	4c 8d 45 80          	lea    -0x80(%rbp),%r8
  100eff:	4c 8d 4d c0          	lea    -0x40(%rbp),%r9
  100f03:	4c 8b 55 f0          	mov    -0x10(%rbp),%r10
  100f07:	4c 89 55 b8          	mov    %r10,-0x48(%rbp)
  100f0b:	49 89 fa             	mov    %rdi,%r10
  100f0e:	48 89 bd 38 ff ff ff 	mov    %rdi,-0xc8(%rbp)
  100f15:	4c 89 d7             	mov    %r10,%rdi
  100f18:	48 89 b5 30 ff ff ff 	mov    %rsi,-0xd0(%rbp)
  100f1f:	4c 89 ce             	mov    %r9,%rsi
  100f22:	48 89 95 28 ff ff ff 	mov    %rdx,-0xd8(%rbp)
  100f29:	4c 89 85 20 ff ff ff 	mov    %r8,-0xe0(%rbp)
  100f30:	48 89 85 18 ff ff ff 	mov    %rax,-0xe8(%rbp)
  100f37:	e8 14 32 00 00       	callq  104150 <memcpy>
  100f3c:	48 8b 45 b8          	mov    -0x48(%rbp),%rax
  100f40:	48 89 45 80          	mov    %rax,-0x80(%rbp)
  100f44:	48 8b 85 20 ff ff ff 	mov    -0xe0(%rbp),%rax
  100f4b:	48 8b 95 38 ff ff ff 	mov    -0xc8(%rbp),%rdx
  100f52:	48 8b b5 18 ff ff ff 	mov    -0xe8(%rbp),%rsi
  100f59:	48 89 f7             	mov    %rsi,%rdi
  100f5c:	48 89 d6             	mov    %rdx,%rsi
  100f5f:	48 8b 95 28 ff ff ff 	mov    -0xd8(%rbp),%rdx
  100f66:	48 89 85 10 ff ff ff 	mov    %rax,-0xf0(%rbp)
  100f6d:	e8 de 31 00 00       	callq  104150 <memcpy>
  100f72:	48 8b bd 10 ff ff ff 	mov    -0xf0(%rbp),%rdi
  100f79:	48 8b b5 30 ff ff ff 	mov    -0xd0(%rbp),%rsi
  100f80:	48 8b 95 18 ff ff ff 	mov    -0xe8(%rbp),%rdx
  100f87:	e8 b4 b1 00 00       	callq  10c140 <_ZN4core3fmt5write17hdcfad2ffcde93598E>
  100f8c:	88 85 47 ff ff ff    	mov    %al,-0xb9(%rbp)
  100f92:	8a 85 47 ff ff ff    	mov    -0xb9(%rbp),%al
  100f98:	88 85 48 ff ff ff    	mov    %al,-0xb8(%rbp)
  100f9e:	8a 85 48 ff ff ff    	mov    -0xb8(%rbp),%al
  100fa4:	48 81 c4 f0 00 00 00 	add    $0xf0,%rsp
  100fab:	5d                   	pop    %rbp
  100fac:	c3                   	retq   
  100fad:	0f 1f 00             	nopl   (%rax)

0000000000100fb0 <_ZN4core3fmt9Arguments6new_v117h2ee48eb28c0cff0aE>:
  100fb0:	55                   	push   %rbp
  100fb1:	48 89 e5             	mov    %rsp,%rbp
  100fb4:	48 83 ec 60          	sub    $0x60,%rsp
  100fb8:	48 89 f8             	mov    %rdi,%rax
  100fbb:	48 89 75 f0          	mov    %rsi,-0x10(%rbp)
  100fbf:	48 89 55 f8          	mov    %rdx,-0x8(%rbp)
  100fc3:	48 89 4d e0          	mov    %rcx,-0x20(%rbp)
  100fc7:	4c 89 45 e8          	mov    %r8,-0x18(%rbp)
  100fcb:	48 89 45 a8          	mov    %rax,-0x58(%rbp)
  100fcf:	48 89 7d a0          	mov    %rdi,-0x60(%rbp)
  100fd3:	48 8b 45 f0          	mov    -0x10(%rbp),%rax
  100fd7:	48 8b 4d f8          	mov    -0x8(%rbp),%rcx
  100fdb:	48 89 45 d0          	mov    %rax,-0x30(%rbp)
  100fdf:	48 89 4d d8          	mov    %rcx,-0x28(%rbp)
  100fe3:	48 8b 45 e0          	mov    -0x20(%rbp),%rax
  100fe7:	48 8b 4d e8          	mov    -0x18(%rbp),%rcx
  100feb:	48 89 45 c0          	mov    %rax,-0x40(%rbp)
  100fef:	48 89 4d c8          	mov    %rcx,-0x38(%rbp)
  100ff3:	48 8b 45 d0          	mov    -0x30(%rbp),%rax
  100ff7:	48 8b 4d d8          	mov    -0x28(%rbp),%rcx
  100ffb:	48 c7 45 b0 00 00 00 	movq   $0x0,-0x50(%rbp)
  101002:	00 
  101003:	48 8b 55 c0          	mov    -0x40(%rbp),%rdx
  101007:	48 8b 75 c8          	mov    -0x38(%rbp),%rsi
  10100b:	48 8b 7d a0          	mov    -0x60(%rbp),%rdi
  10100f:	48 89 07             	mov    %rax,(%rdi)
  101012:	48 89 4f 08          	mov    %rcx,0x8(%rdi)
  101016:	48 8b 45 b0          	mov    -0x50(%rbp),%rax
  10101a:	48 89 47 10          	mov    %rax,0x10(%rdi)
  10101e:	48 8b 45 b8          	mov    -0x48(%rbp),%rax
  101022:	48 89 47 18          	mov    %rax,0x18(%rdi)
  101026:	48 89 57 20          	mov    %rdx,0x20(%rdi)
  10102a:	48 89 77 28          	mov    %rsi,0x28(%rdi)
  10102e:	48 8b 45 a8          	mov    -0x58(%rbp),%rax
  101032:	48 83 c4 60          	add    $0x60,%rsp
  101036:	5d                   	pop    %rbp
  101037:	c3                   	retq   
  101038:	0f 1f 84 00 00 00 00 	nopl   0x0(%rax,%rax,1)
  10103f:	00 

0000000000101040 <_ZN4core3mem13uninitialized17hcc7bbf736b8e680eE>:
  101040:	55                   	push   %rbp
  101041:	48 89 e5             	mov    %rsp,%rbp
  101044:	48 83 ec 18          	sub    $0x18,%rsp
  101048:	48 8b 45 f0          	mov    -0x10(%rbp),%rax
  10104c:	48 89 45 e8          	mov    %rax,-0x18(%rbp)
  101050:	48 8b 45 e8          	mov    -0x18(%rbp),%rax
  101054:	48 83 c4 18          	add    $0x18,%rsp
  101058:	5d                   	pop    %rbp
  101059:	c3                   	retq   
  10105a:	66 0f 1f 44 00 00    	nopw   0x0(%rax,%rax,1)

0000000000101060 <_ZN4core3mem4swap17he49de6341082a5f9E>:
  101060:	55                   	push   %rbp
  101061:	48 89 e5             	mov    %rsp,%rbp
  101064:	48 83 ec 30          	sub    $0x30,%rsp
  101068:	48 89 7d f8          	mov    %rdi,-0x8(%rbp)
  10106c:	48 89 75 f0          	mov    %rsi,-0x10(%rbp)
  101070:	48 8b 45 f8          	mov    -0x8(%rbp),%rax
  101074:	48 89 45 e8          	mov    %rax,-0x18(%rbp)
  101078:	48 8b 45 f0          	mov    -0x10(%rbp),%rax
  10107c:	48 89 45 e0          	mov    %rax,-0x20(%rbp)
  101080:	e8 bb ff ff ff       	callq  101040 <_ZN4core3mem13uninitialized17hcc7bbf736b8e680eE>
  101085:	48 89 45 d8          	mov    %rax,-0x28(%rbp)
  101089:	48 8b 45 e8          	mov    -0x18(%rbp),%rax
  10108d:	48 8b 00             	mov    (%rax),%rax
  101090:	48 89 45 d8          	mov    %rax,-0x28(%rbp)
  101094:	48 8b 45 e0          	mov    -0x20(%rbp),%rax
  101098:	48 8b 4d e8          	mov    -0x18(%rbp),%rcx
  10109c:	48 8b 00             	mov    (%rax),%rax
  10109f:	48 89 01             	mov    %rax,(%rcx)
  1010a2:	48 8b 45 e0          	mov    -0x20(%rbp),%rax
  1010a6:	48 8b 4d d8          	mov    -0x28(%rbp),%rcx
  1010aa:	48 89 08             	mov    %rcx,(%rax)
  1010ad:	48 8b 7d d8          	mov    -0x28(%rbp),%rdi
  1010b1:	e8 0a 00 00 00       	callq  1010c0 <_ZN4core3mem6forget17h75fdb96bad032ef5E>
  1010b6:	48 83 c4 30          	add    $0x30,%rsp
  1010ba:	5d                   	pop    %rbp
  1010bb:	c3                   	retq   
  1010bc:	0f 1f 40 00          	nopl   0x0(%rax)

00000000001010c0 <_ZN4core3mem6forget17h75fdb96bad032ef5E>:
  1010c0:	55                   	push   %rbp
  1010c1:	48 89 e5             	mov    %rsp,%rbp
  1010c4:	48 83 ec 10          	sub    $0x10,%rsp
  1010c8:	48 89 7d f8          	mov    %rdi,-0x8(%rbp)
  1010cc:	48 8b 45 f8          	mov    -0x8(%rbp),%rax
  1010d0:	48 89 45 f0          	mov    %rax,-0x10(%rbp)
  1010d4:	eb 00                	jmp    1010d6 <_ZN4core3mem6forget17h75fdb96bad032ef5E+0x16>
  1010d6:	48 83 c4 10          	add    $0x10,%rsp
  1010da:	5d                   	pop    %rbp
  1010db:	c3                   	retq   
  1010dc:	0f 1f 40 00          	nopl   0x0(%rax)

00000000001010e0 <_ZN4core3mem7size_of17hb7c38d54091f1b39E>:
  1010e0:	55                   	push   %rbp
  1010e1:	48 89 e5             	mov    %rsp,%rbp
  1010e4:	48 83 ec 18          	sub    $0x18,%rsp
  1010e8:	48 c7 45 f0 01 00 00 	movq   $0x1,-0x10(%rbp)
  1010ef:	00 
  1010f0:	48 8b 45 f0          	mov    -0x10(%rbp),%rax
  1010f4:	48 89 45 e8          	mov    %rax,-0x18(%rbp)
  1010f8:	48 8b 45 e8          	mov    -0x18(%rbp),%rax
  1010fc:	48 83 c4 18          	add    $0x18,%rsp
  101100:	5d                   	pop    %rbp
  101101:	c3                   	retq   
  101102:	66 2e 0f 1f 84 00 00 	nopw   %cs:0x0(%rax,%rax,1)
  101109:	00 00 00 
  10110c:	0f 1f 40 00          	nopl   0x0(%rax)

0000000000101110 <_ZN4core3ptr31_$LT$impl$u20$$BP$mut$u20$T$GT$6offset17hd699195ba756a29fE>:
  101110:	55                   	push   %rbp
  101111:	48 89 e5             	mov    %rsp,%rbp
  101114:	48 83 ec 38          	sub    $0x38,%rsp
  101118:	48 89 7d f0          	mov    %rdi,-0x10(%rbp)
  10111c:	48 89 75 e8          	mov    %rsi,-0x18(%rbp)
  101120:	48 8b 45 f0          	mov    -0x10(%rbp),%rax
  101124:	48 89 45 e0          	mov    %rax,-0x20(%rbp)
  101128:	48 8b 45 e8          	mov    -0x18(%rbp),%rax
  10112c:	48 89 45 d8          	mov    %rax,-0x28(%rbp)
  101130:	48 8b 45 e0          	mov    -0x20(%rbp),%rax
  101134:	48 03 45 d8          	add    -0x28(%rbp),%rax
  101138:	48 89 45 d0          	mov    %rax,-0x30(%rbp)
  10113c:	48 8b 45 d0          	mov    -0x30(%rbp),%rax
  101140:	48 89 45 c8          	mov    %rax,-0x38(%rbp)
  101144:	48 8b 45 c8          	mov    -0x38(%rbp),%rax
  101148:	48 83 c4 38          	add    $0x38,%rsp
  10114c:	5d                   	pop    %rbp
  10114d:	c3                   	retq   
  10114e:	66 90                	xchg   %ax,%ax

0000000000101150 <_ZN4core3ptr33_$LT$impl$u20$$BP$const$u20$T$GT$6offset17h0d62b7cbced53ff4E>:
  101150:	55                   	push   %rbp
  101151:	48 89 e5             	mov    %rsp,%rbp
  101154:	48 83 ec 38          	sub    $0x38,%rsp
  101158:	48 89 7d f0          	mov    %rdi,-0x10(%rbp)
  10115c:	48 89 75 e8          	mov    %rsi,-0x18(%rbp)
  101160:	48 8b 45 f0          	mov    -0x10(%rbp),%rax
  101164:	48 89 45 e0          	mov    %rax,-0x20(%rbp)
  101168:	48 8b 45 e8          	mov    -0x18(%rbp),%rax
  10116c:	48 89 45 d8          	mov    %rax,-0x28(%rbp)
  101170:	48 8b 45 e0          	mov    -0x20(%rbp),%rax
  101174:	48 03 45 d8          	add    -0x28(%rbp),%rax
  101178:	48 89 45 d0          	mov    %rax,-0x30(%rbp)
  10117c:	48 8b 45 d0          	mov    -0x30(%rbp),%rax
  101180:	48 89 45 c8          	mov    %rax,-0x38(%rbp)
  101184:	48 8b 45 c8          	mov    -0x38(%rbp),%rax
  101188:	48 83 c4 38          	add    $0x38,%rsp
  10118c:	5d                   	pop    %rbp
  10118d:	c3                   	retq   
  10118e:	66 90                	xchg   %ax,%ax

0000000000101190 <_ZN4core3ptr33_$LT$impl$u20$$BP$const$u20$T$GT$6offset17h991e076664d68775E>:
  101190:	55                   	push   %rbp
  101191:	48 89 e5             	mov    %rsp,%rbp
  101194:	48 83 ec 38          	sub    $0x38,%rsp
  101198:	48 89 7d f0          	mov    %rdi,-0x10(%rbp)
  10119c:	48 89 75 e8          	mov    %rsi,-0x18(%rbp)
  1011a0:	48 8b 45 f0          	mov    -0x10(%rbp),%rax
  1011a4:	48 89 45 e0          	mov    %rax,-0x20(%rbp)
  1011a8:	48 8b 45 e8          	mov    -0x18(%rbp),%rax
  1011ac:	48 89 45 d8          	mov    %rax,-0x28(%rbp)
  1011b0:	48 8b 45 e0          	mov    -0x20(%rbp),%rax
  1011b4:	48 69 4d d8 a0 00 00 	imul   $0xa0,-0x28(%rbp),%rcx
  1011bb:	00 
  1011bc:	48 01 c8             	add    %rcx,%rax
  1011bf:	48 89 45 d0          	mov    %rax,-0x30(%rbp)
  1011c3:	48 8b 45 d0          	mov    -0x30(%rbp),%rax
  1011c7:	48 89 45 c8          	mov    %rax,-0x38(%rbp)
  1011cb:	48 8b 45 c8          	mov    -0x38(%rbp),%rax
  1011cf:	48 83 c4 38          	add    $0x38,%rsp
  1011d3:	5d                   	pop    %rbp
  1011d4:	c3                   	retq   
  1011d5:	66 2e 0f 1f 84 00 00 	nopw   %cs:0x0(%rax,%rax,1)
  1011dc:	00 00 00 
  1011df:	90                   	nop

00000000001011e0 <_ZN4core3ptr33_$LT$impl$u20$$BP$const$u20$T$GT$7is_null17h99216fd405cc08a2E>:
  1011e0:	55                   	push   %rbp
  1011e1:	48 89 e5             	mov    %rsp,%rbp
  1011e4:	48 83 ec 30          	sub    $0x30,%rsp
  1011e8:	48 89 7d f0          	mov    %rdi,-0x10(%rbp)
  1011ec:	48 8b 45 f0          	mov    -0x10(%rbp),%rax
  1011f0:	48 89 45 e8          	mov    %rax,-0x18(%rbp)
  1011f4:	48 8b 45 e8          	mov    -0x18(%rbp),%rax
  1011f8:	48 89 45 e0          	mov    %rax,-0x20(%rbp)
  1011fc:	e8 1f 00 00 00       	callq  101220 <_ZN4core3ptr4null17h38bc82616197e7b7E>
  101201:	48 89 45 d8          	mov    %rax,-0x28(%rbp)
  101205:	48 8b 45 e0          	mov    -0x20(%rbp),%rax
  101209:	48 8b 4d d8          	mov    -0x28(%rbp),%rcx
  10120d:	48 39 c8             	cmp    %rcx,%rax
  101210:	0f 94 c2             	sete   %dl
  101213:	80 e2 01             	and    $0x1,%dl
  101216:	0f b6 c2             	movzbl %dl,%eax
  101219:	48 83 c4 30          	add    $0x30,%rsp
  10121d:	5d                   	pop    %rbp
  10121e:	c3                   	retq   
  10121f:	90                   	nop

0000000000101220 <_ZN4core3ptr4null17h38bc82616197e7b7E>:
  101220:	55                   	push   %rbp
  101221:	48 89 e5             	mov    %rsp,%rbp
  101224:	50                   	push   %rax
  101225:	eb 00                	jmp    101227 <_ZN4core3ptr4null17h38bc82616197e7b7E+0x7>
  101227:	31 c0                	xor    %eax,%eax
  101229:	48 83 c4 08          	add    $0x8,%rsp
  10122d:	5d                   	pop    %rbp
  10122e:	c3                   	retq   
  10122f:	90                   	nop

0000000000101230 <_ZN4core4iter5range86_$LT$impl$u20$core..iter..iterator..Iterator$u20$for$u20$core..ops..Range$LT$A$GT$$GT$4next17h05ed5ee39168d888E>:
  101230:	55                   	push   %rbp
  101231:	48 89 e5             	mov    %rsp,%rbp
  101234:	48 83 ec 30          	sub    $0x30,%rsp
  101238:	48 89 f8             	mov    %rdi,%rax
  10123b:	48 89 75 f8          	mov    %rsi,-0x8(%rbp)
  10123f:	48 89 45 e0          	mov    %rax,-0x20(%rbp)
  101243:	48 89 7d d8          	mov    %rdi,-0x28(%rbp)
  101247:	48 8b 45 f8          	mov    -0x8(%rbp),%rax
  10124b:	48 89 45 f0          	mov    %rax,-0x10(%rbp)
  10124f:	48 8b 7d f0          	mov    -0x10(%rbp),%rdi
  101253:	48 8b 45 f0          	mov    -0x10(%rbp),%rax
  101257:	48 83 c0 08          	add    $0x8,%rax
  10125b:	48 89 c6             	mov    %rax,%rsi
  10125e:	e8 1d f9 ff ff       	callq  100b80 <_ZN4core3cmp5impls57_$LT$impl$u20$core..cmp..PartialOrd$u20$for$u20$usize$GT$2lt17hd644d2d93a548c2aE>
  101263:	88 45 d7             	mov    %al,-0x29(%rbp)
  101266:	8a 45 d7             	mov    -0x29(%rbp),%al
  101269:	a8 01                	test   $0x1,%al
  10126b:	75 02                	jne    10126f <_ZN4core4iter5range86_$LT$impl$u20$core..iter..iterator..Iterator$u20$for$u20$core..ops..Range$LT$A$GT$$GT$4next17h05ed5ee39168d888E+0x3f>
  10126d:	eb 0f                	jmp    10127e <_ZN4core4iter5range86_$LT$impl$u20$core..iter..iterator..Iterator$u20$for$u20$core..ops..Range$LT$A$GT$$GT$4next17h05ed5ee39168d888E+0x4e>
  10126f:	48 8b 7d f0          	mov    -0x10(%rbp),%rdi
  101273:	e8 b8 f8 ff ff       	callq  100b30 <_ZN49_$LT$usize$u20$as$u20$core..iter..range..Step$GT$7add_one17hf8bf05f63b081aa0E>
  101278:	48 89 45 e8          	mov    %rax,-0x18(%rbp)
  10127c:	eb 0d                	jmp    10128b <_ZN4core4iter5range86_$LT$impl$u20$core..iter..iterator..Iterator$u20$for$u20$core..ops..Range$LT$A$GT$$GT$4next17h05ed5ee39168d888E+0x5b>
  10127e:	48 8b 45 d8          	mov    -0x28(%rbp),%rax
  101282:	48 c7 00 00 00 00 00 	movq   $0x0,(%rax)
  101289:	eb 20                	jmp    1012ab <_ZN4core4iter5range86_$LT$impl$u20$core..iter..iterator..Iterator$u20$for$u20$core..ops..Range$LT$A$GT$$GT$4next17h05ed5ee39168d888E+0x7b>
  10128b:	48 8d 7d e8          	lea    -0x18(%rbp),%rdi
  10128f:	48 8b 75 f0          	mov    -0x10(%rbp),%rsi
  101293:	e8 c8 fd ff ff       	callq  101060 <_ZN4core3mem4swap17he49de6341082a5f9E>
  101298:	48 8b 45 e8          	mov    -0x18(%rbp),%rax
  10129c:	48 8b 4d d8          	mov    -0x28(%rbp),%rcx
  1012a0:	48 c7 01 01 00 00 00 	movq   $0x1,(%rcx)
  1012a7:	48 89 41 08          	mov    %rax,0x8(%rcx)
  1012ab:	48 8b 45 e0          	mov    -0x20(%rbp),%rax
  1012af:	48 83 c4 30          	add    $0x30,%rsp
  1012b3:	5d                   	pop    %rbp
  1012b4:	c3                   	retq   
  1012b5:	66 2e 0f 1f 84 00 00 	nopw   %cs:0x0(%rax,%rax,1)
  1012bc:	00 00 00 
  1012bf:	90                   	nop

00000000001012c0 <_ZN4core4iter8iterator8Iterator6cloned17heb982401e12d39c6E>:
  1012c0:	55                   	push   %rbp
  1012c1:	48 89 e5             	mov    %rsp,%rbp
  1012c4:	48 83 ec 40          	sub    $0x40,%rsp
  1012c8:	48 89 f8             	mov    %rdi,%rax
  1012cb:	48 8b 0e             	mov    (%rsi),%rcx
  1012ce:	48 89 4d f0          	mov    %rcx,-0x10(%rbp)
  1012d2:	48 8b 4e 08          	mov    0x8(%rsi),%rcx
  1012d6:	48 89 4d f8          	mov    %rcx,-0x8(%rbp)
  1012da:	48 89 45 c8          	mov    %rax,-0x38(%rbp)
  1012de:	48 89 7d c0          	mov    %rdi,-0x40(%rbp)
  1012e2:	48 8b 45 f0          	mov    -0x10(%rbp),%rax
  1012e6:	48 89 45 e0          	mov    %rax,-0x20(%rbp)
  1012ea:	48 8b 45 f8          	mov    -0x8(%rbp),%rax
  1012ee:	48 89 45 e8          	mov    %rax,-0x18(%rbp)
  1012f2:	48 8b 45 e0          	mov    -0x20(%rbp),%rax
  1012f6:	48 89 45 d0          	mov    %rax,-0x30(%rbp)
  1012fa:	48 8b 45 e8          	mov    -0x18(%rbp),%rax
  1012fe:	48 89 45 d8          	mov    %rax,-0x28(%rbp)
  101302:	48 8b 45 d0          	mov    -0x30(%rbp),%rax
  101306:	48 8b 4d c0          	mov    -0x40(%rbp),%rcx
  10130a:	48 89 01             	mov    %rax,(%rcx)
  10130d:	48 8b 45 d8          	mov    -0x28(%rbp),%rax
  101311:	48 89 41 08          	mov    %rax,0x8(%rcx)
  101315:	eb 00                	jmp    101317 <_ZN4core4iter8iterator8Iterator6cloned17heb982401e12d39c6E+0x57>
  101317:	48 8b 45 c8          	mov    -0x38(%rbp),%rax
  10131b:	48 83 c4 40          	add    $0x40,%rsp
  10131f:	5d                   	pop    %rbp
  101320:	c3                   	retq   
  101321:	66 2e 0f 1f 84 00 00 	nopw   %cs:0x0(%rax,%rax,1)
  101328:	00 00 00 
  10132b:	0f 1f 44 00 00       	nopl   0x0(%rax,%rax,1)

0000000000101330 <_ZN4core4iter8iterator8Iterator9enumerate17hfb7c2681ab9a4c93E>:
  101330:	55                   	push   %rbp
  101331:	48 89 e5             	mov    %rsp,%rbp
  101334:	48 83 ec 40          	sub    $0x40,%rsp
  101338:	48 89 f8             	mov    %rdi,%rax
  10133b:	48 8b 0e             	mov    (%rsi),%rcx
  10133e:	48 89 4d f0          	mov    %rcx,-0x10(%rbp)
  101342:	48 8b 4e 08          	mov    0x8(%rsi),%rcx
  101346:	48 89 4d f8          	mov    %rcx,-0x8(%rbp)
  10134a:	48 89 45 c8          	mov    %rax,-0x38(%rbp)
  10134e:	48 89 7d c0          	mov    %rdi,-0x40(%rbp)
  101352:	48 8b 45 f0          	mov    -0x10(%rbp),%rax
  101356:	48 89 45 e0          	mov    %rax,-0x20(%rbp)
  10135a:	48 8b 45 f8          	mov    -0x8(%rbp),%rax
  10135e:	48 89 45 e8          	mov    %rax,-0x18(%rbp)
  101362:	48 8b 45 e0          	mov    -0x20(%rbp),%rax
  101366:	48 89 45 d0          	mov    %rax,-0x30(%rbp)
  10136a:	48 8b 45 e8          	mov    -0x18(%rbp),%rax
  10136e:	48 89 45 d8          	mov    %rax,-0x28(%rbp)
  101372:	48 8b 45 d0          	mov    -0x30(%rbp),%rax
  101376:	48 8b 4d c0          	mov    -0x40(%rbp),%rcx
  10137a:	48 89 01             	mov    %rax,(%rcx)
  10137d:	48 8b 45 d8          	mov    -0x28(%rbp),%rax
  101381:	48 89 41 08          	mov    %rax,0x8(%rcx)
  101385:	48 c7 41 10 00 00 00 	movq   $0x0,0x10(%rcx)
  10138c:	00 
  10138d:	eb 00                	jmp    10138f <_ZN4core4iter8iterator8Iterator9enumerate17hfb7c2681ab9a4c93E+0x5f>
  10138f:	48 8b 45 c8          	mov    -0x38(%rbp),%rax
  101393:	48 83 c4 40          	add    $0x40,%rsp
  101397:	5d                   	pop    %rbp
  101398:	c3                   	retq   
  101399:	0f 1f 80 00 00 00 00 	nopl   0x0(%rax)

00000000001013a0 <_ZN4core4sync6atomic10AtomicBool16compare_and_swap17h9c902c6fd9ec24ccE>:
  1013a0:	55                   	push   %rbp
  1013a1:	48 89 e5             	mov    %rsp,%rbp
  1013a4:	48 83 ec 50          	sub    $0x50,%rsp
  1013a8:	88 c8                	mov    %cl,%al
  1013aa:	41 88 d0             	mov    %dl,%r8b
  1013ad:	41 88 f1             	mov    %sil,%r9b
  1013b0:	48 89 7d f0          	mov    %rdi,-0x10(%rbp)
  1013b4:	41 80 e1 01          	and    $0x1,%r9b
  1013b8:	44 88 4d ef          	mov    %r9b,-0x11(%rbp)
  1013bc:	41 80 e0 01          	and    $0x1,%r8b
  1013c0:	44 88 45 ee          	mov    %r8b,-0x12(%rbp)
  1013c4:	88 45 ed             	mov    %al,-0x13(%rbp)
  1013c7:	48 8b 45 f0          	mov    -0x10(%rbp),%rax
  1013cb:	48 89 45 e0          	mov    %rax,-0x20(%rbp)
  1013cf:	8a 4d ef             	mov    -0x11(%rbp),%cl
  1013d2:	80 e1 01             	and    $0x1,%cl
  1013d5:	88 4d df             	mov    %cl,-0x21(%rbp)
  1013d8:	8a 4d ee             	mov    -0x12(%rbp),%cl
  1013db:	80 e1 01             	and    $0x1,%cl
  1013de:	88 4d de             	mov    %cl,-0x22(%rbp)
  1013e1:	8a 4d ed             	mov    -0x13(%rbp),%cl
  1013e4:	88 4d dd             	mov    %cl,-0x23(%rbp)
  1013e7:	48 8b 7d e0          	mov    -0x20(%rbp),%rdi
  1013eb:	8a 4d df             	mov    -0x21(%rbp),%cl
  1013ee:	8a 55 de             	mov    -0x22(%rbp),%dl
  1013f1:	40 8a 75 dd          	mov    -0x23(%rbp),%sil
  1013f5:	40 88 75 d7          	mov    %sil,-0x29(%rbp)
  1013f9:	40 8a 75 dd          	mov    -0x23(%rbp),%sil
  1013fd:	40 88 75 d5          	mov    %sil,-0x2b(%rbp)
  101401:	44 0f b6 45 d5       	movzbl -0x2b(%rbp),%r8d
  101406:	48 89 7d c8          	mov    %rdi,-0x38(%rbp)
  10140a:	44 89 c7             	mov    %r8d,%edi
  10140d:	88 55 c7             	mov    %dl,-0x39(%rbp)
  101410:	88 4d c6             	mov    %cl,-0x3a(%rbp)
  101413:	e8 e8 05 00 00       	callq  101a00 <_ZN4core4sync6atomic26strongest_failure_ordering17h0f22157647a2f2f1E>
  101418:	88 45 d6             	mov    %al,-0x2a(%rbp)
  10141b:	8a 45 d7             	mov    -0x29(%rbp),%al
  10141e:	8a 4d d6             	mov    -0x2a(%rbp),%cl
  101421:	0f b6 d0             	movzbl %al,%edx
  101424:	44 0f b6 c1          	movzbl %cl,%r8d
  101428:	8a 45 c6             	mov    -0x3a(%rbp),%al
  10142b:	24 01                	and    $0x1,%al
  10142d:	0f b6 f0             	movzbl %al,%esi
  101430:	8a 45 c7             	mov    -0x39(%rbp),%al
  101433:	24 01                	and    $0x1,%al
  101435:	0f b6 f8             	movzbl %al,%edi
  101438:	4c 8b 4d c8          	mov    -0x38(%rbp),%r9
  10143c:	89 7d c0             	mov    %edi,-0x40(%rbp)
  10143f:	4c 89 cf             	mov    %r9,%rdi
  101442:	44 8b 55 c0          	mov    -0x40(%rbp),%r10d
  101446:	89 55 bc             	mov    %edx,-0x44(%rbp)
  101449:	44 89 d2             	mov    %r10d,%edx
  10144c:	8b 4d bc             	mov    -0x44(%rbp),%ecx
  10144f:	e8 5c 00 00 00       	callq  1014b0 <_ZN4core4sync6atomic10AtomicBool16compare_exchange17h0d9e239c751e6b6dE>
  101454:	66 89 45 d2          	mov    %ax,-0x2e(%rbp)
  101458:	66 8b 45 d2          	mov    -0x2e(%rbp),%ax
  10145c:	66 89 45 d8          	mov    %ax,-0x28(%rbp)
  101460:	8a 45 d8             	mov    -0x28(%rbp),%al
  101463:	84 c0                	test   %al,%al
  101465:	88 45 bb             	mov    %al,-0x45(%rbp)
  101468:	74 0e                	je     101478 <_ZN4core4sync6atomic10AtomicBool16compare_and_swap17h9c902c6fd9ec24ccE+0xd8>
  10146a:	eb 00                	jmp    10146c <_ZN4core4sync6atomic10AtomicBool16compare_and_swap17h9c902c6fd9ec24ccE+0xcc>
  10146c:	8a 45 bb             	mov    -0x45(%rbp),%al
  10146f:	2c 01                	sub    $0x1,%al
  101471:	88 45 ba             	mov    %al,-0x46(%rbp)
  101474:	74 14                	je     10148a <_ZN4core4sync6atomic10AtomicBool16compare_and_swap17h9c902c6fd9ec24ccE+0xea>
  101476:	eb 30                	jmp    1014a8 <_ZN4core4sync6atomic10AtomicBool16compare_and_swap17h9c902c6fd9ec24ccE+0x108>
  101478:	8a 45 d9             	mov    -0x27(%rbp),%al
  10147b:	24 01                	and    $0x1,%al
  10147d:	88 45 dc             	mov    %al,-0x24(%rbp)
  101480:	8a 45 dc             	mov    -0x24(%rbp),%al
  101483:	24 01                	and    $0x1,%al
  101485:	88 45 d4             	mov    %al,-0x2c(%rbp)
  101488:	eb 10                	jmp    10149a <_ZN4core4sync6atomic10AtomicBool16compare_and_swap17h9c902c6fd9ec24ccE+0xfa>
  10148a:	8a 45 d9             	mov    -0x27(%rbp),%al
  10148d:	24 01                	and    $0x1,%al
  10148f:	88 45 db             	mov    %al,-0x25(%rbp)
  101492:	8a 45 db             	mov    -0x25(%rbp),%al
  101495:	24 01                	and    $0x1,%al
  101497:	88 45 d4             	mov    %al,-0x2c(%rbp)
  10149a:	8a 45 d4             	mov    -0x2c(%rbp),%al
  10149d:	24 01                	and    $0x1,%al
  10149f:	0f b6 c0             	movzbl %al,%eax
  1014a2:	48 83 c4 50          	add    $0x50,%rsp
  1014a6:	5d                   	pop    %rbp
  1014a7:	c3                   	retq   
  1014a8:	0f 1f 84 00 00 00 00 	nopl   0x0(%rax,%rax,1)
  1014af:	00 

00000000001014b0 <_ZN4core4sync6atomic10AtomicBool16compare_exchange17h0d9e239c751e6b6dE>:
  1014b0:	55                   	push   %rbp
  1014b1:	48 89 e5             	mov    %rsp,%rbp
  1014b4:	48 83 ec 50          	sub    $0x50,%rsp
  1014b8:	44 88 c0             	mov    %r8b,%al
  1014bb:	41 88 c9             	mov    %cl,%r9b
  1014be:	41 88 d2             	mov    %dl,%r10b
  1014c1:	41 88 f3             	mov    %sil,%r11b
  1014c4:	48 89 7d f0          	mov    %rdi,-0x10(%rbp)
  1014c8:	41 80 e3 01          	and    $0x1,%r11b
  1014cc:	44 88 5d ef          	mov    %r11b,-0x11(%rbp)
  1014d0:	41 80 e2 01          	and    $0x1,%r10b
  1014d4:	44 88 55 ee          	mov    %r10b,-0x12(%rbp)
  1014d8:	44 88 4d ed          	mov    %r9b,-0x13(%rbp)
  1014dc:	88 45 ec             	mov    %al,-0x14(%rbp)
  1014df:	48 8b 45 f0          	mov    -0x10(%rbp),%rax
  1014e3:	48 89 45 e0          	mov    %rax,-0x20(%rbp)
  1014e7:	8a 4d ef             	mov    -0x11(%rbp),%cl
  1014ea:	80 e1 01             	and    $0x1,%cl
  1014ed:	88 4d df             	mov    %cl,-0x21(%rbp)
  1014f0:	8a 4d ee             	mov    -0x12(%rbp),%cl
  1014f3:	80 e1 01             	and    $0x1,%cl
  1014f6:	88 4d de             	mov    %cl,-0x22(%rbp)
  1014f9:	8a 4d ed             	mov    -0x13(%rbp),%cl
  1014fc:	88 4d dd             	mov    %cl,-0x23(%rbp)
  1014ff:	8a 4d ec             	mov    -0x14(%rbp),%cl
  101502:	88 4d dc             	mov    %cl,-0x24(%rbp)
  101505:	48 8b 7d e0          	mov    -0x20(%rbp),%rdi
  101509:	e8 82 f2 ff ff       	callq  100790 <_ZN40_$LT$core..cell..UnsafeCell$LT$T$GT$$GT$3get17he661653c140a9841E>
  10150e:	48 89 45 c0          	mov    %rax,-0x40(%rbp)
  101512:	8a 45 df             	mov    -0x21(%rbp),%al
  101515:	24 01                	and    $0x1,%al
  101517:	8a 4d de             	mov    -0x22(%rbp),%cl
  10151a:	80 e1 01             	and    $0x1,%cl
  10151d:	8a 55 dd             	mov    -0x23(%rbp),%dl
  101520:	88 55 d7             	mov    %dl,-0x29(%rbp)
  101523:	8a 55 dc             	mov    -0x24(%rbp),%dl
  101526:	88 55 d6             	mov    %dl,-0x2a(%rbp)
  101529:	8a 55 d7             	mov    -0x29(%rbp),%dl
  10152c:	48 8b 7d c0          	mov    -0x40(%rbp),%rdi
  101530:	0f b6 f0             	movzbl %al,%esi
  101533:	44 0f b6 c1          	movzbl %cl,%r8d
  101537:	88 55 bf             	mov    %dl,-0x41(%rbp)
  10153a:	44 89 c2             	mov    %r8d,%edx
  10153d:	8a 45 bf             	mov    -0x41(%rbp),%al
  101540:	0f b6 c8             	movzbl %al,%ecx
  101543:	44 0f b6 45 d6       	movzbl -0x2a(%rbp),%r8d
  101548:	e8 63 01 00 00       	callq  1016b0 <_ZN4core4sync6atomic23atomic_compare_exchange17h351bfc42ebea2131E>
  10154d:	66 89 45 ce          	mov    %ax,-0x32(%rbp)
  101551:	66 8b 45 ce          	mov    -0x32(%rbp),%ax
  101555:	66 89 45 d8          	mov    %ax,-0x28(%rbp)
  101559:	8a 45 d8             	mov    -0x28(%rbp),%al
  10155c:	84 c0                	test   %al,%al
  10155e:	88 45 be             	mov    %al,-0x42(%rbp)
  101561:	74 0e                	je     101571 <_ZN4core4sync6atomic10AtomicBool16compare_exchange17h0d9e239c751e6b6dE+0xc1>
  101563:	eb 00                	jmp    101565 <_ZN4core4sync6atomic10AtomicBool16compare_exchange17h0d9e239c751e6b6dE+0xb5>
  101565:	8a 45 be             	mov    -0x42(%rbp),%al
  101568:	2c 01                	sub    $0x1,%al
  10156a:	88 45 bd             	mov    %al,-0x43(%rbp)
  10156d:	74 1a                	je     101589 <_ZN4core4sync6atomic10AtomicBool16compare_exchange17h0d9e239c751e6b6dE+0xd9>
  10156f:	eb 38                	jmp    1015a9 <_ZN4core4sync6atomic10AtomicBool16compare_exchange17h0d9e239c751e6b6dE+0xf9>
  101571:	8a 45 d9             	mov    -0x27(%rbp),%al
  101574:	88 45 db             	mov    %al,-0x25(%rbp)
  101577:	80 7d db 00          	cmpb   $0x0,-0x25(%rbp)
  10157b:	0f 95 c0             	setne  %al
  10157e:	c6 45 d0 00          	movb   $0x0,-0x30(%rbp)
  101582:	24 01                	and    $0x1,%al
  101584:	88 45 d1             	mov    %al,-0x2f(%rbp)
  101587:	eb 16                	jmp    10159f <_ZN4core4sync6atomic10AtomicBool16compare_exchange17h0d9e239c751e6b6dE+0xef>
  101589:	8a 45 d9             	mov    -0x27(%rbp),%al
  10158c:	88 45 da             	mov    %al,-0x26(%rbp)
  10158f:	80 7d da 00          	cmpb   $0x0,-0x26(%rbp)
  101593:	0f 95 c0             	setne  %al
  101596:	c6 45 d0 01          	movb   $0x1,-0x30(%rbp)
  10159a:	24 01                	and    $0x1,%al
  10159c:	88 45 d1             	mov    %al,-0x2f(%rbp)
  10159f:	66 8b 45 d0          	mov    -0x30(%rbp),%ax
  1015a3:	48 83 c4 50          	add    $0x50,%rsp
  1015a7:	5d                   	pop    %rbp
  1015a8:	c3                   	retq   
  1015a9:	0f 1f 80 00 00 00 00 	nopl   0x0(%rax)

00000000001015b0 <_ZN4core4sync6atomic10AtomicBool5store17h62776a058076a6cbE>:
  1015b0:	55                   	push   %rbp
  1015b1:	48 89 e5             	mov    %rsp,%rbp
  1015b4:	48 83 ec 30          	sub    $0x30,%rsp
  1015b8:	88 d0                	mov    %dl,%al
  1015ba:	40 88 f1             	mov    %sil,%cl
  1015bd:	48 89 7d f8          	mov    %rdi,-0x8(%rbp)
  1015c1:	80 e1 01             	and    $0x1,%cl
  1015c4:	88 4d f7             	mov    %cl,-0x9(%rbp)
  1015c7:	88 45 f6             	mov    %al,-0xa(%rbp)
  1015ca:	48 8b 45 f8          	mov    -0x8(%rbp),%rax
  1015ce:	48 89 45 e8          	mov    %rax,-0x18(%rbp)
  1015d2:	8a 4d f7             	mov    -0x9(%rbp),%cl
  1015d5:	80 e1 01             	and    $0x1,%cl
  1015d8:	88 4d e7             	mov    %cl,-0x19(%rbp)
  1015db:	8a 4d f6             	mov    -0xa(%rbp),%cl
  1015de:	88 4d e6             	mov    %cl,-0x1a(%rbp)
  1015e1:	48 8b 7d e8          	mov    -0x18(%rbp),%rdi
  1015e5:	e8 a6 f1 ff ff       	callq  100790 <_ZN40_$LT$core..cell..UnsafeCell$LT$T$GT$$GT$3get17he661653c140a9841E>
  1015ea:	48 89 45 d8          	mov    %rax,-0x28(%rbp)
  1015ee:	8a 45 e7             	mov    -0x19(%rbp),%al
  1015f1:	24 01                	and    $0x1,%al
  1015f3:	8a 4d e6             	mov    -0x1a(%rbp),%cl
  1015f6:	88 4d e5             	mov    %cl,-0x1b(%rbp)
  1015f9:	48 8b 7d d8          	mov    -0x28(%rbp),%rdi
  1015fd:	0f b6 f0             	movzbl %al,%esi
  101600:	0f b6 55 e5          	movzbl -0x1b(%rbp),%edx
  101604:	e8 07 00 00 00       	callq  101610 <_ZN4core4sync6atomic12atomic_store17hb32b6156de4192f6E>
  101609:	48 83 c4 30          	add    $0x30,%rsp
  10160d:	5d                   	pop    %rbp
  10160e:	c3                   	retq   
  10160f:	90                   	nop

0000000000101610 <_ZN4core4sync6atomic12atomic_store17hb32b6156de4192f6E>:
  101610:	55                   	push   %rbp
  101611:	48 89 e5             	mov    %rsp,%rbp
  101614:	48 83 ec 40          	sub    $0x40,%rsp
  101618:	88 d0                	mov    %dl,%al
  10161a:	40 88 f1             	mov    %sil,%cl
  10161d:	48 89 7d f8          	mov    %rdi,-0x8(%rbp)
  101621:	88 4d f7             	mov    %cl,-0x9(%rbp)
  101624:	88 45 f6             	mov    %al,-0xa(%rbp)
  101627:	48 8b 45 f8          	mov    -0x8(%rbp),%rax
  10162b:	48 89 45 e8          	mov    %rax,-0x18(%rbp)
  10162f:	8a 4d f7             	mov    -0x9(%rbp),%cl
  101632:	88 4d e7             	mov    %cl,-0x19(%rbp)
  101635:	8a 4d f6             	mov    -0xa(%rbp),%cl
  101638:	88 4d e6             	mov    %cl,-0x1a(%rbp)
  10163b:	0f b6 55 e6          	movzbl -0x1a(%rbp),%edx
  10163f:	89 d0                	mov    %edx,%eax
  101641:	48 89 c6             	mov    %rax,%rsi
  101644:	48 83 ee 04          	sub    $0x4,%rsi
  101648:	48 89 45 d8          	mov    %rax,-0x28(%rbp)
  10164c:	48 89 75 d0          	mov    %rsi,-0x30(%rbp)
  101650:	77 54                	ja     1016a6 <_ZN4core4sync6atomic12atomic_store17hb32b6156de4192f6E+0x96>
  101652:	48 8d 05 7b dc 00 00 	lea    0xdc7b(%rip),%rax        # 10f2d4 <gdt64.pointer+0xc>
  101659:	48 8b 4d d8          	mov    -0x28(%rbp),%rcx
  10165d:	48 63 14 88          	movslq (%rax,%rcx,4),%rdx
  101661:	48 01 c2             	add    %rax,%rdx
  101664:	ff e2                	jmpq   *%rdx
  101666:	48 8b 45 e8          	mov    -0x18(%rbp),%rax
  10166a:	8a 4d e7             	mov    -0x19(%rbp),%cl
  10166d:	88 08                	mov    %cl,(%rax)
  10166f:	eb 2f                	jmp    1016a0 <_ZN4core4sync6atomic12atomic_store17hb32b6156de4192f6E+0x90>
  101671:	48 8b 45 e8          	mov    -0x18(%rbp),%rax
  101675:	8a 4d e7             	mov    -0x19(%rbp),%cl
  101678:	88 08                	mov    %cl,(%rax)
  10167a:	eb 24                	jmp    1016a0 <_ZN4core4sync6atomic12atomic_store17hb32b6156de4192f6E+0x90>
  10167c:	48 8d 3d 05 ed 00 00 	lea    0xed05(%rip),%rdi        # 110388 <_ZN4core4sync6atomic12atomic_store14_MSG_FILE_LINE17h1d5ce0b77c279973E>
  101683:	e8 08 3e 00 00       	callq  105490 <_ZN4core9panicking5panic17h585bd70cda921012E>
  101688:	48 8d 3d 21 ed 00 00 	lea    0xed21(%rip),%rdi        # 1103b0 <_ZN4core4sync6atomic12atomic_store14_MSG_FILE_LINE17hdd51e97169613b04E>
  10168f:	e8 fc 3d 00 00       	callq  105490 <_ZN4core9panicking5panic17h585bd70cda921012E>
  101694:	48 8b 45 e8          	mov    -0x18(%rbp),%rax
  101698:	8a 4d e7             	mov    -0x19(%rbp),%cl
  10169b:	86 08                	xchg   %cl,(%rax)
  10169d:	88 4d cf             	mov    %cl,-0x31(%rbp)
  1016a0:	48 83 c4 40          	add    $0x40,%rsp
  1016a4:	5d                   	pop    %rbp
  1016a5:	c3                   	retq   
  1016a6:	66 2e 0f 1f 84 00 00 	nopw   %cs:0x0(%rax,%rax,1)
  1016ad:	00 00 00 

00000000001016b0 <_ZN4core4sync6atomic23atomic_compare_exchange17h351bfc42ebea2131E>:
  1016b0:	55                   	push   %rbp
  1016b1:	48 89 e5             	mov    %rsp,%rbp
  1016b4:	48 81 ec b0 00 00 00 	sub    $0xb0,%rsp
  1016bb:	44 88 c0             	mov    %r8b,%al
  1016be:	41 88 c9             	mov    %cl,%r9b
  1016c1:	41 88 d2             	mov    %dl,%r10b
  1016c4:	41 88 f3             	mov    %sil,%r11b
  1016c7:	48 89 7d f0          	mov    %rdi,-0x10(%rbp)
  1016cb:	44 88 5d ef          	mov    %r11b,-0x11(%rbp)
  1016cf:	44 88 55 ee          	mov    %r10b,-0x12(%rbp)
  1016d3:	44 88 4d ed          	mov    %r9b,-0x13(%rbp)
  1016d7:	88 45 ec             	mov    %al,-0x14(%rbp)
  1016da:	48 8b 45 f0          	mov    -0x10(%rbp),%rax
  1016de:	48 89 45 e0          	mov    %rax,-0x20(%rbp)
  1016e2:	8a 4d ef             	mov    -0x11(%rbp),%cl
  1016e5:	88 4d df             	mov    %cl,-0x21(%rbp)
  1016e8:	8a 4d ee             	mov    -0x12(%rbp),%cl
  1016eb:	88 4d de             	mov    %cl,-0x22(%rbp)
  1016ee:	8a 4d ed             	mov    -0x13(%rbp),%cl
  1016f1:	88 4d dd             	mov    %cl,-0x23(%rbp)
  1016f4:	8a 4d ec             	mov    -0x14(%rbp),%cl
  1016f7:	88 4d dc             	mov    %cl,-0x24(%rbp)
  1016fa:	8a 4d dd             	mov    -0x23(%rbp),%cl
  1016fd:	88 4d cf             	mov    %cl,-0x31(%rbp)
  101700:	8a 4d dc             	mov    -0x24(%rbp),%cl
  101703:	88 4d ce             	mov    %cl,-0x32(%rbp)
  101706:	8a 4d cf             	mov    -0x31(%rbp),%cl
  101709:	88 4d d0             	mov    %cl,-0x30(%rbp)
  10170c:	8a 4d ce             	mov    -0x32(%rbp),%cl
  10170f:	88 4d d1             	mov    %cl,-0x2f(%rbp)
  101712:	0f b6 55 d0          	movzbl -0x30(%rbp),%edx
  101716:	89 d0                	mov    %edx,%eax
  101718:	48 89 c6             	mov    %rax,%rsi
  10171b:	48 83 ee 04          	sub    $0x4,%rsi
  10171f:	48 89 45 c0          	mov    %rax,-0x40(%rbp)
  101723:	48 89 75 b8          	mov    %rsi,-0x48(%rbp)
  101727:	0f 87 cb 02 00 00    	ja     1019f8 <_ZN4core4sync6atomic23atomic_compare_exchange17h351bfc42ebea2131E+0x348>
  10172d:	48 8d 05 b4 db 00 00 	lea    0xdbb4(%rip),%rax        # 10f2e8 <gdt64.pointer+0x20>
  101734:	48 8b 4d c0          	mov    -0x40(%rbp),%rcx
  101738:	48 63 14 88          	movslq (%rax,%rcx,4),%rdx
  10173c:	48 01 c2             	add    %rax,%rdx
  10173f:	ff e2                	jmpq   *%rdx
  101741:	48 8b 45 e0          	mov    -0x20(%rbp),%rax
  101745:	8a 4d df             	mov    -0x21(%rbp),%cl
  101748:	8a 55 de             	mov    -0x22(%rbp),%dl
  10174b:	48 89 45 b0          	mov    %rax,-0x50(%rbp)
  10174f:	88 c8                	mov    %cl,%al
  101751:	48 8b 75 b0          	mov    -0x50(%rbp),%rsi
  101755:	f0 0f b0 16          	lock cmpxchg %dl,(%rsi)
  101759:	0f 94 c1             	sete   %cl
  10175c:	80 e1 01             	and    $0x1,%cl
  10175f:	88 45 d8             	mov    %al,-0x28(%rbp)
  101762:	88 4d d9             	mov    %cl,-0x27(%rbp)
  101765:	e9 57 02 00 00       	jmpq   1019c1 <_ZN4core4sync6atomic23atomic_compare_exchange17h351bfc42ebea2131E+0x311>
  10176a:	48 8b 45 e0          	mov    -0x20(%rbp),%rax
  10176e:	8a 4d df             	mov    -0x21(%rbp),%cl
  101771:	8a 55 de             	mov    -0x22(%rbp),%dl
  101774:	48 89 45 a8          	mov    %rax,-0x58(%rbp)
  101778:	88 c8                	mov    %cl,%al
  10177a:	48 8b 75 a8          	mov    -0x58(%rbp),%rsi
  10177e:	f0 0f b0 16          	lock cmpxchg %dl,(%rsi)
  101782:	0f 94 c1             	sete   %cl
  101785:	80 e1 01             	and    $0x1,%cl
  101788:	88 45 d8             	mov    %al,-0x28(%rbp)
  10178b:	88 4d d9             	mov    %cl,-0x27(%rbp)
  10178e:	e9 2e 02 00 00       	jmpq   1019c1 <_ZN4core4sync6atomic23atomic_compare_exchange17h351bfc42ebea2131E+0x311>
  101793:	48 8b 45 e0          	mov    -0x20(%rbp),%rax
  101797:	8a 4d df             	mov    -0x21(%rbp),%cl
  10179a:	8a 55 de             	mov    -0x22(%rbp),%dl
  10179d:	48 89 45 a0          	mov    %rax,-0x60(%rbp)
  1017a1:	88 c8                	mov    %cl,%al
  1017a3:	48 8b 75 a0          	mov    -0x60(%rbp),%rsi
  1017a7:	f0 0f b0 16          	lock cmpxchg %dl,(%rsi)
  1017ab:	0f 94 c1             	sete   %cl
  1017ae:	80 e1 01             	and    $0x1,%cl
  1017b1:	88 45 d8             	mov    %al,-0x28(%rbp)
  1017b4:	88 4d d9             	mov    %cl,-0x27(%rbp)
  1017b7:	e9 05 02 00 00       	jmpq   1019c1 <_ZN4core4sync6atomic23atomic_compare_exchange17h351bfc42ebea2131E+0x311>
  1017bc:	48 8b 45 e0          	mov    -0x20(%rbp),%rax
  1017c0:	8a 4d df             	mov    -0x21(%rbp),%cl
  1017c3:	8a 55 de             	mov    -0x22(%rbp),%dl
  1017c6:	48 89 45 98          	mov    %rax,-0x68(%rbp)
  1017ca:	88 c8                	mov    %cl,%al
  1017cc:	48 8b 75 98          	mov    -0x68(%rbp),%rsi
  1017d0:	f0 0f b0 16          	lock cmpxchg %dl,(%rsi)
  1017d4:	0f 94 c1             	sete   %cl
  1017d7:	80 e1 01             	and    $0x1,%cl
  1017da:	88 45 d8             	mov    %al,-0x28(%rbp)
  1017dd:	88 4d d9             	mov    %cl,-0x27(%rbp)
  1017e0:	e9 dc 01 00 00       	jmpq   1019c1 <_ZN4core4sync6atomic23atomic_compare_exchange17h351bfc42ebea2131E+0x311>
  1017e5:	48 8b 45 e0          	mov    -0x20(%rbp),%rax
  1017e9:	8a 4d df             	mov    -0x21(%rbp),%cl
  1017ec:	8a 55 de             	mov    -0x22(%rbp),%dl
  1017ef:	48 89 45 90          	mov    %rax,-0x70(%rbp)
  1017f3:	88 c8                	mov    %cl,%al
  1017f5:	48 8b 75 90          	mov    -0x70(%rbp),%rsi
  1017f9:	f0 0f b0 16          	lock cmpxchg %dl,(%rsi)
  1017fd:	0f 94 c1             	sete   %cl
  101800:	80 e1 01             	and    $0x1,%cl
  101803:	88 45 d8             	mov    %al,-0x28(%rbp)
  101806:	88 4d d9             	mov    %cl,-0x27(%rbp)
  101809:	e9 b3 01 00 00       	jmpq   1019c1 <_ZN4core4sync6atomic23atomic_compare_exchange17h351bfc42ebea2131E+0x311>
  10180e:	48 8b 45 e0          	mov    -0x20(%rbp),%rax
  101812:	8a 4d df             	mov    -0x21(%rbp),%cl
  101815:	8a 55 de             	mov    -0x22(%rbp),%dl
  101818:	48 89 45 88          	mov    %rax,-0x78(%rbp)
  10181c:	88 c8                	mov    %cl,%al
  10181e:	48 8b 75 88          	mov    -0x78(%rbp),%rsi
  101822:	f0 0f b0 16          	lock cmpxchg %dl,(%rsi)
  101826:	0f 94 c1             	sete   %cl
  101829:	80 e1 01             	and    $0x1,%cl
  10182c:	88 45 d8             	mov    %al,-0x28(%rbp)
  10182f:	88 4d d9             	mov    %cl,-0x27(%rbp)
  101832:	e9 8a 01 00 00       	jmpq   1019c1 <_ZN4core4sync6atomic23atomic_compare_exchange17h351bfc42ebea2131E+0x311>
  101837:	48 8b 45 e0          	mov    -0x20(%rbp),%rax
  10183b:	8a 4d df             	mov    -0x21(%rbp),%cl
  10183e:	8a 55 de             	mov    -0x22(%rbp),%dl
  101841:	48 89 45 80          	mov    %rax,-0x80(%rbp)
  101845:	88 c8                	mov    %cl,%al
  101847:	48 8b 75 80          	mov    -0x80(%rbp),%rsi
  10184b:	f0 0f b0 16          	lock cmpxchg %dl,(%rsi)
  10184f:	0f 94 c1             	sete   %cl
  101852:	80 e1 01             	and    $0x1,%cl
  101855:	88 45 d8             	mov    %al,-0x28(%rbp)
  101858:	88 4d d9             	mov    %cl,-0x27(%rbp)
  10185b:	e9 61 01 00 00       	jmpq   1019c1 <_ZN4core4sync6atomic23atomic_compare_exchange17h351bfc42ebea2131E+0x311>
  101860:	48 8b 45 e0          	mov    -0x20(%rbp),%rax
  101864:	8a 4d df             	mov    -0x21(%rbp),%cl
  101867:	8a 55 de             	mov    -0x22(%rbp),%dl
  10186a:	48 89 85 78 ff ff ff 	mov    %rax,-0x88(%rbp)
  101871:	88 c8                	mov    %cl,%al
  101873:	48 8b b5 78 ff ff ff 	mov    -0x88(%rbp),%rsi
  10187a:	f0 0f b0 16          	lock cmpxchg %dl,(%rsi)
  10187e:	0f 94 c1             	sete   %cl
  101881:	80 e1 01             	and    $0x1,%cl
  101884:	88 45 d8             	mov    %al,-0x28(%rbp)
  101887:	88 4d d9             	mov    %cl,-0x27(%rbp)
  10188a:	e9 32 01 00 00       	jmpq   1019c1 <_ZN4core4sync6atomic23atomic_compare_exchange17h351bfc42ebea2131E+0x311>
  10188f:	48 8b 45 e0          	mov    -0x20(%rbp),%rax
  101893:	8a 4d df             	mov    -0x21(%rbp),%cl
  101896:	8a 55 de             	mov    -0x22(%rbp),%dl
  101899:	48 89 85 70 ff ff ff 	mov    %rax,-0x90(%rbp)
  1018a0:	88 c8                	mov    %cl,%al
  1018a2:	48 8b b5 70 ff ff ff 	mov    -0x90(%rbp),%rsi
  1018a9:	f0 0f b0 16          	lock cmpxchg %dl,(%rsi)
  1018ad:	0f 94 c1             	sete   %cl
  1018b0:	80 e1 01             	and    $0x1,%cl
  1018b3:	88 45 d8             	mov    %al,-0x28(%rbp)
  1018b6:	88 4d d9             	mov    %cl,-0x27(%rbp)
  1018b9:	e9 03 01 00 00       	jmpq   1019c1 <_ZN4core4sync6atomic23atomic_compare_exchange17h351bfc42ebea2131E+0x311>
  1018be:	48 8d 3d 13 eb 00 00 	lea    0xeb13(%rip),%rdi        # 1103d8 <_ZN4core4sync6atomic23atomic_compare_exchange14_MSG_FILE_LINE17hf10e54dcbd1c6b85E>
  1018c5:	e8 c6 3b 00 00       	callq  105490 <_ZN4core9panicking5panic17h585bd70cda921012E>
  1018ca:	48 8d 3d 2f eb 00 00 	lea    0xeb2f(%rip),%rdi        # 110400 <_ZN4core4sync6atomic23atomic_compare_exchange14_MSG_FILE_LINE17hc9fe27cc742236fbE>
  1018d1:	e8 ba 3b 00 00       	callq  105490 <_ZN4core9panicking5panic17h585bd70cda921012E>
  1018d6:	48 8d 3d 4b eb 00 00 	lea    0xeb4b(%rip),%rdi        # 110428 <_ZN4core4sync6atomic23atomic_compare_exchange14_MSG_FILE_LINE17he72801094272246fE>
  1018dd:	e8 ae 3b 00 00       	callq  105490 <_ZN4core9panicking5panic17h585bd70cda921012E>
  1018e2:	8a 45 d1             	mov    -0x2f(%rbp),%al
  1018e5:	84 c0                	test   %al,%al
  1018e7:	0f 84 cf fe ff ff    	je     1017bc <_ZN4core4sync6atomic23atomic_compare_exchange17h351bfc42ebea2131E+0x10c>
  1018ed:	e9 9a 00 00 00       	jmpq   10198c <_ZN4core4sync6atomic23atomic_compare_exchange17h351bfc42ebea2131E+0x2dc>
  1018f2:	8a 45 d1             	mov    -0x2f(%rbp),%al
  1018f5:	84 c0                	test   %al,%al
  1018f7:	0f 84 6d fe ff ff    	je     10176a <_ZN4core4sync6atomic23atomic_compare_exchange17h351bfc42ebea2131E+0xba>
  1018fd:	e9 8a 00 00 00       	jmpq   10198c <_ZN4core4sync6atomic23atomic_compare_exchange17h351bfc42ebea2131E+0x2dc>
  101902:	8a 45 d1             	mov    -0x2f(%rbp),%al
  101905:	84 c0                	test   %al,%al
  101907:	88 85 6f ff ff ff    	mov    %al,-0x91(%rbp)
  10190d:	0f 84 fb fe ff ff    	je     10180e <_ZN4core4sync6atomic23atomic_compare_exchange17h351bfc42ebea2131E+0x15e>
  101913:	eb 00                	jmp    101915 <_ZN4core4sync6atomic23atomic_compare_exchange17h351bfc42ebea2131E+0x265>
  101915:	8a 85 6f ff ff ff    	mov    -0x91(%rbp),%al
  10191b:	2c 02                	sub    $0x2,%al
  10191d:	88 85 6e ff ff ff    	mov    %al,-0x92(%rbp)
  101923:	0f 84 18 fe ff ff    	je     101741 <_ZN4core4sync6atomic23atomic_compare_exchange17h351bfc42ebea2131E+0x91>
  101929:	eb 61                	jmp    10198c <_ZN4core4sync6atomic23atomic_compare_exchange17h351bfc42ebea2131E+0x2dc>
  10192b:	8a 45 d1             	mov    -0x2f(%rbp),%al
  10192e:	84 c0                	test   %al,%al
  101930:	88 85 6d ff ff ff    	mov    %al,-0x93(%rbp)
  101936:	0f 84 fb fe ff ff    	je     101837 <_ZN4core4sync6atomic23atomic_compare_exchange17h351bfc42ebea2131E+0x187>
  10193c:	eb 00                	jmp    10193e <_ZN4core4sync6atomic23atomic_compare_exchange17h351bfc42ebea2131E+0x28e>
  10193e:	8a 85 6d ff ff ff    	mov    -0x93(%rbp),%al
  101944:	2c 02                	sub    $0x2,%al
  101946:	88 85 6c ff ff ff    	mov    %al,-0x94(%rbp)
  10194c:	0f 84 41 fe ff ff    	je     101793 <_ZN4core4sync6atomic23atomic_compare_exchange17h351bfc42ebea2131E+0xe3>
  101952:	eb 38                	jmp    10198c <_ZN4core4sync6atomic23atomic_compare_exchange17h351bfc42ebea2131E+0x2dc>
  101954:	0f b6 45 d1          	movzbl -0x2f(%rbp),%eax
  101958:	89 c1                	mov    %eax,%ecx
  10195a:	48 89 ca             	mov    %rcx,%rdx
  10195d:	48 83 ea 04          	sub    $0x4,%rdx
  101961:	48 89 8d 60 ff ff ff 	mov    %rcx,-0xa0(%rbp)
  101968:	48 89 95 58 ff ff ff 	mov    %rdx,-0xa8(%rbp)
  10196f:	0f 87 83 00 00 00    	ja     1019f8 <_ZN4core4sync6atomic23atomic_compare_exchange17h351bfc42ebea2131E+0x348>
  101975:	48 8d 05 80 d9 00 00 	lea    0xd980(%rip),%rax        # 10f2fc <gdt64.pointer+0x34>
  10197c:	48 8b 8d 60 ff ff ff 	mov    -0xa0(%rbp),%rcx
  101983:	48 63 14 88          	movslq (%rax,%rcx,4),%rdx
  101987:	48 01 c2             	add    %rax,%rdx
  10198a:	ff e2                	jmpq   *%rdx
  10198c:	8a 45 d1             	mov    -0x2f(%rbp),%al
  10198f:	88 c1                	mov    %al,%cl
  101991:	80 e9 01             	sub    $0x1,%cl
  101994:	88 85 57 ff ff ff    	mov    %al,-0xa9(%rbp)
  10199a:	88 8d 56 ff ff ff    	mov    %cl,-0xaa(%rbp)
  1019a0:	0f 84 24 ff ff ff    	je     1018ca <_ZN4core4sync6atomic23atomic_compare_exchange17h351bfc42ebea2131E+0x21a>
  1019a6:	eb 00                	jmp    1019a8 <_ZN4core4sync6atomic23atomic_compare_exchange17h351bfc42ebea2131E+0x2f8>
  1019a8:	8a 85 57 ff ff ff    	mov    -0xa9(%rbp),%al
  1019ae:	2c 03                	sub    $0x3,%al
  1019b0:	88 85 55 ff ff ff    	mov    %al,-0xab(%rbp)
  1019b6:	0f 84 02 ff ff ff    	je     1018be <_ZN4core4sync6atomic23atomic_compare_exchange17h351bfc42ebea2131E+0x20e>
  1019bc:	e9 15 ff ff ff       	jmpq   1018d6 <_ZN4core4sync6atomic23atomic_compare_exchange17h351bfc42ebea2131E+0x226>
  1019c1:	8a 45 d8             	mov    -0x28(%rbp),%al
  1019c4:	88 45 db             	mov    %al,-0x25(%rbp)
  1019c7:	8a 45 d9             	mov    -0x27(%rbp),%al
  1019ca:	24 01                	and    $0x1,%al
  1019cc:	88 45 da             	mov    %al,-0x26(%rbp)
  1019cf:	f6 45 da 01          	testb  $0x1,-0x26(%rbp)
  1019d3:	74 0c                	je     1019e1 <_ZN4core4sync6atomic23atomic_compare_exchange17h351bfc42ebea2131E+0x331>
  1019d5:	8a 45 db             	mov    -0x25(%rbp),%al
  1019d8:	c6 45 c8 00          	movb   $0x0,-0x38(%rbp)
  1019dc:	88 45 c9             	mov    %al,-0x37(%rbp)
  1019df:	eb 0a                	jmp    1019eb <_ZN4core4sync6atomic23atomic_compare_exchange17h351bfc42ebea2131E+0x33b>
  1019e1:	8a 45 db             	mov    -0x25(%rbp),%al
  1019e4:	c6 45 c8 01          	movb   $0x1,-0x38(%rbp)
  1019e8:	88 45 c9             	mov    %al,-0x37(%rbp)
  1019eb:	66 8b 45 c8          	mov    -0x38(%rbp),%ax
  1019ef:	48 81 c4 b0 00 00 00 	add    $0xb0,%rsp
  1019f6:	5d                   	pop    %rbp
  1019f7:	c3                   	retq   
  1019f8:	0f 1f 84 00 00 00 00 	nopl   0x0(%rax,%rax,1)
  1019ff:	00 

0000000000101a00 <_ZN4core4sync6atomic26strongest_failure_ordering17h0f22157647a2f2f1E>:
  101a00:	55                   	push   %rbp
  101a01:	48 89 e5             	mov    %rsp,%rbp
  101a04:	48 83 ec 18          	sub    $0x18,%rsp
  101a08:	40 88 f8             	mov    %dil,%al
  101a0b:	88 45 fe             	mov    %al,-0x2(%rbp)
  101a0e:	8a 45 fe             	mov    -0x2(%rbp),%al
  101a11:	88 45 fd             	mov    %al,-0x3(%rbp)
  101a14:	0f b6 4d fd          	movzbl -0x3(%rbp),%ecx
  101a18:	89 ca                	mov    %ecx,%edx
  101a1a:	48 89 d6             	mov    %rdx,%rsi
  101a1d:	48 83 ee 04          	sub    $0x4,%rsi
  101a21:	48 89 55 f0          	mov    %rdx,-0x10(%rbp)
  101a25:	48 89 75 e8          	mov    %rsi,-0x18(%rbp)
  101a29:	77 39                	ja     101a64 <_ZN4core4sync6atomic26strongest_failure_ordering17h0f22157647a2f2f1E+0x64>
  101a2b:	48 8d 05 de d8 00 00 	lea    0xd8de(%rip),%rax        # 10f310 <gdt64.pointer+0x48>
  101a32:	48 8b 4d f0          	mov    -0x10(%rbp),%rcx
  101a36:	48 63 14 88          	movslq (%rax,%rcx,4),%rdx
  101a3a:	48 01 c2             	add    %rax,%rdx
  101a3d:	ff e2                	jmpq   *%rdx
  101a3f:	c6 45 fc 00          	movb   $0x0,-0x4(%rbp)
  101a43:	eb 16                	jmp    101a5b <_ZN4core4sync6atomic26strongest_failure_ordering17h0f22157647a2f2f1E+0x5b>
  101a45:	c6 45 fc 00          	movb   $0x0,-0x4(%rbp)
  101a49:	eb 10                	jmp    101a5b <_ZN4core4sync6atomic26strongest_failure_ordering17h0f22157647a2f2f1E+0x5b>
  101a4b:	c6 45 fc 02          	movb   $0x2,-0x4(%rbp)
  101a4f:	eb 0a                	jmp    101a5b <_ZN4core4sync6atomic26strongest_failure_ordering17h0f22157647a2f2f1E+0x5b>
  101a51:	c6 45 fc 02          	movb   $0x2,-0x4(%rbp)
  101a55:	eb 04                	jmp    101a5b <_ZN4core4sync6atomic26strongest_failure_ordering17h0f22157647a2f2f1E+0x5b>
  101a57:	c6 45 fc 04          	movb   $0x4,-0x4(%rbp)
  101a5b:	8a 45 fc             	mov    -0x4(%rbp),%al
  101a5e:	48 83 c4 18          	add    $0x18,%rsp
  101a62:	5d                   	pop    %rbp
  101a63:	c3                   	retq   
  101a64:	66 2e 0f 1f 84 00 00 	nopw   %cs:0x0(%rax,%rax,1)
  101a6b:	00 00 00 
  101a6e:	66 90                	xchg   %ax,%ax

0000000000101a70 <_ZN4core5array101_$LT$impl$u20$core..iter..traits..IntoIterator$u20$for$u20$$RF$$u27$a$u20$$u5b$T$u3b$$u20$12$u5d$$GT$9into_iter17h6a043505b75b6b34E>:
  101a70:	55                   	push   %rbp
  101a71:	48 89 e5             	mov    %rsp,%rbp
  101a74:	48 83 ec 20          	sub    $0x20,%rsp
  101a78:	48 89 f8             	mov    %rdi,%rax
  101a7b:	48 89 75 f8          	mov    %rsi,-0x8(%rbp)
  101a7f:	48 89 45 e8          	mov    %rax,-0x18(%rbp)
  101a83:	48 89 7d e0          	mov    %rdi,-0x20(%rbp)
  101a87:	b8 0c 00 00 00       	mov    $0xc,%eax
  101a8c:	89 c2                	mov    %eax,%edx
  101a8e:	48 8b 4d f8          	mov    -0x8(%rbp),%rcx
  101a92:	48 89 4d f0          	mov    %rcx,-0x10(%rbp)
  101a96:	48 8b 4d f0          	mov    -0x10(%rbp),%rcx
  101a9a:	48 8b 7d e0          	mov    -0x20(%rbp),%rdi
  101a9e:	48 89 ce             	mov    %rcx,%rsi
  101aa1:	e8 ba 04 00 00       	callq  101f60 <_ZN53_$LT$$u5b$T$u5d$$u20$as$u20$core..slice..SliceExt$GT$4iter17h7b0dda1c92ba97edE>
  101aa6:	48 8b 45 e8          	mov    -0x18(%rbp),%rax
  101aaa:	48 83 c4 20          	add    $0x20,%rsp
  101aae:	5d                   	pop    %rbp
  101aaf:	c3                   	retq   

0000000000101ab0 <_ZN4core5slice71_$LT$impl$u20$core..ops..Index$LT$usize$GT$$u20$for$u20$$u5b$T$u5d$$GT$5index17h50ae4478be8f439cE>:
  101ab0:	55                   	push   %rbp
  101ab1:	48 89 e5             	mov    %rsp,%rbp
  101ab4:	48 83 ec 60          	sub    $0x60,%rsp
  101ab8:	48 89 7d e8          	mov    %rdi,-0x18(%rbp)
  101abc:	48 89 75 f0          	mov    %rsi,-0x10(%rbp)
  101ac0:	48 89 55 e0          	mov    %rdx,-0x20(%rbp)
  101ac4:	48 8b 45 e8          	mov    -0x18(%rbp),%rax
  101ac8:	48 8b 4d f0          	mov    -0x10(%rbp),%rcx
  101acc:	48 89 45 d0          	mov    %rax,-0x30(%rbp)
  101ad0:	48 89 4d d8          	mov    %rcx,-0x28(%rbp)
  101ad4:	48 8b 45 e0          	mov    -0x20(%rbp),%rax
  101ad8:	48 89 45 c8          	mov    %rax,-0x38(%rbp)
  101adc:	48 8b 45 c8          	mov    -0x38(%rbp),%rax
  101ae0:	48 8b 7d d0          	mov    -0x30(%rbp),%rdi
  101ae4:	48 8b 75 d8          	mov    -0x28(%rbp),%rsi
  101ae8:	48 89 45 b8          	mov    %rax,-0x48(%rbp)
  101aec:	e8 cf 03 00 00       	callq  101ec0 <_ZN53_$LT$$u5b$T$u5d$$u20$as$u20$core..slice..SliceExt$GT$3len17h26b73696b06f63cbE>
  101af1:	48 89 45 b0          	mov    %rax,-0x50(%rbp)
  101af5:	48 8b 45 b8          	mov    -0x48(%rbp),%rax
  101af9:	48 8b 4d b0          	mov    -0x50(%rbp),%rcx
  101afd:	48 39 c8             	cmp    %rcx,%rax
  101b00:	0f 92 c2             	setb   %dl
  101b03:	80 f2 ff             	xor    $0xff,%dl
  101b06:	f6 c2 01             	test   $0x1,%dl
  101b09:	75 02                	jne    101b0d <_ZN4core5slice71_$LT$impl$u20$core..ops..Index$LT$usize$GT$$u20$for$u20$$u5b$T$u5d$$GT$5index17h50ae4478be8f439cE+0x5d>
  101b0b:	eb 0c                	jmp    101b19 <_ZN4core5slice71_$LT$impl$u20$core..ops..Index$LT$usize$GT$$u20$for$u20$$u5b$T$u5d$$GT$5index17h50ae4478be8f439cE+0x69>
  101b0d:	48 8d 3d ec e9 00 00 	lea    0xe9ec(%rip),%rdi        # 110500 <_ZN4core5slice71_$LT$impl$u20$core..ops..Index$LT$usize$GT$$u20$for$u20$$u5b$T$u5d$$GT$5index14_MSG_FILE_LINE17hd4a8c28ce6b3e2a5E>
  101b14:	e8 77 39 00 00       	callq  105490 <_ZN4core9panicking5panic17h585bd70cda921012E>
  101b19:	48 8b 7d d0          	mov    -0x30(%rbp),%rdi
  101b1d:	48 8b 75 d8          	mov    -0x28(%rbp),%rsi
  101b21:	48 8b 55 c8          	mov    -0x38(%rbp),%rdx
  101b25:	e8 d6 02 00 00       	callq  101e00 <_ZN53_$LT$$u5b$T$u5d$$u20$as$u20$core..slice..SliceExt$GT$13get_unchecked17h0f34e8f869d2097eE>
  101b2a:	48 89 45 a8          	mov    %rax,-0x58(%rbp)
  101b2e:	48 8b 45 a8          	mov    -0x58(%rbp),%rax
  101b32:	48 83 c4 60          	add    $0x60,%rsp
  101b36:	5d                   	pop    %rbp
  101b37:	c3                   	retq   
  101b38:	0f 1f 84 00 00 00 00 	nopl   0x0(%rax,%rax,1)
  101b3f:	00 

0000000000101b40 <_ZN4core5slice74_$LT$impl$u20$core..ops..IndexMut$LT$usize$GT$$u20$for$u20$$u5b$T$u5d$$GT$9index_mut17h84d6f44256c72fd4E>:
  101b40:	55                   	push   %rbp
  101b41:	48 89 e5             	mov    %rsp,%rbp
  101b44:	48 83 ec 60          	sub    $0x60,%rsp
  101b48:	48 89 7d e8          	mov    %rdi,-0x18(%rbp)
  101b4c:	48 89 75 f0          	mov    %rsi,-0x10(%rbp)
  101b50:	48 89 55 e0          	mov    %rdx,-0x20(%rbp)
  101b54:	48 8b 45 e8          	mov    -0x18(%rbp),%rax
  101b58:	48 8b 4d f0          	mov    -0x10(%rbp),%rcx
  101b5c:	48 89 45 d0          	mov    %rax,-0x30(%rbp)
  101b60:	48 89 4d d8          	mov    %rcx,-0x28(%rbp)
  101b64:	48 8b 45 e0          	mov    -0x20(%rbp),%rax
  101b68:	48 89 45 c8          	mov    %rax,-0x38(%rbp)
  101b6c:	48 8b 45 c8          	mov    -0x38(%rbp),%rax
  101b70:	48 8b 7d d0          	mov    -0x30(%rbp),%rdi
  101b74:	48 8b 75 d8          	mov    -0x28(%rbp),%rsi
  101b78:	48 89 45 b8          	mov    %rax,-0x48(%rbp)
  101b7c:	e8 8f 03 00 00       	callq  101f10 <_ZN53_$LT$$u5b$T$u5d$$u20$as$u20$core..slice..SliceExt$GT$3len17he17f44d354df8341E>
  101b81:	48 89 45 b0          	mov    %rax,-0x50(%rbp)
  101b85:	48 8b 45 b8          	mov    -0x48(%rbp),%rax
  101b89:	48 8b 4d b0          	mov    -0x50(%rbp),%rcx
  101b8d:	48 39 c8             	cmp    %rcx,%rax
  101b90:	0f 92 c2             	setb   %dl
  101b93:	80 f2 ff             	xor    $0xff,%dl
  101b96:	f6 c2 01             	test   $0x1,%dl
  101b99:	75 02                	jne    101b9d <_ZN4core5slice74_$LT$impl$u20$core..ops..IndexMut$LT$usize$GT$$u20$for$u20$$u5b$T$u5d$$GT$9index_mut17h84d6f44256c72fd4E+0x5d>
  101b9b:	eb 0c                	jmp    101ba9 <_ZN4core5slice74_$LT$impl$u20$core..ops..IndexMut$LT$usize$GT$$u20$for$u20$$u5b$T$u5d$$GT$9index_mut17h84d6f44256c72fd4E+0x69>
  101b9d:	48 8d 3d 84 e9 00 00 	lea    0xe984(%rip),%rdi        # 110528 <_ZN4core5slice74_$LT$impl$u20$core..ops..IndexMut$LT$usize$GT$$u20$for$u20$$u5b$T$u5d$$GT$9index_mut14_MSG_FILE_LINE17hdc6d73d2b1d0e93cE>
  101ba4:	e8 e7 38 00 00       	callq  105490 <_ZN4core9panicking5panic17h585bd70cda921012E>
  101ba9:	48 8b 7d d0          	mov    -0x30(%rbp),%rdi
  101bad:	48 8b 75 d8          	mov    -0x28(%rbp),%rsi
  101bb1:	48 8b 55 c8          	mov    -0x38(%rbp),%rdx
  101bb5:	e8 a6 02 00 00       	callq  101e60 <_ZN53_$LT$$u5b$T$u5d$$u20$as$u20$core..slice..SliceExt$GT$17get_unchecked_mut17h305a7549d16886e7E>
  101bba:	48 89 45 a8          	mov    %rax,-0x58(%rbp)
  101bbe:	48 8b 45 a8          	mov    -0x58(%rbp),%rax
  101bc2:	48 83 c4 60          	add    $0x60,%rsp
  101bc6:	5d                   	pop    %rbp
  101bc7:	c3                   	retq   
  101bc8:	0f 1f 84 00 00 00 00 	nopl   0x0(%rax,%rax,1)
  101bcf:	00 

0000000000101bd0 <_ZN4core6result13unwrap_failed17h2281db82013e9106E>:
  101bd0:	55                   	push   %rbp
  101bd1:	48 89 e5             	mov    %rsp,%rbp
  101bd4:	48 81 ec f0 00 00 00 	sub    $0xf0,%rsp
  101bdb:	48 89 7d f0          	mov    %rdi,-0x10(%rbp)
  101bdf:	48 89 75 f8          	mov    %rsi,-0x8(%rbp)
  101be3:	48 8d 45 d0          	lea    -0x30(%rbp),%rax
  101be7:	48 8d 4d d8          	lea    -0x28(%rbp),%rcx
  101beb:	48 8d 15 fe e8 00 00 	lea    0xe8fe(%rip),%rdx        # 1104f0 <_ZN4core6result13unwrap_failed15__STATIC_FMTSTR17h75da7f0fe1681751E>
  101bf2:	48 8b 75 f0          	mov    -0x10(%rbp),%rsi
  101bf6:	48 8b 7d f8          	mov    -0x8(%rbp),%rdi
  101bfa:	48 89 75 d8          	mov    %rsi,-0x28(%rbp)
  101bfe:	48 89 7d e0          	mov    %rdi,-0x20(%rbp)
  101c02:	48 8b 32             	mov    (%rdx),%rsi
  101c05:	48 8b 52 08          	mov    0x8(%rdx),%rdx
  101c09:	48 89 8d 60 ff ff ff 	mov    %rcx,-0xa0(%rbp)
  101c10:	48 89 85 68 ff ff ff 	mov    %rax,-0x98(%rbp)
  101c17:	48 8b 85 60 ff ff ff 	mov    -0xa0(%rbp),%rax
  101c1e:	48 89 45 c8          	mov    %rax,-0x38(%rbp)
  101c22:	48 8b 85 68 ff ff ff 	mov    -0x98(%rbp),%rax
  101c29:	48 89 45 c0          	mov    %rax,-0x40(%rbp)
  101c2d:	48 89 b5 38 ff ff ff 	mov    %rsi,-0xc8(%rbp)
  101c34:	48 89 95 30 ff ff ff 	mov    %rdx,-0xd0(%rbp)
  101c3b:	48 8d bd 50 ff ff ff 	lea    -0xb0(%rbp),%rdi
  101c42:	48 8d 15 87 07 00 00 	lea    0x787(%rip),%rdx        # 1023d0 <_ZN55_$LT$$RF$$u27$a$u20$T$u20$as$u20$core..fmt..Display$GT$3fmt17hd58574be7c4db377E>
  101c49:	48 8b 75 c8          	mov    -0x38(%rbp),%rsi
  101c4d:	e8 5e f0 ff ff       	callq  100cb0 <_ZN4core3fmt10ArgumentV13new17h710935a10de9157aE>
  101c52:	48 8b 95 50 ff ff ff 	mov    -0xb0(%rbp),%rdx
  101c59:	48 8b b5 58 ff ff ff 	mov    -0xa8(%rbp),%rsi
  101c60:	48 89 95 28 ff ff ff 	mov    %rdx,-0xd8(%rbp)
  101c67:	48 89 b5 20 ff ff ff 	mov    %rsi,-0xe0(%rbp)
  101c6e:	48 8d bd 40 ff ff ff 	lea    -0xc0(%rbp),%rdi
  101c75:	48 8d 15 d4 9d 00 00 	lea    0x9dd4(%rip),%rdx        # 10ba50 <_ZN53_$LT$core..fmt..Error$u20$as$u20$core..fmt..Debug$GT$3fmt17h493687bd3a737fd3E>
  101c7c:	48 8b 75 c0          	mov    -0x40(%rbp),%rsi
  101c80:	e8 4b ef ff ff       	callq  100bd0 <_ZN4core3fmt10ArgumentV13new17h190f0d83f1bf27fdE>
  101c85:	48 8b 95 40 ff ff ff 	mov    -0xc0(%rbp),%rdx
  101c8c:	48 8b b5 48 ff ff ff 	mov    -0xb8(%rbp),%rsi
  101c93:	48 89 95 18 ff ff ff 	mov    %rdx,-0xe8(%rbp)
  101c9a:	48 89 b5 10 ff ff ff 	mov    %rsi,-0xf0(%rbp)
  101ca1:	48 8d 7d 90          	lea    -0x70(%rbp),%rdi
  101ca5:	b8 02 00 00 00       	mov    $0x2,%eax
  101caa:	41 89 c0             	mov    %eax,%r8d
  101cad:	48 8d 8d 70 ff ff ff 	lea    -0x90(%rbp),%rcx
  101cb4:	48 8b 95 28 ff ff ff 	mov    -0xd8(%rbp),%rdx
  101cbb:	48 89 95 70 ff ff ff 	mov    %rdx,-0x90(%rbp)
  101cc2:	48 8b b5 20 ff ff ff 	mov    -0xe0(%rbp),%rsi
  101cc9:	48 89 b5 78 ff ff ff 	mov    %rsi,-0x88(%rbp)
  101cd0:	4c 8b 8d 18 ff ff ff 	mov    -0xe8(%rbp),%r9
  101cd7:	4c 89 4d 80          	mov    %r9,-0x80(%rbp)
  101cdb:	4c 8b 95 10 ff ff ff 	mov    -0xf0(%rbp),%r10
  101ce2:	4c 89 55 88          	mov    %r10,-0x78(%rbp)
  101ce6:	48 8b b5 38 ff ff ff 	mov    -0xc8(%rbp),%rsi
  101ced:	48 8b 95 30 ff ff ff 	mov    -0xd0(%rbp),%rdx
  101cf4:	e8 b7 f2 ff ff       	callq  100fb0 <_ZN4core3fmt9Arguments6new_v117h2ee48eb28c0cff0aE>
  101cf9:	48 8d 7d 90          	lea    -0x70(%rbp),%rdi
  101cfd:	48 8d 35 d4 e7 00 00 	lea    0xe7d4(%rip),%rsi        # 1104d8 <_ZN4core6result13unwrap_failed10_FILE_LINE17h4f2b2d4b095d15a8E>
  101d04:	e8 57 39 00 00       	callq  105660 <_ZN4core9panicking9panic_fmt17hb567db798f4a4807E>
  101d09:	0f 1f 80 00 00 00 00 	nopl   0x0(%rax)

0000000000101d10 <_ZN4drop17h0da496a0673bac19E>:
  101d10:	55                   	push   %rbp
  101d11:	48 89 e5             	mov    %rsp,%rbp
  101d14:	48 83 ec 10          	sub    $0x10,%rsp
  101d18:	8a 47 10             	mov    0x10(%rdi),%al
  101d1b:	3c d4                	cmp    $0xd4,%al
  101d1d:	0f 95 c1             	setne  %cl
  101d20:	3c 1d                	cmp    $0x1d,%al
  101d22:	0f 95 c2             	setne  %dl
  101d25:	20 d1                	and    %dl,%cl
  101d27:	f6 c1 01             	test   $0x1,%cl
  101d2a:	48 89 7d f8          	mov    %rdi,-0x8(%rbp)
  101d2e:	88 45 f7             	mov    %al,-0x9(%rbp)
  101d31:	75 09                	jne    101d3c <_ZN4drop17h0da496a0673bac19E+0x2c>
  101d33:	8a 45 f7             	mov    -0x9(%rbp),%al
  101d36:	3c d4                	cmp    $0xd4,%al
  101d38:	74 0b                	je     101d45 <_ZN4drop17h0da496a0673bac19E+0x35>
  101d3a:	eb 03                	jmp    101d3f <_ZN4drop17h0da496a0673bac19E+0x2f>
  101d3c:	cc                   	int3   
  101d3d:	eb f4                	jmp    101d33 <_ZN4drop17h0da496a0673bac19E+0x23>
  101d3f:	48 83 c4 10          	add    $0x10,%rsp
  101d43:	5d                   	pop    %rbp
  101d44:	c3                   	retq   
  101d45:	48 8b 7d f8          	mov    -0x8(%rbp),%rdi
  101d49:	e8 22 08 00 00       	callq  102570 <_ZN82_$LT$spin..mutex..MutexGuard$LT$$u27$a$C$$u20$T$GT$$u20$as$u20$core..ops..Drop$GT$4drop17hb679972316a29187E>
  101d4e:	48 8b 7d f8          	mov    -0x8(%rbp),%rdi
  101d52:	e8 09 e5 ff ff       	callq  100260 <_ZN13drop_contents17h0da496a0673bac19E>
  101d57:	eb e6                	jmp    101d3f <_ZN4drop17h0da496a0673bac19E+0x2f>
  101d59:	0f 1f 80 00 00 00 00 	nopl   0x0(%rax)

0000000000101d60 <_ZN4drop17h80e900ba5b592571E>:
  101d60:	55                   	push   %rbp
  101d61:	48 89 e5             	mov    %rsp,%rbp
  101d64:	48 83 ec 10          	sub    $0x10,%rsp
  101d68:	8a 47 10             	mov    0x10(%rdi),%al
  101d6b:	3c d4                	cmp    $0xd4,%al
  101d6d:	0f 95 c1             	setne  %cl
  101d70:	3c 1d                	cmp    $0x1d,%al
  101d72:	0f 95 c2             	setne  %dl
  101d75:	20 d1                	and    %dl,%cl
  101d77:	f6 c1 01             	test   $0x1,%cl
  101d7a:	48 89 7d f8          	mov    %rdi,-0x8(%rbp)
  101d7e:	88 45 f7             	mov    %al,-0x9(%rbp)
  101d81:	75 09                	jne    101d8c <_ZN4drop17h80e900ba5b592571E+0x2c>
  101d83:	8a 45 f7             	mov    -0x9(%rbp),%al
  101d86:	3c d4                	cmp    $0xd4,%al
  101d88:	74 0b                	je     101d95 <_ZN4drop17h80e900ba5b592571E+0x35>
  101d8a:	eb 03                	jmp    101d8f <_ZN4drop17h80e900ba5b592571E+0x2f>
  101d8c:	cc                   	int3   
  101d8d:	eb f4                	jmp    101d83 <_ZN4drop17h80e900ba5b592571E+0x23>
  101d8f:	48 83 c4 10          	add    $0x10,%rsp
  101d93:	5d                   	pop    %rbp
  101d94:	c3                   	retq   
  101d95:	48 8b 7d f8          	mov    -0x8(%rbp),%rdi
  101d99:	e8 02 08 00 00       	callq  1025a0 <_ZN82_$LT$spin..mutex..MutexGuard$LT$$u27$a$C$$u20$T$GT$$u20$as$u20$core..ops..Drop$GT$4drop17hf361d94432bc7072E>
  101d9e:	48 8b 7d f8          	mov    -0x8(%rbp),%rdi
  101da2:	e8 c9 e4 ff ff       	callq  100270 <_ZN13drop_contents17h80e900ba5b592571E>
  101da7:	eb e6                	jmp    101d8f <_ZN4drop17h80e900ba5b592571E+0x2f>
  101da9:	0f 1f 80 00 00 00 00 	nopl   0x0(%rax)

0000000000101db0 <_ZN4drop17hc900adbc62f5500dE>:
  101db0:	55                   	push   %rbp
  101db1:	48 89 e5             	mov    %rsp,%rbp
  101db4:	50                   	push   %rax
  101db5:	48 89 7d f8          	mov    %rdi,-0x8(%rbp)
  101db9:	48 83 c4 08          	add    $0x8,%rsp
  101dbd:	5d                   	pop    %rbp
  101dbe:	c3                   	retq   
  101dbf:	90                   	nop

0000000000101dc0 <_ZN53_$LT$$u5b$T$u5d$$u20$as$u20$core..slice..SliceExt$GT$10as_mut_ptr17h0e56edd2ac4af6b0E>:
  101dc0:	55                   	push   %rbp
  101dc1:	48 89 e5             	mov    %rsp,%rbp
  101dc4:	48 83 ec 30          	sub    $0x30,%rsp
  101dc8:	48 89 7d e8          	mov    %rdi,-0x18(%rbp)
  101dcc:	48 89 75 f0          	mov    %rsi,-0x10(%rbp)
  101dd0:	48 8b 45 e8          	mov    -0x18(%rbp),%rax
  101dd4:	48 8b 4d f0          	mov    -0x10(%rbp),%rcx
  101dd8:	48 89 45 d8          	mov    %rax,-0x28(%rbp)
  101ddc:	48 89 4d e0          	mov    %rcx,-0x20(%rbp)
  101de0:	48 8b 45 d8          	mov    -0x28(%rbp),%rax
  101de4:	48 89 45 d0          	mov    %rax,-0x30(%rbp)
  101de8:	48 8b 45 d0          	mov    -0x30(%rbp),%rax
  101dec:	48 83 c4 30          	add    $0x30,%rsp
  101df0:	5d                   	pop    %rbp
  101df1:	c3                   	retq   
  101df2:	66 2e 0f 1f 84 00 00 	nopw   %cs:0x0(%rax,%rax,1)
  101df9:	00 00 00 
  101dfc:	0f 1f 40 00          	nopl   0x0(%rax)

0000000000101e00 <_ZN53_$LT$$u5b$T$u5d$$u20$as$u20$core..slice..SliceExt$GT$13get_unchecked17h0f34e8f869d2097eE>:
  101e00:	55                   	push   %rbp
  101e01:	48 89 e5             	mov    %rsp,%rbp
  101e04:	48 83 ec 50          	sub    $0x50,%rsp
  101e08:	48 89 7d e8          	mov    %rdi,-0x18(%rbp)
  101e0c:	48 89 75 f0          	mov    %rsi,-0x10(%rbp)
  101e10:	48 89 55 e0          	mov    %rdx,-0x20(%rbp)
  101e14:	48 8b 45 e8          	mov    -0x18(%rbp),%rax
  101e18:	48 8b 4d f0          	mov    -0x10(%rbp),%rcx
  101e1c:	48 89 45 d0          	mov    %rax,-0x30(%rbp)
  101e20:	48 89 4d d8          	mov    %rcx,-0x28(%rbp)
  101e24:	48 8b 45 e0          	mov    -0x20(%rbp),%rax
  101e28:	48 89 45 c8          	mov    %rax,-0x38(%rbp)
  101e2c:	48 8b 7d d0          	mov    -0x30(%rbp),%rdi
  101e30:	48 8b 75 d8          	mov    -0x28(%rbp),%rsi
  101e34:	e8 b7 02 00 00       	callq  1020f0 <_ZN53_$LT$$u5b$T$u5d$$u20$as$u20$core..slice..SliceExt$GT$6as_ptr17hd271017da618ecc1E>
  101e39:	48 89 45 c0          	mov    %rax,-0x40(%rbp)
  101e3d:	48 8b 75 c8          	mov    -0x38(%rbp),%rsi
  101e41:	48 8b 7d c0          	mov    -0x40(%rbp),%rdi
  101e45:	e8 46 f3 ff ff       	callq  101190 <_ZN4core3ptr33_$LT$impl$u20$$BP$const$u20$T$GT$6offset17h991e076664d68775E>
  101e4a:	48 89 45 b8          	mov    %rax,-0x48(%rbp)
  101e4e:	48 8b 45 b8          	mov    -0x48(%rbp),%rax
  101e52:	48 83 c4 50          	add    $0x50,%rsp
  101e56:	5d                   	pop    %rbp
  101e57:	c3                   	retq   
  101e58:	0f 1f 84 00 00 00 00 	nopl   0x0(%rax,%rax,1)
  101e5f:	00 

0000000000101e60 <_ZN53_$LT$$u5b$T$u5d$$u20$as$u20$core..slice..SliceExt$GT$17get_unchecked_mut17h305a7549d16886e7E>:
  101e60:	55                   	push   %rbp
  101e61:	48 89 e5             	mov    %rsp,%rbp
  101e64:	48 83 ec 50          	sub    $0x50,%rsp
  101e68:	48 89 7d e8          	mov    %rdi,-0x18(%rbp)
  101e6c:	48 89 75 f0          	mov    %rsi,-0x10(%rbp)
  101e70:	48 89 55 e0          	mov    %rdx,-0x20(%rbp)
  101e74:	48 8b 45 e8          	mov    -0x18(%rbp),%rax
  101e78:	48 8b 4d f0          	mov    -0x10(%rbp),%rcx
  101e7c:	48 89 45 d0          	mov    %rax,-0x30(%rbp)
  101e80:	48 89 4d d8          	mov    %rcx,-0x28(%rbp)
  101e84:	48 8b 45 e0          	mov    -0x20(%rbp),%rax
  101e88:	48 89 45 c8          	mov    %rax,-0x38(%rbp)
  101e8c:	48 8b 7d d0          	mov    -0x30(%rbp),%rdi
  101e90:	48 8b 75 d8          	mov    -0x28(%rbp),%rsi
  101e94:	e8 27 ff ff ff       	callq  101dc0 <_ZN53_$LT$$u5b$T$u5d$$u20$as$u20$core..slice..SliceExt$GT$10as_mut_ptr17h0e56edd2ac4af6b0E>
  101e99:	48 89 45 c0          	mov    %rax,-0x40(%rbp)
  101e9d:	48 8b 75 c8          	mov    -0x38(%rbp),%rsi
  101ea1:	48 8b 7d c0          	mov    -0x40(%rbp),%rdi
  101ea5:	e8 66 f2 ff ff       	callq  101110 <_ZN4core3ptr31_$LT$impl$u20$$BP$mut$u20$T$GT$6offset17hd699195ba756a29fE>
  101eaa:	48 89 45 b8          	mov    %rax,-0x48(%rbp)
  101eae:	48 8b 45 b8          	mov    -0x48(%rbp),%rax
  101eb2:	48 83 c4 50          	add    $0x50,%rsp
  101eb6:	5d                   	pop    %rbp
  101eb7:	c3                   	retq   
  101eb8:	0f 1f 84 00 00 00 00 	nopl   0x0(%rax,%rax,1)
  101ebf:	00 

0000000000101ec0 <_ZN53_$LT$$u5b$T$u5d$$u20$as$u20$core..slice..SliceExt$GT$3len17h26b73696b06f63cbE>:
  101ec0:	55                   	push   %rbp
  101ec1:	48 89 e5             	mov    %rsp,%rbp
  101ec4:	48 83 ec 40          	sub    $0x40,%rsp
  101ec8:	48 89 7d e8          	mov    %rdi,-0x18(%rbp)
  101ecc:	48 89 75 f0          	mov    %rsi,-0x10(%rbp)
  101ed0:	48 8b 45 e8          	mov    -0x18(%rbp),%rax
  101ed4:	48 8b 4d f0          	mov    -0x10(%rbp),%rcx
  101ed8:	48 89 45 d8          	mov    %rax,-0x28(%rbp)
  101edc:	48 89 4d e0          	mov    %rcx,-0x20(%rbp)
  101ee0:	48 8b 45 d8          	mov    -0x28(%rbp),%rax
  101ee4:	48 8b 4d e0          	mov    -0x20(%rbp),%rcx
  101ee8:	48 89 45 c8          	mov    %rax,-0x38(%rbp)
  101eec:	48 89 4d d0          	mov    %rcx,-0x30(%rbp)
  101ef0:	48 8b 45 d0          	mov    -0x30(%rbp),%rax
  101ef4:	48 89 45 c0          	mov    %rax,-0x40(%rbp)
  101ef8:	48 8b 45 c0          	mov    -0x40(%rbp),%rax
  101efc:	48 83 c4 40          	add    $0x40,%rsp
  101f00:	5d                   	pop    %rbp
  101f01:	c3                   	retq   
  101f02:	66 2e 0f 1f 84 00 00 	nopw   %cs:0x0(%rax,%rax,1)
  101f09:	00 00 00 
  101f0c:	0f 1f 40 00          	nopl   0x0(%rax)

0000000000101f10 <_ZN53_$LT$$u5b$T$u5d$$u20$as$u20$core..slice..SliceExt$GT$3len17he17f44d354df8341E>:
  101f10:	55                   	push   %rbp
  101f11:	48 89 e5             	mov    %rsp,%rbp
  101f14:	48 83 ec 40          	sub    $0x40,%rsp
  101f18:	48 89 7d e8          	mov    %rdi,-0x18(%rbp)
  101f1c:	48 89 75 f0          	mov    %rsi,-0x10(%rbp)
  101f20:	48 8b 45 e8          	mov    -0x18(%rbp),%rax
  101f24:	48 8b 4d f0          	mov    -0x10(%rbp),%rcx
  101f28:	48 89 45 d8          	mov    %rax,-0x28(%rbp)
  101f2c:	48 89 4d e0          	mov    %rcx,-0x20(%rbp)
  101f30:	48 8b 45 d8          	mov    -0x28(%rbp),%rax
  101f34:	48 8b 4d e0          	mov    -0x20(%rbp),%rcx
  101f38:	48 89 45 c8          	mov    %rax,-0x38(%rbp)
  101f3c:	48 89 4d d0          	mov    %rcx,-0x30(%rbp)
  101f40:	48 8b 45 d0          	mov    -0x30(%rbp),%rax
  101f44:	48 89 45 c0          	mov    %rax,-0x40(%rbp)
  101f48:	48 8b 45 c0          	mov    -0x40(%rbp),%rax
  101f4c:	48 83 c4 40          	add    $0x40,%rsp
  101f50:	5d                   	pop    %rbp
  101f51:	c3                   	retq   
  101f52:	66 2e 0f 1f 84 00 00 	nopw   %cs:0x0(%rax,%rax,1)
  101f59:	00 00 00 
  101f5c:	0f 1f 40 00          	nopl   0x0(%rax)

0000000000101f60 <_ZN53_$LT$$u5b$T$u5d$$u20$as$u20$core..slice..SliceExt$GT$4iter17h7b0dda1c92ba97edE>:
  101f60:	55                   	push   %rbp
  101f61:	48 89 e5             	mov    %rsp,%rbp
  101f64:	48 81 ec b0 00 00 00 	sub    $0xb0,%rsp
  101f6b:	48 89 f8             	mov    %rdi,%rax
  101f6e:	48 89 75 e8          	mov    %rsi,-0x18(%rbp)
  101f72:	48 89 55 f0          	mov    %rdx,-0x10(%rbp)
  101f76:	48 89 45 a0          	mov    %rax,-0x60(%rbp)
  101f7a:	48 89 7d 98          	mov    %rdi,-0x68(%rbp)
  101f7e:	48 8b 45 e8          	mov    -0x18(%rbp),%rax
  101f82:	48 8b 4d f0          	mov    -0x10(%rbp),%rcx
  101f86:	48 89 45 d8          	mov    %rax,-0x28(%rbp)
  101f8a:	48 89 4d e0          	mov    %rcx,-0x20(%rbp)
  101f8e:	e8 4d f1 ff ff       	callq  1010e0 <_ZN4core3mem7size_of17hb7c38d54091f1b39E>
  101f93:	48 89 45 90          	mov    %rax,-0x70(%rbp)
  101f97:	48 8b 45 90          	mov    -0x70(%rbp),%rax
  101f9b:	48 83 f8 00          	cmp    $0x0,%rax
  101f9f:	75 0d                	jne    101fae <_ZN53_$LT$$u5b$T$u5d$$u20$as$u20$core..slice..SliceExt$GT$4iter17h7b0dda1c92ba97edE+0x4e>
  101fa1:	b8 01 00 00 00       	mov    $0x1,%eax
  101fa6:	89 c1                	mov    %eax,%ecx
  101fa8:	48 89 4d d0          	mov    %rcx,-0x30(%rbp)
  101fac:	eb 25                	jmp    101fd3 <_ZN53_$LT$$u5b$T$u5d$$u20$as$u20$core..slice..SliceExt$GT$4iter17h7b0dda1c92ba97edE+0x73>
  101fae:	48 8b 7d d8          	mov    -0x28(%rbp),%rdi
  101fb2:	48 8b 75 e0          	mov    -0x20(%rbp),%rsi
  101fb6:	e8 f5 00 00 00       	callq  1020b0 <_ZN53_$LT$$u5b$T$u5d$$u20$as$u20$core..slice..SliceExt$GT$6as_ptr17h7ebcf49c904fbf2fE>
  101fbb:	48 89 45 c8          	mov    %rax,-0x38(%rbp)
  101fbf:	48 8b 7d c8          	mov    -0x38(%rbp),%rdi
  101fc3:	e8 18 f2 ff ff       	callq  1011e0 <_ZN4core3ptr33_$LT$impl$u20$$BP$const$u20$T$GT$7is_null17h99216fd405cc08a2E>
  101fc8:	88 45 8f             	mov    %al,-0x71(%rbp)
  101fcb:	48 8b 45 c8          	mov    -0x38(%rbp),%rax
  101fcf:	48 89 45 d0          	mov    %rax,-0x30(%rbp)
  101fd3:	48 8b 45 d0          	mov    -0x30(%rbp),%rax
  101fd7:	48 8b 4d d0          	mov    -0x30(%rbp),%rcx
  101fdb:	48 89 4d c0          	mov    %rcx,-0x40(%rbp)
  101fdf:	48 8b 4d c0          	mov    -0x40(%rbp),%rcx
  101fe3:	48 89 4d f8          	mov    %rcx,-0x8(%rbp)
  101fe7:	48 89 45 80          	mov    %rax,-0x80(%rbp)
  101feb:	e8 f0 f0 ff ff       	callq  1010e0 <_ZN4core3mem7size_of17hb7c38d54091f1b39E>
  101ff0:	48 89 85 78 ff ff ff 	mov    %rax,-0x88(%rbp)
  101ff7:	48 8b 85 78 ff ff ff 	mov    -0x88(%rbp),%rax
  101ffe:	48 83 f8 00          	cmp    $0x0,%rax
  102002:	75 21                	jne    102025 <_ZN53_$LT$$u5b$T$u5d$$u20$as$u20$core..slice..SliceExt$GT$4iter17h7b0dda1c92ba97edE+0xc5>
  102004:	48 8b 45 c0          	mov    -0x40(%rbp),%rax
  102008:	48 8b 7d d8          	mov    -0x28(%rbp),%rdi
  10200c:	48 8b 75 e0          	mov    -0x20(%rbp),%rsi
  102010:	48 89 85 70 ff ff ff 	mov    %rax,-0x90(%rbp)
  102017:	e8 f4 fe ff ff       	callq  101f10 <_ZN53_$LT$$u5b$T$u5d$$u20$as$u20$core..slice..SliceExt$GT$3len17he17f44d354df8341E>
  10201c:	48 89 85 68 ff ff ff 	mov    %rax,-0x98(%rbp)
  102023:	eb 24                	jmp    102049 <_ZN53_$LT$$u5b$T$u5d$$u20$as$u20$core..slice..SliceExt$GT$4iter17h7b0dda1c92ba97edE+0xe9>
  102025:	48 8b 7d c0          	mov    -0x40(%rbp),%rdi
  102029:	48 8b 45 d8          	mov    -0x28(%rbp),%rax
  10202d:	48 8b 75 e0          	mov    -0x20(%rbp),%rsi
  102031:	48 89 bd 60 ff ff ff 	mov    %rdi,-0xa0(%rbp)
  102038:	48 89 c7             	mov    %rax,%rdi
  10203b:	e8 d0 fe ff ff       	callq  101f10 <_ZN53_$LT$$u5b$T$u5d$$u20$as$u20$core..slice..SliceExt$GT$3len17he17f44d354df8341E>
  102040:	48 89 85 58 ff ff ff 	mov    %rax,-0xa8(%rbp)
  102047:	eb 2d                	jmp    102076 <_ZN53_$LT$$u5b$T$u5d$$u20$as$u20$core..slice..SliceExt$GT$4iter17h7b0dda1c92ba97edE+0x116>
  102049:	48 8b 85 70 ff ff ff 	mov    -0x90(%rbp),%rax
  102050:	48 8b 8d 68 ff ff ff 	mov    -0x98(%rbp),%rcx
  102057:	48 01 c8             	add    %rcx,%rax
  10205a:	48 89 45 a8          	mov    %rax,-0x58(%rbp)
  10205e:	48 8b 45 a8          	mov    -0x58(%rbp),%rax
  102062:	48 89 85 50 ff ff ff 	mov    %rax,-0xb0(%rbp)
  102069:	48 8b 85 50 ff ff ff 	mov    -0xb0(%rbp),%rax
  102070:	48 89 45 b8          	mov    %rax,-0x48(%rbp)
  102074:	eb 17                	jmp    10208d <_ZN53_$LT$$u5b$T$u5d$$u20$as$u20$core..slice..SliceExt$GT$4iter17h7b0dda1c92ba97edE+0x12d>
  102076:	48 8b bd 60 ff ff ff 	mov    -0xa0(%rbp),%rdi
  10207d:	48 8b b5 58 ff ff ff 	mov    -0xa8(%rbp),%rsi
  102084:	e8 c7 f0 ff ff       	callq  101150 <_ZN4core3ptr33_$LT$impl$u20$$BP$const$u20$T$GT$6offset17h0d62b7cbced53ff4E>
  102089:	48 89 45 b8          	mov    %rax,-0x48(%rbp)
  10208d:	48 8b 45 98          	mov    -0x68(%rbp),%rax
  102091:	48 8b 4d 80          	mov    -0x80(%rbp),%rcx
  102095:	48 89 08             	mov    %rcx,(%rax)
  102098:	48 8b 55 b8          	mov    -0x48(%rbp),%rdx
  10209c:	48 89 50 08          	mov    %rdx,0x8(%rax)
  1020a0:	48 8b 45 a0          	mov    -0x60(%rbp),%rax
  1020a4:	48 81 c4 b0 00 00 00 	add    $0xb0,%rsp
  1020ab:	5d                   	pop    %rbp
  1020ac:	c3                   	retq   
  1020ad:	0f 1f 00             	nopl   (%rax)

00000000001020b0 <_ZN53_$LT$$u5b$T$u5d$$u20$as$u20$core..slice..SliceExt$GT$6as_ptr17h7ebcf49c904fbf2fE>:
  1020b0:	55                   	push   %rbp
  1020b1:	48 89 e5             	mov    %rsp,%rbp
  1020b4:	48 83 ec 30          	sub    $0x30,%rsp
  1020b8:	48 89 7d e8          	mov    %rdi,-0x18(%rbp)
  1020bc:	48 89 75 f0          	mov    %rsi,-0x10(%rbp)
  1020c0:	48 8b 45 e8          	mov    -0x18(%rbp),%rax
  1020c4:	48 8b 4d f0          	mov    -0x10(%rbp),%rcx
  1020c8:	48 89 45 d8          	mov    %rax,-0x28(%rbp)
  1020cc:	48 89 4d e0          	mov    %rcx,-0x20(%rbp)
  1020d0:	48 8b 45 d8          	mov    -0x28(%rbp),%rax
  1020d4:	48 89 45 d0          	mov    %rax,-0x30(%rbp)
  1020d8:	48 8b 45 d0          	mov    -0x30(%rbp),%rax
  1020dc:	48 83 c4 30          	add    $0x30,%rsp
  1020e0:	5d                   	pop    %rbp
  1020e1:	c3                   	retq   
  1020e2:	66 2e 0f 1f 84 00 00 	nopw   %cs:0x0(%rax,%rax,1)
  1020e9:	00 00 00 
  1020ec:	0f 1f 40 00          	nopl   0x0(%rax)

00000000001020f0 <_ZN53_$LT$$u5b$T$u5d$$u20$as$u20$core..slice..SliceExt$GT$6as_ptr17hd271017da618ecc1E>:
  1020f0:	55                   	push   %rbp
  1020f1:	48 89 e5             	mov    %rsp,%rbp
  1020f4:	48 83 ec 30          	sub    $0x30,%rsp
  1020f8:	48 89 7d e8          	mov    %rdi,-0x18(%rbp)
  1020fc:	48 89 75 f0          	mov    %rsi,-0x10(%rbp)
  102100:	48 8b 45 e8          	mov    -0x18(%rbp),%rax
  102104:	48 8b 4d f0          	mov    -0x10(%rbp),%rcx
  102108:	48 89 45 d8          	mov    %rax,-0x28(%rbp)
  10210c:	48 89 4d e0          	mov    %rcx,-0x20(%rbp)
  102110:	48 8b 45 d8          	mov    -0x28(%rbp),%rax
  102114:	48 89 45 d0          	mov    %rax,-0x30(%rbp)
  102118:	48 8b 45 d0          	mov    -0x30(%rbp),%rax
  10211c:	48 83 c4 30          	add    $0x30,%rsp
  102120:	5d                   	pop    %rbp
  102121:	c3                   	retq   
  102122:	66 2e 0f 1f 84 00 00 	nopw   %cs:0x0(%rax,%rax,1)
  102129:	00 00 00 
  10212c:	0f 1f 40 00          	nopl   0x0(%rax)

0000000000102130 <_ZN53_$LT$core..option..Option$LT$$RF$$u27$a$u20$T$GT$$GT$6cloned17h4aa7c59a29afc9d7E>:
  102130:	55                   	push   %rbp
  102131:	48 89 e5             	mov    %rsp,%rbp
  102134:	48 83 ec 40          	sub    $0x40,%rsp
  102138:	48 89 7d f0          	mov    %rdi,-0x10(%rbp)
  10213c:	48 8b 45 f0          	mov    -0x10(%rbp),%rax
  102140:	48 89 45 e8          	mov    %rax,-0x18(%rbp)
  102144:	48 8b 45 e8          	mov    -0x18(%rbp),%rax
  102148:	48 89 45 e0          	mov    %rax,-0x20(%rbp)
  10214c:	48 8b 7d e0          	mov    -0x20(%rbp),%rdi
  102150:	e8 fb e3 ff ff       	callq  100550 <_ZN38_$LT$core..option..Option$LT$T$GT$$GT$3map17h7db3fffd5b1d18a3E>
  102155:	66 89 45 ce          	mov    %ax,-0x32(%rbp)
  102159:	66 8b 45 ce          	mov    -0x32(%rbp),%ax
  10215d:	66 89 45 d0          	mov    %ax,-0x30(%rbp)
  102161:	66 8b 45 d0          	mov    -0x30(%rbp),%ax
  102165:	48 83 c4 40          	add    $0x40,%rsp
  102169:	5d                   	pop    %rbp
  10216a:	c3                   	retq   
  10216b:	0f 1f 44 00 00       	nopl   0x0(%rax,%rax,1)

0000000000102170 <_ZN54_$LT$I$u20$as$u20$core..iter..traits..IntoIterator$GT$9into_iter17h14326a507c39824aE>:
  102170:	55                   	push   %rbp
  102171:	48 89 e5             	mov    %rsp,%rbp
  102174:	48 83 ec 58          	sub    $0x58,%rsp
  102178:	48 89 f8             	mov    %rdi,%rax
  10217b:	48 8b 0e             	mov    (%rsi),%rcx
  10217e:	48 89 4d e8          	mov    %rcx,-0x18(%rbp)
  102182:	48 8b 4e 08          	mov    0x8(%rsi),%rcx
  102186:	48 89 4d f0          	mov    %rcx,-0x10(%rbp)
  10218a:	48 8b 4e 10          	mov    0x10(%rsi),%rcx
  10218e:	48 89 4d f8          	mov    %rcx,-0x8(%rbp)
  102192:	48 89 45 b0          	mov    %rax,-0x50(%rbp)
  102196:	48 89 7d a8          	mov    %rdi,-0x58(%rbp)
  10219a:	48 8b 45 e8          	mov    -0x18(%rbp),%rax
  10219e:	48 89 45 d0          	mov    %rax,-0x30(%rbp)
  1021a2:	48 8b 45 f0          	mov    -0x10(%rbp),%rax
  1021a6:	48 89 45 d8          	mov    %rax,-0x28(%rbp)
  1021aa:	48 8b 45 f8          	mov    -0x8(%rbp),%rax
  1021ae:	48 89 45 e0          	mov    %rax,-0x20(%rbp)
  1021b2:	48 8b 45 d0          	mov    -0x30(%rbp),%rax
  1021b6:	48 89 45 b8          	mov    %rax,-0x48(%rbp)
  1021ba:	48 8b 45 d8          	mov    -0x28(%rbp),%rax
  1021be:	48 89 45 c0          	mov    %rax,-0x40(%rbp)
  1021c2:	48 8b 45 e0          	mov    -0x20(%rbp),%rax
  1021c6:	48 89 45 c8          	mov    %rax,-0x38(%rbp)
  1021ca:	48 8b 45 b8          	mov    -0x48(%rbp),%rax
  1021ce:	48 8b 4d a8          	mov    -0x58(%rbp),%rcx
  1021d2:	48 89 01             	mov    %rax,(%rcx)
  1021d5:	48 8b 45 c0          	mov    -0x40(%rbp),%rax
  1021d9:	48 89 41 08          	mov    %rax,0x8(%rcx)
  1021dd:	48 8b 45 c8          	mov    -0x38(%rbp),%rax
  1021e1:	48 89 41 10          	mov    %rax,0x10(%rcx)
  1021e5:	eb 00                	jmp    1021e7 <_ZN54_$LT$I$u20$as$u20$core..iter..traits..IntoIterator$GT$9into_iter17h14326a507c39824aE+0x77>
  1021e7:	48 8b 45 b0          	mov    -0x50(%rbp),%rax
  1021eb:	48 83 c4 58          	add    $0x58,%rsp
  1021ef:	5d                   	pop    %rbp
  1021f0:	c3                   	retq   
  1021f1:	66 2e 0f 1f 84 00 00 	nopw   %cs:0x0(%rax,%rax,1)
  1021f8:	00 00 00 
  1021fb:	0f 1f 44 00 00       	nopl   0x0(%rax,%rax,1)

0000000000102200 <_ZN54_$LT$I$u20$as$u20$core..iter..traits..IntoIterator$GT$9into_iter17h53db3a2c15f917efE>:
  102200:	55                   	push   %rbp
  102201:	48 89 e5             	mov    %rsp,%rbp
  102204:	48 83 ec 58          	sub    $0x58,%rsp
  102208:	48 89 f8             	mov    %rdi,%rax
  10220b:	48 8b 0e             	mov    (%rsi),%rcx
  10220e:	48 89 4d e8          	mov    %rcx,-0x18(%rbp)
  102212:	48 8b 4e 08          	mov    0x8(%rsi),%rcx
  102216:	48 89 4d f0          	mov    %rcx,-0x10(%rbp)
  10221a:	48 8b 4e 10          	mov    0x10(%rsi),%rcx
  10221e:	48 89 4d f8          	mov    %rcx,-0x8(%rbp)
  102222:	48 89 45 b0          	mov    %rax,-0x50(%rbp)
  102226:	48 89 7d a8          	mov    %rdi,-0x58(%rbp)
  10222a:	48 8b 45 e8          	mov    -0x18(%rbp),%rax
  10222e:	48 89 45 d0          	mov    %rax,-0x30(%rbp)
  102232:	48 8b 45 f0          	mov    -0x10(%rbp),%rax
  102236:	48 89 45 d8          	mov    %rax,-0x28(%rbp)
  10223a:	48 8b 45 f8          	mov    -0x8(%rbp),%rax
  10223e:	48 89 45 e0          	mov    %rax,-0x20(%rbp)
  102242:	48 8b 45 d0          	mov    -0x30(%rbp),%rax
  102246:	48 89 45 b8          	mov    %rax,-0x48(%rbp)
  10224a:	48 8b 45 d8          	mov    -0x28(%rbp),%rax
  10224e:	48 89 45 c0          	mov    %rax,-0x40(%rbp)
  102252:	48 8b 45 e0          	mov    -0x20(%rbp),%rax
  102256:	48 89 45 c8          	mov    %rax,-0x38(%rbp)
  10225a:	48 8b 45 b8          	mov    -0x48(%rbp),%rax
  10225e:	48 8b 4d a8          	mov    -0x58(%rbp),%rcx
  102262:	48 89 01             	mov    %rax,(%rcx)
  102265:	48 8b 45 c0          	mov    -0x40(%rbp),%rax
  102269:	48 89 41 08          	mov    %rax,0x8(%rcx)
  10226d:	48 8b 45 c8          	mov    -0x38(%rbp),%rax
  102271:	48 89 41 10          	mov    %rax,0x10(%rcx)
  102275:	eb 00                	jmp    102277 <_ZN54_$LT$I$u20$as$u20$core..iter..traits..IntoIterator$GT$9into_iter17h53db3a2c15f917efE+0x77>
  102277:	48 8b 45 b0          	mov    -0x50(%rbp),%rax
  10227b:	48 83 c4 58          	add    $0x58,%rsp
  10227f:	5d                   	pop    %rbp
  102280:	c3                   	retq   
  102281:	66 2e 0f 1f 84 00 00 	nopw   %cs:0x0(%rax,%rax,1)
  102288:	00 00 00 
  10228b:	0f 1f 44 00 00       	nopl   0x0(%rax,%rax,1)

0000000000102290 <_ZN54_$LT$I$u20$as$u20$core..iter..traits..IntoIterator$GT$9into_iter17h593a8b7b125c6a4eE>:
  102290:	55                   	push   %rbp
  102291:	48 89 e5             	mov    %rsp,%rbp
  102294:	48 83 ec 30          	sub    $0x30,%rsp
  102298:	48 89 f8             	mov    %rdi,%rax
  10229b:	48 8b 0e             	mov    (%rsi),%rcx
  10229e:	48 89 4d f0          	mov    %rcx,-0x10(%rbp)
  1022a2:	48 8b 4e 08          	mov    0x8(%rsi),%rcx
  1022a6:	48 89 4d f8          	mov    %rcx,-0x8(%rbp)
  1022aa:	48 89 45 d8          	mov    %rax,-0x28(%rbp)
  1022ae:	48 89 7d d0          	mov    %rdi,-0x30(%rbp)
  1022b2:	48 8b 45 f0          	mov    -0x10(%rbp),%rax
  1022b6:	48 8b 4d f8          	mov    -0x8(%rbp),%rcx
  1022ba:	48 89 45 e0          	mov    %rax,-0x20(%rbp)
  1022be:	48 89 4d e8          	mov    %rcx,-0x18(%rbp)
  1022c2:	48 8b 45 e0          	mov    -0x20(%rbp),%rax
  1022c6:	48 8b 4d e8          	mov    -0x18(%rbp),%rcx
  1022ca:	48 8b 55 d0          	mov    -0x30(%rbp),%rdx
  1022ce:	48 89 02             	mov    %rax,(%rdx)
  1022d1:	48 89 4a 08          	mov    %rcx,0x8(%rdx)
  1022d5:	eb 00                	jmp    1022d7 <_ZN54_$LT$I$u20$as$u20$core..iter..traits..IntoIterator$GT$9into_iter17h593a8b7b125c6a4eE+0x47>
  1022d7:	48 8b 45 d8          	mov    -0x28(%rbp),%rax
  1022db:	48 83 c4 30          	add    $0x30,%rsp
  1022df:	5d                   	pop    %rbp
  1022e0:	c3                   	retq   
  1022e1:	66 2e 0f 1f 84 00 00 	nopw   %cs:0x0(%rax,%rax,1)
  1022e8:	00 00 00 
  1022eb:	0f 1f 44 00 00       	nopl   0x0(%rax,%rax,1)

00000000001022f0 <_ZN54_$LT$I$u20$as$u20$core..iter..traits..IntoIterator$GT$9into_iter17h75a0b3358fb33d61E>:
  1022f0:	55                   	push   %rbp
  1022f1:	48 89 e5             	mov    %rsp,%rbp
  1022f4:	48 83 ec 40          	sub    $0x40,%rsp
  1022f8:	48 89 f8             	mov    %rdi,%rax
  1022fb:	48 8b 0e             	mov    (%rsi),%rcx
  1022fe:	48 89 4d f0          	mov    %rcx,-0x10(%rbp)
  102302:	48 8b 4e 08          	mov    0x8(%rsi),%rcx
  102306:	48 89 4d f8          	mov    %rcx,-0x8(%rbp)
  10230a:	48 89 45 c8          	mov    %rax,-0x38(%rbp)
  10230e:	48 89 7d c0          	mov    %rdi,-0x40(%rbp)
  102312:	48 8b 45 f0          	mov    -0x10(%rbp),%rax
  102316:	48 89 45 e0          	mov    %rax,-0x20(%rbp)
  10231a:	48 8b 45 f8          	mov    -0x8(%rbp),%rax
  10231e:	48 89 45 e8          	mov    %rax,-0x18(%rbp)
  102322:	48 8b 45 e0          	mov    -0x20(%rbp),%rax
  102326:	48 89 45 d0          	mov    %rax,-0x30(%rbp)
  10232a:	48 8b 45 e8          	mov    -0x18(%rbp),%rax
  10232e:	48 89 45 d8          	mov    %rax,-0x28(%rbp)
  102332:	48 8b 45 d0          	mov    -0x30(%rbp),%rax
  102336:	48 8b 4d c0          	mov    -0x40(%rbp),%rcx
  10233a:	48 89 01             	mov    %rax,(%rcx)
  10233d:	48 8b 45 d8          	mov    -0x28(%rbp),%rax
  102341:	48 89 41 08          	mov    %rax,0x8(%rcx)
  102345:	eb 00                	jmp    102347 <_ZN54_$LT$I$u20$as$u20$core..iter..traits..IntoIterator$GT$9into_iter17h75a0b3358fb33d61E+0x57>
  102347:	48 8b 45 c8          	mov    -0x38(%rbp),%rax
  10234b:	48 83 c4 40          	add    $0x40,%rsp
  10234f:	5d                   	pop    %rbp
  102350:	c3                   	retq   
  102351:	66 2e 0f 1f 84 00 00 	nopw   %cs:0x0(%rax,%rax,1)
  102358:	00 00 00 
  10235b:	0f 1f 44 00 00       	nopl   0x0(%rax,%rax,1)

0000000000102360 <_ZN54_$LT$I$u20$as$u20$core..iter..traits..IntoIterator$GT$9into_iter17h9696a253119527c4E>:
  102360:	55                   	push   %rbp
  102361:	48 89 e5             	mov    %rsp,%rbp
  102364:	48 83 ec 40          	sub    $0x40,%rsp
  102368:	48 89 f8             	mov    %rdi,%rax
  10236b:	48 8b 0e             	mov    (%rsi),%rcx
  10236e:	48 89 4d f0          	mov    %rcx,-0x10(%rbp)
  102372:	48 8b 4e 08          	mov    0x8(%rsi),%rcx
  102376:	48 89 4d f8          	mov    %rcx,-0x8(%rbp)
  10237a:	48 89 45 c8          	mov    %rax,-0x38(%rbp)
  10237e:	48 89 7d c0          	mov    %rdi,-0x40(%rbp)
  102382:	48 8b 45 f0          	mov    -0x10(%rbp),%rax
  102386:	48 89 45 e0          	mov    %rax,-0x20(%rbp)
  10238a:	48 8b 45 f8          	mov    -0x8(%rbp),%rax
  10238e:	48 89 45 e8          	mov    %rax,-0x18(%rbp)
  102392:	48 8b 45 e0          	mov    -0x20(%rbp),%rax
  102396:	48 89 45 d0          	mov    %rax,-0x30(%rbp)
  10239a:	48 8b 45 e8          	mov    -0x18(%rbp),%rax
  10239e:	48 89 45 d8          	mov    %rax,-0x28(%rbp)
  1023a2:	48 8b 45 d0          	mov    -0x30(%rbp),%rax
  1023a6:	48 8b 4d c0          	mov    -0x40(%rbp),%rcx
  1023aa:	48 89 01             	mov    %rax,(%rcx)
  1023ad:	48 8b 45 d8          	mov    -0x28(%rbp),%rax
  1023b1:	48 89 41 08          	mov    %rax,0x8(%rcx)
  1023b5:	eb 00                	jmp    1023b7 <_ZN54_$LT$I$u20$as$u20$core..iter..traits..IntoIterator$GT$9into_iter17h9696a253119527c4E+0x57>
  1023b7:	48 8b 45 c8          	mov    -0x38(%rbp),%rax
  1023bb:	48 83 c4 40          	add    $0x40,%rsp
  1023bf:	5d                   	pop    %rbp
  1023c0:	c3                   	retq   
  1023c1:	66 2e 0f 1f 84 00 00 	nopw   %cs:0x0(%rax,%rax,1)
  1023c8:	00 00 00 
  1023cb:	0f 1f 44 00 00       	nopl   0x0(%rax,%rax,1)

00000000001023d0 <_ZN55_$LT$$RF$$u27$a$u20$T$u20$as$u20$core..fmt..Display$GT$3fmt17hd58574be7c4db377E>:
  1023d0:	55                   	push   %rbp
  1023d1:	48 89 e5             	mov    %rsp,%rbp
  1023d4:	48 83 ec 40          	sub    $0x40,%rsp
  1023d8:	48 89 7d f0          	mov    %rdi,-0x10(%rbp)
  1023dc:	48 89 75 e8          	mov    %rsi,-0x18(%rbp)
  1023e0:	48 8b 45 f0          	mov    -0x10(%rbp),%rax
  1023e4:	48 89 45 e0          	mov    %rax,-0x20(%rbp)
  1023e8:	48 8b 45 e8          	mov    -0x18(%rbp),%rax
  1023ec:	48 89 45 d8          	mov    %rax,-0x28(%rbp)
  1023f0:	48 8b 45 e0          	mov    -0x20(%rbp),%rax
  1023f4:	48 8b 38             	mov    (%rax),%rdi
  1023f7:	48 8b 70 08          	mov    0x8(%rax),%rsi
  1023fb:	48 8b 55 d8          	mov    -0x28(%rbp),%rdx
  1023ff:	e8 8c c3 00 00       	callq  10e790 <_ZN42_$LT$str$u20$as$u20$core..fmt..Display$GT$3fmt17h5941eedd92b10712E>
  102404:	88 45 cf             	mov    %al,-0x31(%rbp)
  102407:	8a 45 cf             	mov    -0x31(%rbp),%al
  10240a:	88 45 d0             	mov    %al,-0x30(%rbp)
  10240d:	8a 45 d0             	mov    -0x30(%rbp),%al
  102410:	48 83 c4 40          	add    $0x40,%rsp
  102414:	5d                   	pop    %rbp
  102415:	c3                   	retq   
  102416:	66 2e 0f 1f 84 00 00 	nopw   %cs:0x0(%rax,%rax,1)
  10241d:	00 00 00 

0000000000102420 <_ZN63_$LT$core..ptr..Unique$LT$T$GT$$u20$as$u20$core..ops..Deref$GT$5deref17h6843bb1cf0c52deeE>:
  102420:	55                   	push   %rbp
  102421:	48 89 e5             	mov    %rsp,%rbp
  102424:	48 83 ec 30          	sub    $0x30,%rsp
  102428:	48 89 7d f0          	mov    %rdi,-0x10(%rbp)
  10242c:	48 8b 45 f0          	mov    -0x10(%rbp),%rax
  102430:	48 89 45 e8          	mov    %rax,-0x18(%rbp)
  102434:	48 8b 7d e8          	mov    -0x18(%rbp),%rdi
  102438:	e8 23 00 00 00       	callq  102460 <_ZN68_$LT$core..nonzero..NonZero$LT$T$GT$$u20$as$u20$core..ops..Deref$GT$5deref17he596cd930aa2aa83E>
  10243d:	48 89 45 d8          	mov    %rax,-0x28(%rbp)
  102441:	48 8b 45 d8          	mov    -0x28(%rbp),%rax
  102445:	48 89 45 e0          	mov    %rax,-0x20(%rbp)
  102449:	48 8b 45 e0          	mov    -0x20(%rbp),%rax
  10244d:	48 89 45 d0          	mov    %rax,-0x30(%rbp)
  102451:	48 8b 45 d0          	mov    -0x30(%rbp),%rax
  102455:	48 83 c4 30          	add    $0x30,%rsp
  102459:	5d                   	pop    %rbp
  10245a:	c3                   	retq   
  10245b:	0f 1f 44 00 00       	nopl   0x0(%rax,%rax,1)

0000000000102460 <_ZN68_$LT$core..nonzero..NonZero$LT$T$GT$$u20$as$u20$core..ops..Deref$GT$5deref17he596cd930aa2aa83E>:
  102460:	55                   	push   %rbp
  102461:	48 89 e5             	mov    %rsp,%rbp
  102464:	48 83 ec 28          	sub    $0x28,%rsp
  102468:	48 89 7d f0          	mov    %rdi,-0x10(%rbp)
  10246c:	48 8b 45 f0          	mov    -0x10(%rbp),%rax
  102470:	48 89 45 e8          	mov    %rax,-0x18(%rbp)
  102474:	48 8b 45 e8          	mov    -0x18(%rbp),%rax
  102478:	48 89 45 e0          	mov    %rax,-0x20(%rbp)
  10247c:	48 8b 45 e0          	mov    -0x20(%rbp),%rax
  102480:	48 89 45 d8          	mov    %rax,-0x28(%rbp)
  102484:	48 8b 45 d8          	mov    -0x28(%rbp),%rax
  102488:	48 83 c4 28          	add    $0x28,%rsp
  10248c:	5d                   	pop    %rbp
  10248d:	c3                   	retq   
  10248e:	66 90                	xchg   %ax,%ax

0000000000102490 <_ZN78_$LT$core..iter..Cloned$LT$I$GT$$u20$as$u20$core..iter..iterator..Iterator$GT$4next17h46fea06d7563c006E>:
  102490:	55                   	push   %rbp
  102491:	48 89 e5             	mov    %rsp,%rbp
  102494:	48 83 ec 30          	sub    $0x30,%rsp
  102498:	48 89 7d f0          	mov    %rdi,-0x10(%rbp)
  10249c:	48 8b 45 f0          	mov    -0x10(%rbp),%rax
  1024a0:	48 89 45 e8          	mov    %rax,-0x18(%rbp)
  1024a4:	48 8b 7d e8          	mov    -0x18(%rbp),%rdi
  1024a8:	e8 83 01 00 00       	callq  102630 <_ZN91_$LT$core..slice..Iter$LT$$u27$a$C$$u20$T$GT$$u20$as$u20$core..iter..iterator..Iterator$GT$4next17hb807db09338a51f9E>
  1024ad:	48 89 45 e0          	mov    %rax,-0x20(%rbp)
  1024b1:	48 8b 7d e0          	mov    -0x20(%rbp),%rdi
  1024b5:	e8 76 fc ff ff       	callq  102130 <_ZN53_$LT$core..option..Option$LT$$RF$$u27$a$u20$T$GT$$GT$6cloned17h4aa7c59a29afc9d7E>
  1024ba:	66 89 45 d6          	mov    %ax,-0x2a(%rbp)
  1024be:	66 8b 45 d6          	mov    -0x2a(%rbp),%ax
  1024c2:	66 89 45 d8          	mov    %ax,-0x28(%rbp)
  1024c6:	66 8b 45 d8          	mov    -0x28(%rbp),%ax
  1024ca:	48 83 c4 30          	add    $0x30,%rsp
  1024ce:	5d                   	pop    %rbp
  1024cf:	c3                   	retq   

00000000001024d0 <_ZN81_$LT$core..iter..Enumerate$LT$I$GT$$u20$as$u20$core..iter..iterator..Iterator$GT$4next17h794357da714bce54E>:
  1024d0:	55                   	push   %rbp
  1024d1:	48 89 e5             	mov    %rsp,%rbp
  1024d4:	48 83 ec 40          	sub    $0x40,%rsp
  1024d8:	48 89 f8             	mov    %rdi,%rax
  1024db:	48 89 75 f8          	mov    %rsi,-0x8(%rbp)
  1024df:	48 89 45 d0          	mov    %rax,-0x30(%rbp)
  1024e3:	48 89 7d c8          	mov    %rdi,-0x38(%rbp)
  1024e7:	48 8b 45 f8          	mov    -0x8(%rbp),%rax
  1024eb:	48 89 45 f0          	mov    %rax,-0x10(%rbp)
  1024ef:	48 8b 7d f0          	mov    -0x10(%rbp),%rdi
  1024f3:	e8 38 01 00 00       	callq  102630 <_ZN91_$LT$core..slice..Iter$LT$$u27$a$C$$u20$T$GT$$u20$as$u20$core..iter..iterator..Iterator$GT$4next17hb807db09338a51f9E>
  1024f8:	48 89 45 e8          	mov    %rax,-0x18(%rbp)
  1024fc:	48 8d 45 f0          	lea    -0x10(%rbp),%rax
  102500:	48 89 45 e0          	mov    %rax,-0x20(%rbp)
  102504:	48 8b 75 e8          	mov    -0x18(%rbp),%rsi
  102508:	48 89 45 d8          	mov    %rax,-0x28(%rbp)
  10250c:	48 8b 55 d8          	mov    -0x28(%rbp),%rdx
  102510:	48 8b 7d c8          	mov    -0x38(%rbp),%rdi
  102514:	e8 17 df ff ff       	callq  100430 <_ZN38_$LT$core..option..Option$LT$T$GT$$GT$3map17h3f4d6bfb797995ebE>
  102519:	48 8b 45 d0          	mov    -0x30(%rbp),%rax
  10251d:	48 83 c4 40          	add    $0x40,%rsp
  102521:	5d                   	pop    %rbp
  102522:	c3                   	retq   
  102523:	66 2e 0f 1f 84 00 00 	nopw   %cs:0x0(%rax,%rax,1)
  10252a:	00 00 00 
  10252d:	0f 1f 00             	nopl   (%rax)

0000000000102530 <_ZN81_$LT$core..str..Bytes$LT$$u27$a$GT$$u20$as$u20$core..iter..iterator..Iterator$GT$4next17h64d892166b3681e0E>:
  102530:	55                   	push   %rbp
  102531:	48 89 e5             	mov    %rsp,%rbp
  102534:	48 83 ec 30          	sub    $0x30,%rsp
  102538:	48 89 7d f0          	mov    %rdi,-0x10(%rbp)
  10253c:	48 8b 45 f0          	mov    -0x10(%rbp),%rax
  102540:	48 89 45 e8          	mov    %rax,-0x18(%rbp)
  102544:	48 8b 7d e8          	mov    -0x18(%rbp),%rdi
  102548:	e8 43 ff ff ff       	callq  102490 <_ZN78_$LT$core..iter..Cloned$LT$I$GT$$u20$as$u20$core..iter..iterator..Iterator$GT$4next17h46fea06d7563c006E>
  10254d:	66 89 45 de          	mov    %ax,-0x22(%rbp)
  102551:	66 8b 45 de          	mov    -0x22(%rbp),%ax
  102555:	66 89 45 e0          	mov    %ax,-0x20(%rbp)
  102559:	66 8b 45 e0          	mov    -0x20(%rbp),%ax
  10255d:	48 83 c4 30          	add    $0x30,%rsp
  102561:	5d                   	pop    %rbp
  102562:	c3                   	retq   
  102563:	66 2e 0f 1f 84 00 00 	nopw   %cs:0x0(%rax,%rax,1)
  10256a:	00 00 00 
  10256d:	0f 1f 00             	nopl   (%rax)

0000000000102570 <_ZN82_$LT$spin..mutex..MutexGuard$LT$$u27$a$C$$u20$T$GT$$u20$as$u20$core..ops..Drop$GT$4drop17hb679972316a29187E>:
  102570:	55                   	push   %rbp
  102571:	48 89 e5             	mov    %rsp,%rbp
  102574:	48 83 ec 20          	sub    $0x20,%rsp
  102578:	48 89 7d f8          	mov    %rdi,-0x8(%rbp)
  10257c:	31 f6                	xor    %esi,%esi
  10257e:	48 8b 45 f8          	mov    -0x8(%rbp),%rax
  102582:	48 89 45 f0          	mov    %rax,-0x10(%rbp)
  102586:	48 8b 45 f0          	mov    -0x10(%rbp),%rax
  10258a:	48 8b 38             	mov    (%rax),%rdi
  10258d:	c6 45 ef 04          	movb   $0x4,-0x11(%rbp)
  102591:	0f b6 55 ef          	movzbl -0x11(%rbp),%edx
  102595:	e8 16 f0 ff ff       	callq  1015b0 <_ZN4core4sync6atomic10AtomicBool5store17h62776a058076a6cbE>
  10259a:	48 83 c4 20          	add    $0x20,%rsp
  10259e:	5d                   	pop    %rbp
  10259f:	c3                   	retq   

00000000001025a0 <_ZN82_$LT$spin..mutex..MutexGuard$LT$$u27$a$C$$u20$T$GT$$u20$as$u20$core..ops..Drop$GT$4drop17hf361d94432bc7072E>:
  1025a0:	55                   	push   %rbp
  1025a1:	48 89 e5             	mov    %rsp,%rbp
  1025a4:	48 83 ec 20          	sub    $0x20,%rsp
  1025a8:	48 89 7d f8          	mov    %rdi,-0x8(%rbp)
  1025ac:	31 f6                	xor    %esi,%esi
  1025ae:	48 8b 45 f8          	mov    -0x8(%rbp),%rax
  1025b2:	48 89 45 f0          	mov    %rax,-0x10(%rbp)
  1025b6:	48 8b 45 f0          	mov    -0x10(%rbp),%rax
  1025ba:	48 8b 38             	mov    (%rax),%rdi
  1025bd:	c6 45 ef 04          	movb   $0x4,-0x11(%rbp)
  1025c1:	0f b6 55 ef          	movzbl -0x11(%rbp),%edx
  1025c5:	e8 e6 ef ff ff       	callq  1015b0 <_ZN4core4sync6atomic10AtomicBool5store17h62776a058076a6cbE>
  1025ca:	48 83 c4 20          	add    $0x20,%rsp
  1025ce:	5d                   	pop    %rbp
  1025cf:	c3                   	retq   

00000000001025d0 <_ZN86_$LT$spin..mutex..MutexGuard$LT$$u27$a$C$$u20$T$GT$$u20$as$u20$core..ops..DerefMut$GT$9deref_mut17h9014bcbc5dcd09afE>:
  1025d0:	55                   	push   %rbp
  1025d1:	48 89 e5             	mov    %rsp,%rbp
  1025d4:	48 83 ec 20          	sub    $0x20,%rsp
  1025d8:	48 89 7d f0          	mov    %rdi,-0x10(%rbp)
  1025dc:	48 8b 45 f0          	mov    -0x10(%rbp),%rax
  1025e0:	48 89 45 e8          	mov    %rax,-0x18(%rbp)
  1025e4:	48 8b 45 e8          	mov    -0x18(%rbp),%rax
  1025e8:	48 8b 40 08          	mov    0x8(%rax),%rax
  1025ec:	48 89 45 e0          	mov    %rax,-0x20(%rbp)
  1025f0:	48 8b 45 e0          	mov    -0x20(%rbp),%rax
  1025f4:	48 83 c4 20          	add    $0x20,%rsp
  1025f8:	5d                   	pop    %rbp
  1025f9:	c3                   	retq   
  1025fa:	66 0f 1f 44 00 00    	nopw   0x0(%rax,%rax,1)

0000000000102600 <_ZN86_$LT$spin..mutex..MutexGuard$LT$$u27$a$C$$u20$T$GT$$u20$as$u20$core..ops..DerefMut$GT$9deref_mut17hf8b70cff835405b4E>:
  102600:	55                   	push   %rbp
  102601:	48 89 e5             	mov    %rsp,%rbp
  102604:	48 83 ec 20          	sub    $0x20,%rsp
  102608:	48 89 7d f0          	mov    %rdi,-0x10(%rbp)
  10260c:	48 8b 45 f0          	mov    -0x10(%rbp),%rax
  102610:	48 89 45 e8          	mov    %rax,-0x18(%rbp)
  102614:	48 8b 45 e8          	mov    -0x18(%rbp),%rax
  102618:	48 8b 40 08          	mov    0x8(%rax),%rax
  10261c:	48 89 45 e0          	mov    %rax,-0x20(%rbp)
  102620:	48 8b 45 e0          	mov    -0x20(%rbp),%rax
  102624:	48 83 c4 20          	add    $0x20,%rsp
  102628:	5d                   	pop    %rbp
  102629:	c3                   	retq   
  10262a:	66 0f 1f 44 00 00    	nopw   0x0(%rax,%rax,1)

0000000000102630 <_ZN91_$LT$core..slice..Iter$LT$$u27$a$C$$u20$T$GT$$u20$as$u20$core..iter..iterator..Iterator$GT$4next17hb807db09338a51f9E>:
  102630:	55                   	push   %rbp
  102631:	48 89 e5             	mov    %rsp,%rbp
  102634:	48 81 ec 90 00 00 00 	sub    $0x90,%rsp
  10263b:	48 89 7d e0          	mov    %rdi,-0x20(%rbp)
  10263f:	48 8b 45 e0          	mov    -0x20(%rbp),%rax
  102643:	48 89 45 d8          	mov    %rax,-0x28(%rbp)
  102647:	e8 94 ea ff ff       	callq  1010e0 <_ZN4core3mem7size_of17hb7c38d54091f1b39E>
  10264c:	48 89 45 90          	mov    %rax,-0x70(%rbp)
  102650:	48 8b 45 90          	mov    -0x70(%rbp),%rax
  102654:	48 83 f8 00          	cmp    $0x0,%rax
  102658:	74 11                	je     10266b <_ZN91_$LT$core..slice..Iter$LT$$u27$a$C$$u20$T$GT$$u20$as$u20$core..iter..iterator..Iterator$GT$4next17hb807db09338a51f9E+0x3b>
  10265a:	48 8b 45 d8          	mov    -0x28(%rbp),%rax
  10265e:	48 8b 38             	mov    (%rax),%rdi
  102661:	e8 7a eb ff ff       	callq  1011e0 <_ZN4core3ptr33_$LT$impl$u20$$BP$const$u20$T$GT$7is_null17h99216fd405cc08a2E>
  102666:	88 45 8f             	mov    %al,-0x71(%rbp)
  102669:	eb 02                	jmp    10266d <_ZN91_$LT$core..slice..Iter$LT$$u27$a$C$$u20$T$GT$$u20$as$u20$core..iter..iterator..Iterator$GT$4next17hb807db09338a51f9E+0x3d>
  10266b:	eb 12                	jmp    10267f <_ZN91_$LT$core..slice..Iter$LT$$u27$a$C$$u20$T$GT$$u20$as$u20$core..iter..iterator..Iterator$GT$4next17hb807db09338a51f9E+0x4f>
  10266d:	48 8b 45 d8          	mov    -0x28(%rbp),%rax
  102671:	48 8b 78 08          	mov    0x8(%rax),%rdi
  102675:	e8 66 eb ff ff       	callq  1011e0 <_ZN4core3ptr33_$LT$impl$u20$$BP$const$u20$T$GT$7is_null17h99216fd405cc08a2E>
  10267a:	88 45 8e             	mov    %al,-0x72(%rbp)
  10267d:	eb 00                	jmp    10267f <_ZN91_$LT$core..slice..Iter$LT$$u27$a$C$$u20$T$GT$$u20$as$u20$core..iter..iterator..Iterator$GT$4next17hb807db09338a51f9E+0x4f>
  10267f:	48 8b 45 d8          	mov    -0x28(%rbp),%rax
  102683:	48 8b 00             	mov    (%rax),%rax
  102686:	48 8b 4d d8          	mov    -0x28(%rbp),%rcx
  10268a:	48 3b 41 08          	cmp    0x8(%rcx),%rax
  10268e:	75 0d                	jne    10269d <_ZN91_$LT$core..slice..Iter$LT$$u27$a$C$$u20$T$GT$$u20$as$u20$core..iter..iterator..Iterator$GT$4next17hb807db09338a51f9E+0x6d>
  102690:	48 c7 45 a0 00 00 00 	movq   $0x0,-0x60(%rbp)
  102697:	00 
  102698:	e9 bc 00 00 00       	jmpq   102759 <_ZN91_$LT$core..slice..Iter$LT$$u27$a$C$$u20$T$GT$$u20$as$u20$core..iter..iterator..Iterator$GT$4next17hb807db09338a51f9E+0x129>
  10269d:	48 8b 45 d8          	mov    -0x28(%rbp),%rax
  1026a1:	48 8b 00             	mov    (%rax),%rax
  1026a4:	48 89 45 d0          	mov    %rax,-0x30(%rbp)
  1026a8:	48 8b 45 d8          	mov    -0x28(%rbp),%rax
  1026ac:	48 8b 00             	mov    (%rax),%rax
  1026af:	48 89 45 c8          	mov    %rax,-0x38(%rbp)
  1026b3:	48 8b 45 c8          	mov    -0x38(%rbp),%rax
  1026b7:	48 89 45 f0          	mov    %rax,-0x10(%rbp)
  1026bb:	e8 20 ea ff ff       	callq  1010e0 <_ZN4core3mem7size_of17hb7c38d54091f1b39E>
  1026c0:	48 89 45 80          	mov    %rax,-0x80(%rbp)
  1026c4:	48 8b 45 80          	mov    -0x80(%rbp),%rax
  1026c8:	48 83 f8 00          	cmp    $0x0,%rax
  1026cc:	75 19                	jne    1026e7 <_ZN91_$LT$core..slice..Iter$LT$$u27$a$C$$u20$T$GT$$u20$as$u20$core..iter..iterator..Iterator$GT$4next17hb807db09338a51f9E+0xb7>
  1026ce:	48 8b 45 c8          	mov    -0x38(%rbp),%rax
  1026d2:	48 83 c0 01          	add    $0x1,%rax
  1026d6:	48 89 45 98          	mov    %rax,-0x68(%rbp)
  1026da:	48 8b 45 98          	mov    -0x68(%rbp),%rax
  1026de:	48 89 85 78 ff ff ff 	mov    %rax,-0x88(%rbp)
  1026e5:	eb 16                	jmp    1026fd <_ZN91_$LT$core..slice..Iter$LT$$u27$a$C$$u20$T$GT$$u20$as$u20$core..iter..iterator..Iterator$GT$4next17hb807db09338a51f9E+0xcd>
  1026e7:	b8 01 00 00 00       	mov    $0x1,%eax
  1026ec:	89 c6                	mov    %eax,%esi
  1026ee:	48 8b 7d c8          	mov    -0x38(%rbp),%rdi
  1026f2:	e8 59 ea ff ff       	callq  101150 <_ZN4core3ptr33_$LT$impl$u20$$BP$const$u20$T$GT$6offset17h0d62b7cbced53ff4E>
  1026f7:	48 89 45 b0          	mov    %rax,-0x50(%rbp)
  1026fb:	eb 0b                	jmp    102708 <_ZN91_$LT$core..slice..Iter$LT$$u27$a$C$$u20$T$GT$$u20$as$u20$core..iter..iterator..Iterator$GT$4next17hb807db09338a51f9E+0xd8>
  1026fd:	48 8b 85 78 ff ff ff 	mov    -0x88(%rbp),%rax
  102704:	48 89 45 b0          	mov    %rax,-0x50(%rbp)
  102708:	48 8b 45 d8          	mov    -0x28(%rbp),%rax
  10270c:	48 8b 4d b0          	mov    -0x50(%rbp),%rcx
  102710:	48 89 08             	mov    %rcx,(%rax)
  102713:	48 8b 45 d0          	mov    -0x30(%rbp),%rax
  102717:	48 89 45 c0          	mov    %rax,-0x40(%rbp)
  10271b:	48 8b 45 c0          	mov    -0x40(%rbp),%rax
  10271f:	48 89 45 f8          	mov    %rax,-0x8(%rbp)
  102723:	e8 b8 e9 ff ff       	callq  1010e0 <_ZN4core3mem7size_of17hb7c38d54091f1b39E>
  102728:	48 89 85 70 ff ff ff 	mov    %rax,-0x90(%rbp)
  10272f:	48 8b 85 70 ff ff ff 	mov    -0x90(%rbp),%rax
  102736:	48 83 f8 00          	cmp    $0x0,%rax
  10273a:	75 0d                	jne    102749 <_ZN91_$LT$core..slice..Iter$LT$$u27$a$C$$u20$T$GT$$u20$as$u20$core..iter..iterator..Iterator$GT$4next17hb807db09338a51f9E+0x119>
  10273c:	b8 01 00 00 00       	mov    $0x1,%eax
  102741:	89 c1                	mov    %eax,%ecx
  102743:	48 89 4d a8          	mov    %rcx,-0x58(%rbp)
  102747:	eb 08                	jmp    102751 <_ZN91_$LT$core..slice..Iter$LT$$u27$a$C$$u20$T$GT$$u20$as$u20$core..iter..iterator..Iterator$GT$4next17hb807db09338a51f9E+0x121>
  102749:	48 8b 45 c0          	mov    -0x40(%rbp),%rax
  10274d:	48 89 45 a8          	mov    %rax,-0x58(%rbp)
  102751:	48 8b 45 a8          	mov    -0x58(%rbp),%rax
  102755:	48 89 45 a0          	mov    %rax,-0x60(%rbp)
  102759:	48 8b 45 a0          	mov    -0x60(%rbp),%rax
  10275d:	48 81 c4 90 00 00 00 	add    $0x90,%rsp
  102764:	5d                   	pop    %rbp
  102765:	c3                   	retq   
  102766:	66 2e 0f 1f 84 00 00 	nopw   %cs:0x0(%rax,%rax,1)
  10276d:	00 00 00 

0000000000102770 <_ZN96_$LT$core..fmt..Write..write_fmt..Adapter$LT$$u27$a$C$$u20$T$GT$$u20$as$u20$core..fmt..Write$GT$10write_char17h480b36ba2814fbb8E>:
  102770:	55                   	push   %rbp
  102771:	48 89 e5             	mov    %rsp,%rbp
  102774:	48 83 ec 30          	sub    $0x30,%rsp
  102778:	48 89 7d f0          	mov    %rdi,-0x10(%rbp)
  10277c:	89 75 ec             	mov    %esi,-0x14(%rbp)
  10277f:	48 8b 45 f0          	mov    -0x10(%rbp),%rax
  102783:	48 89 45 e0          	mov    %rax,-0x20(%rbp)
  102787:	8b 4d ec             	mov    -0x14(%rbp),%ecx
  10278a:	89 4d dc             	mov    %ecx,-0x24(%rbp)
  10278d:	48 8b 45 e0          	mov    -0x20(%rbp),%rax
  102791:	48 8b 38             	mov    (%rax),%rdi
  102794:	8b 75 dc             	mov    -0x24(%rbp),%esi
  102797:	e8 64 e6 ff ff       	callq  100e00 <_ZN4core3fmt5Write10write_char17haa7b585e8a6f2d29E>
  10279c:	88 45 d7             	mov    %al,-0x29(%rbp)
  10279f:	8a 45 d7             	mov    -0x29(%rbp),%al
  1027a2:	88 45 d8             	mov    %al,-0x28(%rbp)
  1027a5:	8a 45 d8             	mov    -0x28(%rbp),%al
  1027a8:	48 83 c4 30          	add    $0x30,%rsp
  1027ac:	5d                   	pop    %rbp
  1027ad:	c3                   	retq   
  1027ae:	66 90                	xchg   %ax,%ax

00000000001027b0 <_ZN96_$LT$core..fmt..Write..write_fmt..Adapter$LT$$u27$a$C$$u20$T$GT$$u20$as$u20$core..fmt..Write$GT$9write_fmt17hc6463cfb20e754d5E>:
  1027b0:	55                   	push   %rbp
  1027b1:	48 89 e5             	mov    %rsp,%rbp
  1027b4:	48 81 ec e0 00 00 00 	sub    $0xe0,%rsp
  1027bb:	b8 30 00 00 00       	mov    $0x30,%eax
  1027c0:	89 c2                	mov    %eax,%edx
  1027c2:	48 8d 4d c0          	lea    -0x40(%rbp),%rcx
  1027c6:	48 89 7d f0          	mov    %rdi,-0x10(%rbp)
  1027ca:	48 89 cf             	mov    %rcx,%rdi
  1027cd:	e8 7e 19 00 00       	callq  104150 <memcpy>
  1027d2:	48 8d 85 58 ff ff ff 	lea    -0xa8(%rbp),%rax
  1027d9:	b9 30 00 00 00       	mov    $0x30,%ecx
  1027de:	89 ca                	mov    %ecx,%edx
  1027e0:	48 8d 75 88          	lea    -0x78(%rbp),%rsi
  1027e4:	48 8d 7d c0          	lea    -0x40(%rbp),%rdi
  1027e8:	4c 8b 45 f0          	mov    -0x10(%rbp),%r8
  1027ec:	4c 89 45 b8          	mov    %r8,-0x48(%rbp)
  1027f0:	49 89 f0             	mov    %rsi,%r8
  1027f3:	48 89 bd 40 ff ff ff 	mov    %rdi,-0xc0(%rbp)
  1027fa:	4c 89 c7             	mov    %r8,%rdi
  1027fd:	4c 8b 85 40 ff ff ff 	mov    -0xc0(%rbp),%r8
  102804:	48 89 b5 38 ff ff ff 	mov    %rsi,-0xc8(%rbp)
  10280b:	4c 89 c6             	mov    %r8,%rsi
  10280e:	48 89 95 30 ff ff ff 	mov    %rdx,-0xd0(%rbp)
  102815:	48 89 85 28 ff ff ff 	mov    %rax,-0xd8(%rbp)
  10281c:	e8 2f 19 00 00       	callq  104150 <memcpy>
  102821:	48 8b 45 b8          	mov    -0x48(%rbp),%rax
  102825:	48 8b 38             	mov    (%rax),%rdi
  102828:	48 8b 85 38 ff ff ff 	mov    -0xc8(%rbp),%rax
  10282f:	48 8b 95 28 ff ff ff 	mov    -0xd8(%rbp),%rdx
  102836:	48 89 bd 20 ff ff ff 	mov    %rdi,-0xe0(%rbp)
  10283d:	48 89 d7             	mov    %rdx,%rdi
  102840:	48 89 c6             	mov    %rax,%rsi
  102843:	48 8b 95 30 ff ff ff 	mov    -0xd0(%rbp),%rdx
  10284a:	e8 01 19 00 00       	callq  104150 <memcpy>
  10284f:	48 8b bd 20 ff ff ff 	mov    -0xe0(%rbp),%rdi
  102856:	48 8b b5 28 ff ff ff 	mov    -0xd8(%rbp),%rsi
  10285d:	e8 5e e6 ff ff       	callq  100ec0 <_ZN4core3fmt5Write9write_fmt17h7ffd43ad7946567dE>
  102862:	88 85 4f ff ff ff    	mov    %al,-0xb1(%rbp)
  102868:	8a 85 4f ff ff ff    	mov    -0xb1(%rbp),%al
  10286e:	88 85 50 ff ff ff    	mov    %al,-0xb0(%rbp)
  102874:	8a 85 50 ff ff ff    	mov    -0xb0(%rbp),%al
  10287a:	48 81 c4 e0 00 00 00 	add    $0xe0,%rsp
  102881:	5d                   	pop    %rbp
  102882:	c3                   	retq   
  102883:	66 2e 0f 1f 84 00 00 	nopw   %cs:0x0(%rax,%rax,1)
  10288a:	00 00 00 
  10288d:	0f 1f 00             	nopl   (%rax)

0000000000102890 <_ZN96_$LT$core..fmt..Write..write_fmt..Adapter$LT$$u27$a$C$$u20$T$GT$$u20$as$u20$core..fmt..Write$GT$9write_str17he50ac61e3438780fE>:
  102890:	55                   	push   %rbp
  102891:	48 89 e5             	mov    %rsp,%rbp
  102894:	48 83 ec 50          	sub    $0x50,%rsp
  102898:	48 89 7d f0          	mov    %rdi,-0x10(%rbp)
  10289c:	48 89 75 e0          	mov    %rsi,-0x20(%rbp)
  1028a0:	48 89 55 e8          	mov    %rdx,-0x18(%rbp)
  1028a4:	48 8b 45 f0          	mov    -0x10(%rbp),%rax
  1028a8:	48 89 45 d8          	mov    %rax,-0x28(%rbp)
  1028ac:	48 8b 45 e0          	mov    -0x20(%rbp),%rax
  1028b0:	48 8b 4d e8          	mov    -0x18(%rbp),%rcx
  1028b4:	48 89 45 c8          	mov    %rax,-0x38(%rbp)
  1028b8:	48 89 4d d0          	mov    %rcx,-0x30(%rbp)
  1028bc:	48 8b 45 d8          	mov    -0x28(%rbp),%rax
  1028c0:	48 8b 38             	mov    (%rax),%rdi
  1028c3:	48 8b 75 c8          	mov    -0x38(%rbp),%rsi
  1028c7:	48 8b 55 d0          	mov    -0x30(%rbp),%rdx
  1028cb:	e8 70 04 00 00       	callq  102d40 <_ZN64_$LT$rich_os..vga_buffer..Writer$u20$as$u20$core..fmt..Write$GT$9write_str17h33f53848afa97612E>
  1028d0:	88 45 bf             	mov    %al,-0x41(%rbp)
  1028d3:	8a 45 bf             	mov    -0x41(%rbp),%al
  1028d6:	88 45 c0             	mov    %al,-0x40(%rbp)
  1028d9:	8a 45 c0             	mov    -0x40(%rbp),%al
  1028dc:	48 83 c4 50          	add    $0x50,%rsp
  1028e0:	5d                   	pop    %rbp
  1028e1:	c3                   	retq   
  1028e2:	66 2e 0f 1f 84 00 00 	nopw   %cs:0x0(%rax,%rax,1)
  1028e9:	00 00 00 
  1028ec:	0f 1f 40 00          	nopl   0x0(%rax)

00000000001028f0 <_ZN7rich_os10vga_buffer6Writer10write_byte17h581f6b63484bf599E>:
  1028f0:	55                   	push   %rbp
  1028f1:	48 89 e5             	mov    %rsp,%rbp
  1028f4:	48 83 ec 70          	sub    $0x70,%rsp
  1028f8:	40 88 f0             	mov    %sil,%al
  1028fb:	48 89 7d f8          	mov    %rdi,-0x8(%rbp)
  1028ff:	88 45 f7             	mov    %al,-0x9(%rbp)
  102902:	48 8b 45 f8          	mov    -0x8(%rbp),%rax
  102906:	48 89 45 e8          	mov    %rax,-0x18(%rbp)
  10290a:	8a 4d f7             	mov    -0x9(%rbp),%cl
  10290d:	88 4d e7             	mov    %cl,-0x19(%rbp)
  102910:	80 e9 0a             	sub    $0xa,%cl
  102913:	88 4d b7             	mov    %cl,-0x49(%rbp)
  102916:	74 14                	je     10292c <_ZN7rich_os10vga_buffer6Writer10write_byte17h581f6b63484bf599E+0x3c>
  102918:	eb 00                	jmp    10291a <_ZN7rich_os10vga_buffer6Writer10write_byte17h581f6b63484bf599E+0x2a>
  10291a:	8a 45 e7             	mov    -0x19(%rbp),%al
  10291d:	88 45 e6             	mov    %al,-0x1a(%rbp)
  102920:	48 8b 4d e8          	mov    -0x18(%rbp),%rcx
  102924:	48 83 39 50          	cmpq   $0x50,(%rcx)
  102928:	73 10                	jae    10293a <_ZN7rich_os10vga_buffer6Writer10write_byte17h581f6b63484bf599E+0x4a>
  10292a:	eb 19                	jmp    102945 <_ZN7rich_os10vga_buffer6Writer10write_byte17h581f6b63484bf599E+0x55>
  10292c:	48 8b 7d e8          	mov    -0x18(%rbp),%rdi
  102930:	e8 4b 01 00 00       	callq  102a80 <_ZN7rich_os10vga_buffer6Writer8new_line17h85f7070d04f769e3E>
  102935:	e9 b9 00 00 00       	jmpq   1029f3 <_ZN7rich_os10vga_buffer6Writer10write_byte17h581f6b63484bf599E+0x103>
  10293a:	48 8b 7d e8          	mov    -0x18(%rbp),%rdi
  10293e:	e8 3d 01 00 00       	callq  102a80 <_ZN7rich_os10vga_buffer6Writer8new_line17h85f7070d04f769e3E>
  102943:	eb 02                	jmp    102947 <_ZN7rich_os10vga_buffer6Writer10write_byte17h581f6b63484bf599E+0x57>
  102945:	eb 02                	jmp    102949 <_ZN7rich_os10vga_buffer6Writer10write_byte17h581f6b63484bf599E+0x59>
  102947:	eb 00                	jmp    102949 <_ZN7rich_os10vga_buffer6Writer10write_byte17h581f6b63484bf599E+0x59>
  102949:	eb 00                	jmp    10294b <_ZN7rich_os10vga_buffer6Writer10write_byte17h581f6b63484bf599E+0x5b>
  10294b:	48 c7 45 d8 18 00 00 	movq   $0x18,-0x28(%rbp)
  102952:	00 
  102953:	48 8b 45 e8          	mov    -0x18(%rbp),%rax
  102957:	48 8b 00             	mov    (%rax),%rax
  10295a:	48 89 45 d0          	mov    %rax,-0x30(%rbp)
  10295e:	8a 4d e6             	mov    -0x1a(%rbp),%cl
  102961:	48 8b 45 e8          	mov    -0x18(%rbp),%rax
  102965:	8a 50 08             	mov    0x8(%rax),%dl
  102968:	88 55 c0             	mov    %dl,-0x40(%rbp)
  10296b:	48 8b 7d e8          	mov    -0x18(%rbp),%rdi
  10296f:	88 4d b6             	mov    %cl,-0x4a(%rbp)
  102972:	e8 c9 00 00 00       	callq  102a40 <_ZN7rich_os10vga_buffer6Writer6buffer17hd7231d2bfd86ac3dE>
  102977:	48 89 45 a8          	mov    %rax,-0x58(%rbp)
  10297b:	48 8b 45 d8          	mov    -0x28(%rbp),%rax
  10297f:	48 83 f8 19          	cmp    $0x19,%rax
  102983:	0f 92 c1             	setb   %cl
  102986:	f6 c1 01             	test   $0x1,%cl
  102989:	48 89 45 a0          	mov    %rax,-0x60(%rbp)
  10298d:	75 02                	jne    102991 <_ZN7rich_os10vga_buffer6Writer10write_byte17h581f6b63484bf599E+0xa1>
  10298f:	eb 68                	jmp    1029f9 <_ZN7rich_os10vga_buffer6Writer10write_byte17h581f6b63484bf599E+0x109>
  102991:	48 8b 45 d0          	mov    -0x30(%rbp),%rax
  102995:	48 83 f8 50          	cmp    $0x50,%rax
  102999:	0f 92 c1             	setb   %cl
  10299c:	f6 c1 01             	test   $0x1,%cl
  10299f:	48 89 45 98          	mov    %rax,-0x68(%rbp)
  1029a3:	75 02                	jne    1029a7 <_ZN7rich_os10vga_buffer6Writer10write_byte17h581f6b63484bf599E+0xb7>
  1029a5:	eb 69                	jmp    102a10 <_ZN7rich_os10vga_buffer6Writer10write_byte17h581f6b63484bf599E+0x120>
  1029a7:	48 8b 45 a0          	mov    -0x60(%rbp),%rax
  1029ab:	48 8d 0c 80          	lea    (%rax,%rax,4),%rcx
  1029af:	48 c1 e1 05          	shl    $0x5,%rcx
  1029b3:	48 8b 55 a8          	mov    -0x58(%rbp),%rdx
  1029b7:	48 01 ca             	add    %rcx,%rdx
  1029ba:	48 8b 4d 98          	mov    -0x68(%rbp),%rcx
  1029be:	40 8a 75 b6          	mov    -0x4a(%rbp),%sil
  1029c2:	40 88 34 4a          	mov    %sil,(%rdx,%rcx,2)
  1029c6:	40 8a 7d c0          	mov    -0x40(%rbp),%dil
  1029ca:	40 88 7c 4a 01       	mov    %dil,0x1(%rdx,%rcx,2)
  1029cf:	48 8b 55 e8          	mov    -0x18(%rbp),%rdx
  1029d3:	48 8b 12             	mov    (%rdx),%rdx
  1029d6:	48 83 c2 01          	add    $0x1,%rdx
  1029da:	40 0f 92 c7          	setb   %dil
  1029de:	40 f6 c7 01          	test   $0x1,%dil
  1029e2:	48 89 55 90          	mov    %rdx,-0x70(%rbp)
  1029e6:	75 3f                	jne    102a27 <_ZN7rich_os10vga_buffer6Writer10write_byte17h581f6b63484bf599E+0x137>
  1029e8:	48 8b 45 e8          	mov    -0x18(%rbp),%rax
  1029ec:	48 8b 4d 90          	mov    -0x70(%rbp),%rcx
  1029f0:	48 89 08             	mov    %rcx,(%rax)
  1029f3:	48 83 c4 70          	add    $0x70,%rsp
  1029f7:	5d                   	pop    %rbp
  1029f8:	c3                   	retq   
  1029f9:	48 8d 3d a0 d5 00 00 	lea    0xd5a0(%rip),%rdi        # 10ffa0 <panic_bounds_check_loc3432>
  102a00:	b8 19 00 00 00       	mov    $0x19,%eax
  102a05:	89 c2                	mov    %eax,%edx
  102a07:	48 8b 75 a0          	mov    -0x60(%rbp),%rsi
  102a0b:	e8 10 2b 00 00       	callq  105520 <_ZN4core9panicking18panic_bounds_check17ha826e5548fbc34ddE>
  102a10:	48 8d 3d 89 d5 00 00 	lea    0xd589(%rip),%rdi        # 10ffa0 <panic_bounds_check_loc3432>
  102a17:	b8 50 00 00 00       	mov    $0x50,%eax
  102a1c:	89 c2                	mov    %eax,%edx
  102a1e:	48 8b 75 98          	mov    -0x68(%rbp),%rsi
  102a22:	e8 f9 2a 00 00       	callq  105520 <_ZN4core9panicking18panic_bounds_check17ha826e5548fbc34ddE>
  102a27:	48 8d 3d 8a d5 00 00 	lea    0xd58a(%rip),%rdi        # 10ffb8 <panic_loc3433>
  102a2e:	e8 5d 2a 00 00       	callq  105490 <_ZN4core9panicking5panic17h585bd70cda921012E>
  102a33:	66 2e 0f 1f 84 00 00 	nopw   %cs:0x0(%rax,%rax,1)
  102a3a:	00 00 00 
  102a3d:	0f 1f 00             	nopl   (%rax)

0000000000102a40 <_ZN7rich_os10vga_buffer6Writer6buffer17hd7231d2bfd86ac3dE>:
  102a40:	55                   	push   %rbp
  102a41:	48 89 e5             	mov    %rsp,%rbp
  102a44:	48 83 ec 20          	sub    $0x20,%rsp
  102a48:	48 89 7d f0          	mov    %rdi,-0x10(%rbp)
  102a4c:	48 8b 45 f0          	mov    -0x10(%rbp),%rax
  102a50:	48 89 45 e8          	mov    %rax,-0x18(%rbp)
  102a54:	48 8b 45 e8          	mov    -0x18(%rbp),%rax
  102a58:	48 83 c0 10          	add    $0x10,%rax
  102a5c:	48 89 c7             	mov    %rax,%rdi
  102a5f:	e8 1c d8 ff ff       	callq  100280 <_ZN35_$LT$core..ptr..Unique$LT$T$GT$$GT$7get_mut17h2e0e666a563b615eE>
  102a64:	48 89 45 e0          	mov    %rax,-0x20(%rbp)
  102a68:	48 8b 45 e0          	mov    -0x20(%rbp),%rax
  102a6c:	48 83 c4 20          	add    $0x20,%rsp
  102a70:	5d                   	pop    %rbp
  102a71:	c3                   	retq   
  102a72:	66 2e 0f 1f 84 00 00 	nopw   %cs:0x0(%rax,%rax,1)
  102a79:	00 00 00 
  102a7c:	0f 1f 40 00          	nopl   0x0(%rax)

0000000000102a80 <_ZN7rich_os10vga_buffer6Writer8new_line17h85f7070d04f769e3E>:
  102a80:	55                   	push   %rbp
  102a81:	48 89 e5             	mov    %rsp,%rbp
  102a84:	48 81 ec 70 01 00 00 	sub    $0x170,%rsp
  102a8b:	48 89 7d f8          	mov    %rdi,-0x8(%rbp)
  102a8f:	48 8b 45 f8          	mov    -0x8(%rbp),%rax
  102a93:	48 89 45 f0          	mov    %rax,-0x10(%rbp)
  102a97:	48 8d bd e8 fe ff ff 	lea    -0x118(%rbp),%rdi
  102a9e:	48 8d b5 d8 fe ff ff 	lea    -0x128(%rbp),%rsi
  102aa5:	48 c7 45 b8 00 00 00 	movq   $0x0,-0x48(%rbp)
  102aac:	00 
  102aad:	48 c7 45 c0 18 00 00 	movq   $0x18,-0x40(%rbp)
  102ab4:	00 
  102ab5:	48 8b 45 b8          	mov    -0x48(%rbp),%rax
  102ab9:	48 8b 4d c0          	mov    -0x40(%rbp),%rcx
  102abd:	48 89 85 d8 fe ff ff 	mov    %rax,-0x128(%rbp)
  102ac4:	48 89 8d e0 fe ff ff 	mov    %rcx,-0x120(%rbp)
  102acb:	e8 c0 f7 ff ff       	callq  102290 <_ZN54_$LT$I$u20$as$u20$core..iter..traits..IntoIterator$GT$9into_iter17h593a8b7b125c6a4eE>
  102ad0:	48 8b 85 e8 fe ff ff 	mov    -0x118(%rbp),%rax
  102ad7:	48 8b 8d f0 fe ff ff 	mov    -0x110(%rbp),%rcx
  102ade:	48 89 85 d0 fe ff ff 	mov    %rax,-0x130(%rbp)
  102ae5:	48 89 8d c8 fe ff ff 	mov    %rcx,-0x138(%rbp)
  102aec:	48 8b 85 d0 fe ff ff 	mov    -0x130(%rbp),%rax
  102af3:	48 89 45 d8          	mov    %rax,-0x28(%rbp)
  102af7:	48 8b 8d c8 fe ff ff 	mov    -0x138(%rbp),%rcx
  102afe:	48 89 4d e0          	mov    %rcx,-0x20(%rbp)
  102b02:	48 8d 7d a0          	lea    -0x60(%rbp),%rdi
  102b06:	48 8d 75 d8          	lea    -0x28(%rbp),%rsi
  102b0a:	e8 21 e7 ff ff       	callq  101230 <_ZN4core4iter5range86_$LT$impl$u20$core..iter..iterator..Iterator$u20$for$u20$core..ops..Range$LT$A$GT$$GT$4next17h05ed5ee39168d888E>
  102b0f:	eb 10                	jmp    102b21 <_ZN7rich_os10vga_buffer6Writer8new_line17h85f7070d04f769e3E+0xa1>
  102b11:	48 8b 7d f0          	mov    -0x10(%rbp),%rdi
  102b15:	48 89 bd c0 fe ff ff 	mov    %rdi,-0x140(%rbp)
  102b1c:	e9 f3 00 00 00       	jmpq   102c14 <_ZN7rich_os10vga_buffer6Writer8new_line17h85f7070d04f769e3E+0x194>
  102b21:	48 8b 45 a0          	mov    -0x60(%rbp),%rax
  102b25:	48 85 c0             	test   %rax,%rax
  102b28:	48 89 85 b8 fe ff ff 	mov    %rax,-0x148(%rbp)
  102b2f:	74 e0                	je     102b11 <_ZN7rich_os10vga_buffer6Writer8new_line17h85f7070d04f769e3E+0x91>
  102b31:	eb 00                	jmp    102b33 <_ZN7rich_os10vga_buffer6Writer8new_line17h85f7070d04f769e3E+0xb3>
  102b33:	48 8b 85 b8 fe ff ff 	mov    -0x148(%rbp),%rax
  102b3a:	48 83 e8 01          	sub    $0x1,%rax
  102b3e:	48 89 85 b0 fe ff ff 	mov    %rax,-0x150(%rbp)
  102b45:	0f 85 f0 00 00 00    	jne    102c3b <_ZN7rich_os10vga_buffer6Writer8new_line17h85f7070d04f769e3E+0x1bb>
  102b4b:	eb 00                	jmp    102b4d <_ZN7rich_os10vga_buffer6Writer8new_line17h85f7070d04f769e3E+0xcd>
  102b4d:	48 8b 45 a8          	mov    -0x58(%rbp),%rax
  102b51:	48 89 45 d0          	mov    %rax,-0x30(%rbp)
  102b55:	48 8b 7d f0          	mov    -0x10(%rbp),%rdi
  102b59:	e8 e2 fe ff ff       	callq  102a40 <_ZN7rich_os10vga_buffer6Writer6buffer17hd7231d2bfd86ac3dE>
  102b5e:	48 89 45 c8          	mov    %rax,-0x38(%rbp)
  102b62:	48 8b 45 c8          	mov    -0x38(%rbp),%rax
  102b66:	48 8b 4d d0          	mov    -0x30(%rbp),%rcx
  102b6a:	48 83 c1 01          	add    $0x1,%rcx
  102b6e:	0f 92 c2             	setb   %dl
  102b71:	f6 c2 01             	test   $0x1,%dl
  102b74:	48 89 85 a8 fe ff ff 	mov    %rax,-0x158(%rbp)
  102b7b:	48 89 8d a0 fe ff ff 	mov    %rcx,-0x160(%rbp)
  102b82:	0f 85 b3 00 00 00    	jne    102c3b <_ZN7rich_os10vga_buffer6Writer8new_line17h85f7070d04f769e3E+0x1bb>
  102b88:	b8 19 00 00 00       	mov    $0x19,%eax
  102b8d:	89 c6                	mov    %eax,%esi
  102b8f:	48 8b bd a8 fe ff ff 	mov    -0x158(%rbp),%rdi
  102b96:	48 8b 95 a0 fe ff ff 	mov    -0x160(%rbp),%rdx
  102b9d:	e8 0e ef ff ff       	callq  101ab0 <_ZN4core5slice71_$LT$impl$u20$core..ops..Index$LT$usize$GT$$u20$for$u20$$u5b$T$u5d$$GT$5index17h50ae4478be8f439cE>
  102ba2:	48 89 85 98 fe ff ff 	mov    %rax,-0x168(%rbp)
  102ba9:	b8 a0 00 00 00       	mov    $0xa0,%eax
  102bae:	89 c2                	mov    %eax,%edx
  102bb0:	48 8d 8d 00 ff ff ff 	lea    -0x100(%rbp),%rcx
  102bb7:	48 8b b5 98 fe ff ff 	mov    -0x168(%rbp),%rsi
  102bbe:	48 89 cf             	mov    %rcx,%rdi
  102bc1:	e8 8a 15 00 00       	callq  104150 <memcpy>
  102bc6:	48 8b 4d d0          	mov    -0x30(%rbp),%rcx
  102bca:	48 83 f9 19          	cmp    $0x19,%rcx
  102bce:	41 0f 92 c0          	setb   %r8b
  102bd2:	41 f6 c0 01          	test   $0x1,%r8b
  102bd6:	48 89 8d 90 fe ff ff 	mov    %rcx,-0x170(%rbp)
  102bdd:	75 02                	jne    102be1 <_ZN7rich_os10vga_buffer6Writer8new_line17h85f7070d04f769e3E+0x161>
  102bdf:	eb 66                	jmp    102c47 <_ZN7rich_os10vga_buffer6Writer8new_line17h85f7070d04f769e3E+0x1c7>
  102be1:	b8 a0 00 00 00       	mov    $0xa0,%eax
  102be6:	89 c2                	mov    %eax,%edx
  102be8:	48 8d 8d 00 ff ff ff 	lea    -0x100(%rbp),%rcx
  102bef:	48 8b 75 c8          	mov    -0x38(%rbp),%rsi
  102bf3:	48 8b bd 90 fe ff ff 	mov    -0x170(%rbp),%rdi
  102bfa:	4c 69 c7 a0 00 00 00 	imul   $0xa0,%rdi,%r8
  102c01:	4c 01 c6             	add    %r8,%rsi
  102c04:	48 89 f7             	mov    %rsi,%rdi
  102c07:	48 89 ce             	mov    %rcx,%rsi
  102c0a:	e8 41 15 00 00       	callq  104150 <memcpy>
  102c0f:	e9 ee fe ff ff       	jmpq   102b02 <_ZN7rich_os10vga_buffer6Writer8new_line17h85f7070d04f769e3E+0x82>
  102c14:	b8 18 00 00 00       	mov    $0x18,%eax
  102c19:	89 c6                	mov    %eax,%esi
  102c1b:	48 8b bd c0 fe ff ff 	mov    -0x140(%rbp),%rdi
  102c22:	e8 49 00 00 00       	callq  102c70 <_ZN7rich_os10vga_buffer6Writer9clear_row17h1c62416a9953f847E>
  102c27:	48 8b 45 f0          	mov    -0x10(%rbp),%rax
  102c2b:	48 c7 00 00 00 00 00 	movq   $0x0,(%rax)
  102c32:	48 81 c4 70 01 00 00 	add    $0x170,%rsp
  102c39:	5d                   	pop    %rbp
  102c3a:	c3                   	retq   
  102c3b:	48 8d 3d 9e d3 00 00 	lea    0xd39e(%rip),%rdi        # 10ffe0 <panic_loc3434>
  102c42:	e8 49 28 00 00       	callq  105490 <_ZN4core9panicking5panic17h585bd70cda921012E>
  102c47:	48 8d 3d ba d3 00 00 	lea    0xd3ba(%rip),%rdi        # 110008 <panic_bounds_check_loc3435>
  102c4e:	b8 19 00 00 00       	mov    $0x19,%eax
  102c53:	89 c2                	mov    %eax,%edx
  102c55:	48 8b b5 90 fe ff ff 	mov    -0x170(%rbp),%rsi
  102c5c:	e8 bf 28 00 00       	callq  105520 <_ZN4core9panicking18panic_bounds_check17ha826e5548fbc34ddE>
  102c61:	66 2e 0f 1f 84 00 00 	nopw   %cs:0x0(%rax,%rax,1)
  102c68:	00 00 00 
  102c6b:	0f 1f 44 00 00       	nopl   0x0(%rax,%rax,1)

0000000000102c70 <_ZN7rich_os10vga_buffer6Writer9clear_row17h1c62416a9953f847E>:
  102c70:	55                   	push   %rbp
  102c71:	48 89 e5             	mov    %rsp,%rbp
  102c74:	48 83 ec 70          	sub    $0x70,%rsp
  102c78:	48 89 7d f8          	mov    %rdi,-0x8(%rbp)
  102c7c:	48 89 75 f0          	mov    %rsi,-0x10(%rbp)
  102c80:	48 8b 45 f8          	mov    -0x8(%rbp),%rax
  102c84:	48 89 45 e8          	mov    %rax,-0x18(%rbp)
  102c88:	48 8b 45 f0          	mov    -0x10(%rbp),%rax
  102c8c:	48 89 45 e0          	mov    %rax,-0x20(%rbp)
  102c90:	48 8b 45 e8          	mov    -0x18(%rbp),%rax
  102c94:	8a 48 08             	mov    0x8(%rax),%cl
  102c97:	88 4d d0             	mov    %cl,-0x30(%rbp)
  102c9a:	c6 45 d8 20          	movb   $0x20,-0x28(%rbp)
  102c9e:	8a 4d d0             	mov    -0x30(%rbp),%cl
  102ca1:	88 4d d9             	mov    %cl,-0x27(%rbp)
  102ca4:	8a 55 d8             	mov    -0x28(%rbp),%dl
  102ca7:	48 8b 7d e8          	mov    -0x18(%rbp),%rdi
  102cab:	88 4d c7             	mov    %cl,-0x39(%rbp)
  102cae:	88 55 c6             	mov    %dl,-0x3a(%rbp)
  102cb1:	e8 8a fd ff ff       	callq  102a40 <_ZN7rich_os10vga_buffer6Writer6buffer17hd7231d2bfd86ac3dE>
  102cb6:	48 89 45 b8          	mov    %rax,-0x48(%rbp)
  102cba:	48 8b 45 e0          	mov    -0x20(%rbp),%rax
  102cbe:	48 83 f8 19          	cmp    $0x19,%rax
  102cc2:	0f 92 c1             	setb   %cl
  102cc5:	f6 c1 01             	test   $0x1,%cl
  102cc8:	48 89 45 b0          	mov    %rax,-0x50(%rbp)
  102ccc:	75 02                	jne    102cd0 <_ZN7rich_os10vga_buffer6Writer9clear_row17h1c62416a9953f847E+0x60>
  102cce:	eb 26                	jmp    102cf6 <_ZN7rich_os10vga_buffer6Writer9clear_row17h1c62416a9953f847E+0x86>
  102cd0:	48 8b 45 b0          	mov    -0x50(%rbp),%rax
  102cd4:	48 69 c8 a0 00 00 00 	imul   $0xa0,%rax,%rcx
  102cdb:	48 8b 55 b8          	mov    -0x48(%rbp),%rdx
  102cdf:	48 01 ca             	add    %rcx,%rdx
  102ce2:	48 89 d1             	mov    %rdx,%rcx
  102ce5:	48 81 c1 a0 00 00 00 	add    $0xa0,%rcx
  102cec:	48 89 4d a8          	mov    %rcx,-0x58(%rbp)
  102cf0:	48 89 55 a0          	mov    %rdx,-0x60(%rbp)
  102cf4:	eb 17                	jmp    102d0d <_ZN7rich_os10vga_buffer6Writer9clear_row17h1c62416a9953f847E+0x9d>
  102cf6:	48 8d 3d 23 d3 00 00 	lea    0xd323(%rip),%rdi        # 110020 <panic_bounds_check_loc3436>
  102cfd:	b8 19 00 00 00       	mov    $0x19,%eax
  102d02:	89 c2                	mov    %eax,%edx
  102d04:	48 8b 75 b0          	mov    -0x50(%rbp),%rsi
  102d08:	e8 13 28 00 00       	callq  105520 <_ZN4core9panicking18panic_bounds_check17ha826e5548fbc34ddE>
  102d0d:	48 8b 45 a0          	mov    -0x60(%rbp),%rax
  102d11:	48 8b 4d a8          	mov    -0x58(%rbp),%rcx
  102d15:	48 39 c8             	cmp    %rcx,%rax
  102d18:	48 89 45 98          	mov    %rax,-0x68(%rbp)
  102d1c:	73 19                	jae    102d37 <_ZN7rich_os10vga_buffer6Writer9clear_row17h1c62416a9953f847E+0xc7>
  102d1e:	48 8b 45 98          	mov    -0x68(%rbp),%rax
  102d22:	8a 4d c6             	mov    -0x3a(%rbp),%cl
  102d25:	88 08                	mov    %cl,(%rax)
  102d27:	8a 55 c7             	mov    -0x39(%rbp),%dl
  102d2a:	88 50 01             	mov    %dl,0x1(%rax)
  102d2d:	48 83 c0 02          	add    $0x2,%rax
  102d31:	48 89 45 a0          	mov    %rax,-0x60(%rbp)
  102d35:	eb d6                	jmp    102d0d <_ZN7rich_os10vga_buffer6Writer9clear_row17h1c62416a9953f847E+0x9d>
  102d37:	48 83 c4 70          	add    $0x70,%rsp
  102d3b:	5d                   	pop    %rbp
  102d3c:	c3                   	retq   
  102d3d:	0f 1f 00             	nopl   (%rax)

0000000000102d40 <_ZN64_$LT$rich_os..vga_buffer..Writer$u20$as$u20$core..fmt..Write$GT$9write_str17h33f53848afa97612E>:
  102d40:	55                   	push   %rbp
  102d41:	48 89 e5             	mov    %rsp,%rbp
  102d44:	48 81 ec a0 00 00 00 	sub    $0xa0,%rsp
  102d4b:	48 89 7d f0          	mov    %rdi,-0x10(%rbp)
  102d4f:	48 89 75 e0          	mov    %rsi,-0x20(%rbp)
  102d53:	48 89 55 e8          	mov    %rdx,-0x18(%rbp)
  102d57:	48 8d 7d 88          	lea    -0x78(%rbp),%rdi
  102d5b:	48 8b 45 f0          	mov    -0x10(%rbp),%rax
  102d5f:	48 89 45 d8          	mov    %rax,-0x28(%rbp)
  102d63:	48 8b 45 e0          	mov    -0x20(%rbp),%rax
  102d67:	48 8b 4d e8          	mov    -0x18(%rbp),%rcx
  102d6b:	48 89 45 c8          	mov    %rax,-0x38(%rbp)
  102d6f:	48 89 4d d0          	mov    %rcx,-0x30(%rbp)
  102d73:	48 8b 75 c8          	mov    -0x38(%rbp),%rsi
  102d77:	48 8b 55 d0          	mov    -0x30(%rbp),%rdx
  102d7b:	e8 40 da ff ff       	callq  1007c0 <_ZN41_$LT$str$u20$as$u20$core..str..StrExt$GT$5bytes17h25d3c1eaab1c59c0E>
  102d80:	48 8d 7d 98          	lea    -0x68(%rbp),%rdi
  102d84:	48 8d 75 88          	lea    -0x78(%rbp),%rsi
  102d88:	e8 63 f5 ff ff       	callq  1022f0 <_ZN54_$LT$I$u20$as$u20$core..iter..traits..IntoIterator$GT$9into_iter17h75a0b3358fb33d61E>
  102d8d:	48 8b 45 98          	mov    -0x68(%rbp),%rax
  102d91:	48 89 45 b0          	mov    %rax,-0x50(%rbp)
  102d95:	48 8b 45 a0          	mov    -0x60(%rbp),%rax
  102d99:	48 89 45 b8          	mov    %rax,-0x48(%rbp)
  102d9d:	48 8d 7d b0          	lea    -0x50(%rbp),%rdi
  102da1:	e8 8a f7 ff ff       	callq  102530 <_ZN81_$LT$core..str..Bytes$LT$$u27$a$GT$$u20$as$u20$core..iter..iterator..Iterator$GT$4next17h64d892166b3681e0E>
  102da6:	66 89 85 66 ff ff ff 	mov    %ax,-0x9a(%rbp)
  102dad:	66 8b 85 66 ff ff ff 	mov    -0x9a(%rbp),%ax
  102db4:	66 89 85 78 ff ff ff 	mov    %ax,-0x88(%rbp)
  102dbb:	eb 16                	jmp    102dd3 <_ZN64_$LT$rich_os..vga_buffer..Writer$u20$as$u20$core..fmt..Write$GT$9write_str17h33f53848afa97612E+0x93>
  102dbd:	c6 85 68 ff ff ff 00 	movb   $0x0,-0x98(%rbp)
  102dc4:	8a 85 68 ff ff ff    	mov    -0x98(%rbp),%al
  102dca:	48 81 c4 a0 00 00 00 	add    $0xa0,%rsp
  102dd1:	5d                   	pop    %rbp
  102dd2:	c3                   	retq   
  102dd3:	8a 85 78 ff ff ff    	mov    -0x88(%rbp),%al
  102dd9:	84 c0                	test   %al,%al
  102ddb:	88 85 65 ff ff ff    	mov    %al,-0x9b(%rbp)
  102de1:	74 da                	je     102dbd <_ZN64_$LT$rich_os..vga_buffer..Writer$u20$as$u20$core..fmt..Write$GT$9write_str17h33f53848afa97612E+0x7d>
  102de3:	eb 00                	jmp    102de5 <_ZN64_$LT$rich_os..vga_buffer..Writer$u20$as$u20$core..fmt..Write$GT$9write_str17h33f53848afa97612E+0xa5>
  102de5:	8a 85 65 ff ff ff    	mov    -0x9b(%rbp),%al
  102deb:	2c 01                	sub    $0x1,%al
  102ded:	88 85 64 ff ff ff    	mov    %al,-0x9c(%rbp)
  102df3:	75 1a                	jne    102e0f <_ZN64_$LT$rich_os..vga_buffer..Writer$u20$as$u20$core..fmt..Write$GT$9write_str17h33f53848afa97612E+0xcf>
  102df5:	eb 00                	jmp    102df7 <_ZN64_$LT$rich_os..vga_buffer..Writer$u20$as$u20$core..fmt..Write$GT$9write_str17h33f53848afa97612E+0xb7>
  102df7:	8a 85 79 ff ff ff    	mov    -0x87(%rbp),%al
  102dfd:	88 45 af             	mov    %al,-0x51(%rbp)
  102e00:	48 8b 7d d8          	mov    -0x28(%rbp),%rdi
  102e04:	0f b6 75 af          	movzbl -0x51(%rbp),%esi
  102e08:	e8 e3 fa ff ff       	callq  1028f0 <_ZN7rich_os10vga_buffer6Writer10write_byte17h581f6b63484bf599E>
  102e0d:	eb 8e                	jmp    102d9d <_ZN64_$LT$rich_os..vga_buffer..Writer$u20$as$u20$core..fmt..Write$GT$9write_str17h33f53848afa97612E+0x5d>
  102e0f:	90                   	nop

0000000000102e10 <_ZN7rich_os4port4outb17hb34a66b95501c033E>:
  102e10:	55                   	push   %rbp
  102e11:	48 89 e5             	mov    %rsp,%rbp
  102e14:	48 83 ec 18          	sub    $0x18,%rsp
  102e18:	66 89 f0             	mov    %si,%ax
  102e1b:	40 88 f9             	mov    %dil,%cl
  102e1e:	88 4d ff             	mov    %cl,-0x1(%rbp)
  102e21:	66 89 45 fc          	mov    %ax,-0x4(%rbp)
  102e25:	8a 45 ff             	mov    -0x1(%rbp),%al
  102e28:	88 45 fb             	mov    %al,-0x5(%rbp)
  102e2b:	66 8b 4d fc          	mov    -0x4(%rbp),%cx
  102e2f:	66 89 4d f8          	mov    %cx,-0x8(%rbp)
  102e33:	66 8b 55 f8          	mov    -0x8(%rbp),%dx
  102e37:	8a 45 fb             	mov    -0x5(%rbp),%al
  102e3a:	ee                   	out    %al,(%dx)
  102e3b:	48 83 c4 18          	add    $0x18,%rsp
  102e3f:	5d                   	pop    %rbp
  102e40:	c3                   	retq   
  102e41:	66 2e 0f 1f 84 00 00 	nopw   %cs:0x0(%rax,%rax,1)
  102e48:	00 00 00 
  102e4b:	0f 1f 44 00 00       	nopl   0x0(%rax,%rax,1)

0000000000102e50 <_ZN7rich_os4port3inb17hd8977f70439eee01E>:
  102e50:	55                   	push   %rbp
  102e51:	48 89 e5             	mov    %rsp,%rbp
  102e54:	48 83 ec 10          	sub    $0x10,%rsp
  102e58:	66 89 f8             	mov    %di,%ax
  102e5b:	66 89 45 fc          	mov    %ax,-0x4(%rbp)
  102e5f:	66 8b 45 fc          	mov    -0x4(%rbp),%ax
  102e63:	66 89 45 fa          	mov    %ax,-0x6(%rbp)
  102e67:	66 8b 55 fa          	mov    -0x6(%rbp),%dx
  102e6b:	ec                   	in     (%dx),%al
  102e6c:	88 45 f9             	mov    %al,-0x7(%rbp)
  102e6f:	8a 45 f9             	mov    -0x7(%rbp),%al
  102e72:	88 45 f7             	mov    %al,-0x9(%rbp)
  102e75:	8a 45 f7             	mov    -0x9(%rbp),%al
  102e78:	48 83 c4 10          	add    $0x10,%rsp
  102e7c:	5d                   	pop    %rbp
  102e7d:	c3                   	retq   
  102e7e:	66 90                	xchg   %ax,%ax

0000000000102e80 <_ZN43_$LT$u8$u20$as$u20$rich_os..port..InOut$GT$7port_in17h52f27b321020d959E>:
  102e80:	55                   	push   %rbp
  102e81:	48 89 e5             	mov    %rsp,%rbp
  102e84:	48 83 ec 10          	sub    $0x10,%rsp
  102e88:	66 89 f8             	mov    %di,%ax
  102e8b:	66 89 45 fc          	mov    %ax,-0x4(%rbp)
  102e8f:	66 8b 45 fc          	mov    -0x4(%rbp),%ax
  102e93:	66 89 45 fa          	mov    %ax,-0x6(%rbp)
  102e97:	0f b7 7d fa          	movzwl -0x6(%rbp),%edi
  102e9b:	e8 b0 ff ff ff       	callq  102e50 <_ZN7rich_os4port3inb17hd8977f70439eee01E>
  102ea0:	88 45 f9             	mov    %al,-0x7(%rbp)
  102ea3:	8a 45 f9             	mov    -0x7(%rbp),%al
  102ea6:	48 83 c4 10          	add    $0x10,%rsp
  102eaa:	5d                   	pop    %rbp
  102eab:	c3                   	retq   
  102eac:	0f 1f 40 00          	nopl   0x0(%rax)

0000000000102eb0 <_ZN43_$LT$u8$u20$as$u20$rich_os..port..InOut$GT$8port_out17hf70efeb1366887c6E>:
  102eb0:	55                   	push   %rbp
  102eb1:	48 89 e5             	mov    %rsp,%rbp
  102eb4:	48 83 ec 10          	sub    $0x10,%rsp
  102eb8:	40 88 f0             	mov    %sil,%al
  102ebb:	66 89 f9             	mov    %di,%cx
  102ebe:	66 89 4d fe          	mov    %cx,-0x2(%rbp)
  102ec2:	88 45 fd             	mov    %al,-0x3(%rbp)
  102ec5:	66 8b 45 fe          	mov    -0x2(%rbp),%ax
  102ec9:	66 89 45 fa          	mov    %ax,-0x6(%rbp)
  102ecd:	8a 4d fd             	mov    -0x3(%rbp),%cl
  102ed0:	88 4d f9             	mov    %cl,-0x7(%rbp)
  102ed3:	8a 4d f9             	mov    -0x7(%rbp),%cl
  102ed6:	0f b6 f9             	movzbl %cl,%edi
  102ed9:	0f b7 75 fa          	movzwl -0x6(%rbp),%esi
  102edd:	e8 2e ff ff ff       	callq  102e10 <_ZN7rich_os4port4outb17hb34a66b95501c033E>
  102ee2:	48 83 c4 10          	add    $0x10,%rsp
  102ee6:	5d                   	pop    %rbp
  102ee7:	c3                   	retq   
  102ee8:	0f 1f 84 00 00 00 00 	nopl   0x0(%rax,%rax,1)
  102eef:	00 

0000000000102ef0 <_ZN37_$LT$rich_os..port..Port$LT$T$GT$$GT$3new17h2c53dea323457d4aE>:
  102ef0:	55                   	push   %rbp
  102ef1:	48 89 e5             	mov    %rsp,%rbp
  102ef4:	48 83 ec 18          	sub    $0x18,%rsp
  102ef8:	66 89 f8             	mov    %di,%ax
  102efb:	66 89 45 f6          	mov    %ax,-0xa(%rbp)
  102eff:	66 8b 45 f6          	mov    -0xa(%rbp),%ax
  102f03:	66 89 45 f4          	mov    %ax,-0xc(%rbp)
  102f07:	66 8b 45 f4          	mov    -0xc(%rbp),%ax
  102f0b:	66 89 45 e8          	mov    %ax,-0x18(%rbp)
  102f0f:	66 8b 45 e8          	mov    -0x18(%rbp),%ax
  102f13:	48 83 c4 18          	add    $0x18,%rsp
  102f17:	5d                   	pop    %rbp
  102f18:	c3                   	retq   
  102f19:	0f 1f 80 00 00 00 00 	nopl   0x0(%rax)

0000000000102f20 <_ZN37_$LT$rich_os..port..Port$LT$T$GT$$GT$4read17h174f4721f92e17edE>:
  102f20:	55                   	push   %rbp
  102f21:	48 89 e5             	mov    %rsp,%rbp
  102f24:	48 83 ec 20          	sub    $0x20,%rsp
  102f28:	48 89 7d f0          	mov    %rdi,-0x10(%rbp)
  102f2c:	48 8b 45 f0          	mov    -0x10(%rbp),%rax
  102f30:	48 89 45 e8          	mov    %rax,-0x18(%rbp)
  102f34:	48 8b 45 e8          	mov    -0x18(%rbp),%rax
  102f38:	0f b7 38             	movzwl (%rax),%edi
  102f3b:	e8 40 ff ff ff       	callq  102e80 <_ZN43_$LT$u8$u20$as$u20$rich_os..port..InOut$GT$7port_in17h52f27b321020d959E>
  102f40:	88 45 e7             	mov    %al,-0x19(%rbp)
  102f43:	8a 45 e7             	mov    -0x19(%rbp),%al
  102f46:	48 83 c4 20          	add    $0x20,%rsp
  102f4a:	5d                   	pop    %rbp
  102f4b:	c3                   	retq   
  102f4c:	0f 1f 40 00          	nopl   0x0(%rax)

0000000000102f50 <_ZN37_$LT$rich_os..port..Port$LT$T$GT$$GT$5write17h1aa53b25e814758eE>:
  102f50:	55                   	push   %rbp
  102f51:	48 89 e5             	mov    %rsp,%rbp
  102f54:	48 83 ec 20          	sub    $0x20,%rsp
  102f58:	40 88 f0             	mov    %sil,%al
  102f5b:	48 89 7d f8          	mov    %rdi,-0x8(%rbp)
  102f5f:	88 45 f7             	mov    %al,-0x9(%rbp)
  102f62:	48 8b 45 f8          	mov    -0x8(%rbp),%rax
  102f66:	48 89 45 e8          	mov    %rax,-0x18(%rbp)
  102f6a:	8a 4d f7             	mov    -0x9(%rbp),%cl
  102f6d:	88 4d e7             	mov    %cl,-0x19(%rbp)
  102f70:	48 8b 45 e8          	mov    -0x18(%rbp),%rax
  102f74:	66 8b 10             	mov    (%rax),%dx
  102f77:	0f b7 fa             	movzwl %dx,%edi
  102f7a:	0f b6 75 e7          	movzbl -0x19(%rbp),%esi
  102f7e:	e8 2d ff ff ff       	callq  102eb0 <_ZN43_$LT$u8$u20$as$u20$rich_os..port..InOut$GT$8port_out17hf70efeb1366887c6E>
  102f83:	eb 00                	jmp    102f85 <_ZN37_$LT$rich_os..port..Port$LT$T$GT$$GT$5write17h1aa53b25e814758eE+0x35>
  102f85:	48 83 c4 20          	add    $0x20,%rsp
  102f89:	5d                   	pop    %rbp
  102f8a:	c3                   	retq   
  102f8b:	0f 1f 44 00 00       	nopl   0x0(%rax,%rax,1)

0000000000102f90 <_ZN55_$LT$rich_os..pic..ICW1$u20$as$u20$core..ops..BitOr$GT$5bitor17hebb9da9540429af7E>:
  102f90:	55                   	push   %rbp
  102f91:	48 89 e5             	mov    %rsp,%rbp
  102f94:	48 83 ec 30          	sub    $0x30,%rsp
  102f98:	40 88 f0             	mov    %sil,%al
  102f9b:	40 88 f9             	mov    %dil,%cl
  102f9e:	88 4d ef             	mov    %cl,-0x11(%rbp)
  102fa1:	8a 4d ef             	mov    -0x11(%rbp),%cl
  102fa4:	88 4d f0             	mov    %cl,-0x10(%rbp)
  102fa7:	88 45 e7             	mov    %al,-0x19(%rbp)
  102faa:	8a 45 e7             	mov    -0x19(%rbp),%al
  102fad:	88 45 e8             	mov    %al,-0x18(%rbp)
  102fb0:	8a 45 f0             	mov    -0x10(%rbp),%al
  102fb3:	88 45 e0             	mov    %al,-0x20(%rbp)
  102fb6:	8a 45 e8             	mov    -0x18(%rbp),%al
  102fb9:	88 45 d8             	mov    %al,-0x28(%rbp)
  102fbc:	8a 45 e0             	mov    -0x20(%rbp),%al
  102fbf:	0a 45 d8             	or     -0x28(%rbp),%al
  102fc2:	88 45 d0             	mov    %al,-0x30(%rbp)
  102fc5:	8a 45 d0             	mov    -0x30(%rbp),%al
  102fc8:	48 83 c4 30          	add    $0x30,%rsp
  102fcc:	5d                   	pop    %rbp
  102fcd:	c3                   	retq   
  102fce:	66 90                	xchg   %ax,%ax

0000000000102fd0 <_ZN7rich_os3pic11ChainedPics10setup_pics17h67a089e3a1255af8E>:
  102fd0:	55                   	push   %rbp
  102fd1:	48 89 e5             	mov    %rsp,%rbp
  102fd4:	48 81 ec d0 00 00 00 	sub    $0xd0,%rsp
  102fdb:	48 89 7d f8          	mov    %rdi,-0x8(%rbp)
  102fdf:	bf 80 00 00 00       	mov    $0x80,%edi
  102fe4:	48 8b 45 f8          	mov    -0x8(%rbp),%rax
  102fe8:	48 89 45 f0          	mov    %rax,-0x10(%rbp)
  102fec:	e8 ff fe ff ff       	callq  102ef0 <_ZN37_$LT$rich_os..port..Port$LT$T$GT$$GT$3new17h2c53dea323457d4aE>
  102ff1:	66 89 85 66 ff ff ff 	mov    %ax,-0x9a(%rbp)
  102ff8:	66 8b 85 66 ff ff ff 	mov    -0x9a(%rbp),%ax
  102fff:	66 89 45 e8          	mov    %ax,-0x18(%rbp)
  103003:	48 8d 45 e8          	lea    -0x18(%rbp),%rax
  103007:	48 89 45 e0          	mov    %rax,-0x20(%rbp)
  10300b:	48 8b 7d f0          	mov    -0x10(%rbp),%rdi
  10300f:	e8 0c ff ff ff       	callq  102f20 <_ZN37_$LT$rich_os..port..Port$LT$T$GT$$GT$4read17h174f4721f92e17edE>
  103014:	88 45 df             	mov    %al,-0x21(%rbp)
  103017:	48 8b 45 f0          	mov    -0x10(%rbp),%rax
  10301b:	48 83 c0 06          	add    $0x6,%rax
  10301f:	48 89 c7             	mov    %rax,%rdi
  103022:	e8 f9 fe ff ff       	callq  102f20 <_ZN37_$LT$rich_os..port..Port$LT$T$GT$$GT$4read17h174f4721f92e17edE>
  103027:	88 45 de             	mov    %al,-0x22(%rbp)
  10302a:	48 8b 45 f0          	mov    -0x10(%rbp),%rax
  10302e:	48 83 c0 02          	add    $0x2,%rax
  103032:	8a 0d a1 c3 00 00    	mov    0xc3a1(%rip),%cl        # 10f3d9 <const3457>
  103038:	88 8d 60 ff ff ff    	mov    %cl,-0xa0(%rbp)
  10303e:	8a 15 96 c3 00 00    	mov    0xc396(%rip),%dl        # 10f3da <const3458>
  103044:	88 95 58 ff ff ff    	mov    %dl,-0xa8(%rbp)
  10304a:	0f b6 f9             	movzbl %cl,%edi
  10304d:	0f b6 b5 58 ff ff ff 	movzbl -0xa8(%rbp),%esi
  103054:	48 89 85 38 ff ff ff 	mov    %rax,-0xc8(%rbp)
  10305b:	e8 30 ff ff ff       	callq  102f90 <_ZN55_$LT$rich_os..pic..ICW1$u20$as$u20$core..ops..BitOr$GT$5bitor17hebb9da9540429af7E>
  103060:	88 85 57 ff ff ff    	mov    %al,-0xa9(%rbp)
  103066:	8a 85 57 ff ff ff    	mov    -0xa9(%rbp),%al
  10306c:	88 45 d8             	mov    %al,-0x28(%rbp)
  10306f:	48 8b bd 38 ff ff ff 	mov    -0xc8(%rbp),%rdi
  103076:	0f b6 75 d8          	movzbl -0x28(%rbp),%esi
  10307a:	e8 d1 fe ff ff       	callq  102f50 <_ZN37_$LT$rich_os..port..Port$LT$T$GT$$GT$5write17h1aa53b25e814758eE>
  10307f:	48 8d 7d e0          	lea    -0x20(%rbp),%rdi
  103083:	e8 28 10 00 00       	callq  1040b0 <_ZN7rich_os3pic11ChainedPics10setup_pics28_$u7b$$u7b$closure$u7d$$u7d$17hf39a837232cb1933E>
  103088:	48 8b 45 f0          	mov    -0x10(%rbp),%rax
  10308c:	48 83 c0 08          	add    $0x8,%rax
  103090:	8a 0d 43 c3 00 00    	mov    0xc343(%rip),%cl        # 10f3d9 <const3457>
  103096:	88 8d 50 ff ff ff    	mov    %cl,-0xb0(%rbp)
  10309c:	8a 15 38 c3 00 00    	mov    0xc338(%rip),%dl        # 10f3da <const3458>
  1030a2:	88 95 48 ff ff ff    	mov    %dl,-0xb8(%rbp)
  1030a8:	0f b6 f9             	movzbl %cl,%edi
  1030ab:	0f b6 b5 48 ff ff ff 	movzbl -0xb8(%rbp),%esi
  1030b2:	48 89 85 30 ff ff ff 	mov    %rax,-0xd0(%rbp)
  1030b9:	e8 d2 fe ff ff       	callq  102f90 <_ZN55_$LT$rich_os..pic..ICW1$u20$as$u20$core..ops..BitOr$GT$5bitor17hebb9da9540429af7E>
  1030be:	88 85 47 ff ff ff    	mov    %al,-0xb9(%rbp)
  1030c4:	8a 85 47 ff ff ff    	mov    -0xb9(%rbp),%al
  1030ca:	88 45 c8             	mov    %al,-0x38(%rbp)
  1030cd:	48 8b bd 30 ff ff ff 	mov    -0xd0(%rbp),%rdi
  1030d4:	0f b6 75 c8          	movzbl -0x38(%rbp),%esi
  1030d8:	e8 73 fe ff ff       	callq  102f50 <_ZN37_$LT$rich_os..port..Port$LT$T$GT$$GT$5write17h1aa53b25e814758eE>
  1030dd:	48 8d 7d e0          	lea    -0x20(%rbp),%rdi
  1030e1:	e8 ca 0f 00 00       	callq  1040b0 <_ZN7rich_os3pic11ChainedPics10setup_pics28_$u7b$$u7b$closure$u7d$$u7d$17hf39a837232cb1933E>
  1030e6:	be 20 00 00 00       	mov    $0x20,%esi
  1030eb:	48 8b 7d f0          	mov    -0x10(%rbp),%rdi
  1030ef:	e8 5c fe ff ff       	callq  102f50 <_ZN37_$LT$rich_os..port..Port$LT$T$GT$$GT$5write17h1aa53b25e814758eE>
  1030f4:	48 8d 7d e0          	lea    -0x20(%rbp),%rdi
  1030f8:	e8 b3 0f 00 00       	callq  1040b0 <_ZN7rich_os3pic11ChainedPics10setup_pics28_$u7b$$u7b$closure$u7d$$u7d$17hf39a837232cb1933E>
  1030fd:	be 28 00 00 00       	mov    $0x28,%esi
  103102:	48 8b 45 f0          	mov    -0x10(%rbp),%rax
  103106:	48 83 c0 06          	add    $0x6,%rax
  10310a:	48 89 c7             	mov    %rax,%rdi
  10310d:	e8 3e fe ff ff       	callq  102f50 <_ZN37_$LT$rich_os..port..Port$LT$T$GT$$GT$5write17h1aa53b25e814758eE>
  103112:	48 8d 7d e0          	lea    -0x20(%rbp),%rdi
  103116:	e8 95 0f 00 00       	callq  1040b0 <_ZN7rich_os3pic11ChainedPics10setup_pics28_$u7b$$u7b$closure$u7d$$u7d$17hf39a837232cb1933E>
  10311b:	be 04 00 00 00       	mov    $0x4,%esi
  103120:	48 8b 7d f0          	mov    -0x10(%rbp),%rdi
  103124:	e8 27 fe ff ff       	callq  102f50 <_ZN37_$LT$rich_os..port..Port$LT$T$GT$$GT$5write17h1aa53b25e814758eE>
  103129:	48 8d 7d e0          	lea    -0x20(%rbp),%rdi
  10312d:	e8 7e 0f 00 00       	callq  1040b0 <_ZN7rich_os3pic11ChainedPics10setup_pics28_$u7b$$u7b$closure$u7d$$u7d$17hf39a837232cb1933E>
  103132:	be 02 00 00 00       	mov    $0x2,%esi
  103137:	48 8b 45 f0          	mov    -0x10(%rbp),%rax
  10313b:	48 83 c0 06          	add    $0x6,%rax
  10313f:	48 89 c7             	mov    %rax,%rdi
  103142:	e8 09 fe ff ff       	callq  102f50 <_ZN37_$LT$rich_os..port..Port$LT$T$GT$$GT$5write17h1aa53b25e814758eE>
  103147:	48 8d 7d e0          	lea    -0x20(%rbp),%rdi
  10314b:	e8 60 0f 00 00       	callq  1040b0 <_ZN7rich_os3pic11ChainedPics10setup_pics28_$u7b$$u7b$closure$u7d$$u7d$17hf39a837232cb1933E>
  103150:	48 8b 7d f0          	mov    -0x10(%rbp),%rdi
  103154:	8a 05 7f c2 00 00    	mov    0xc27f(%rip),%al        # 10f3d9 <const3457>
  10315a:	88 45 98             	mov    %al,-0x68(%rbp)
  10315d:	0f b6 75 98          	movzbl -0x68(%rbp),%esi
  103161:	e8 ea fd ff ff       	callq  102f50 <_ZN37_$LT$rich_os..port..Port$LT$T$GT$$GT$5write17h1aa53b25e814758eE>
  103166:	48 8d 7d e0          	lea    -0x20(%rbp),%rdi
  10316a:	e8 41 0f 00 00       	callq  1040b0 <_ZN7rich_os3pic11ChainedPics10setup_pics28_$u7b$$u7b$closure$u7d$$u7d$17hf39a837232cb1933E>
  10316f:	48 8b 45 f0          	mov    -0x10(%rbp),%rax
  103173:	48 83 c0 06          	add    $0x6,%rax
  103177:	8a 0d 5c c2 00 00    	mov    0xc25c(%rip),%cl        # 10f3d9 <const3457>
  10317d:	88 4d 88             	mov    %cl,-0x78(%rbp)
  103180:	48 89 c7             	mov    %rax,%rdi
  103183:	0f b6 75 88          	movzbl -0x78(%rbp),%esi
  103187:	e8 c4 fd ff ff       	callq  102f50 <_ZN37_$LT$rich_os..port..Port$LT$T$GT$$GT$5write17h1aa53b25e814758eE>
  10318c:	48 8d 7d e0          	lea    -0x20(%rbp),%rdi
  103190:	e8 1b 0f 00 00       	callq  1040b0 <_ZN7rich_os3pic11ChainedPics10setup_pics28_$u7b$$u7b$closure$u7d$$u7d$17hf39a837232cb1933E>
  103195:	48 8b 7d f0          	mov    -0x10(%rbp),%rdi
  103199:	0f b6 75 df          	movzbl -0x21(%rbp),%esi
  10319d:	e8 ae fd ff ff       	callq  102f50 <_ZN37_$LT$rich_os..port..Port$LT$T$GT$$GT$5write17h1aa53b25e814758eE>
  1031a2:	48 8d 7d e0          	lea    -0x20(%rbp),%rdi
  1031a6:	e8 05 0f 00 00       	callq  1040b0 <_ZN7rich_os3pic11ChainedPics10setup_pics28_$u7b$$u7b$closure$u7d$$u7d$17hf39a837232cb1933E>
  1031ab:	48 8b 45 f0          	mov    -0x10(%rbp),%rax
  1031af:	48 83 c0 06          	add    $0x6,%rax
  1031b3:	48 89 c7             	mov    %rax,%rdi
  1031b6:	0f b6 75 de          	movzbl -0x22(%rbp),%esi
  1031ba:	e8 91 fd ff ff       	callq  102f50 <_ZN37_$LT$rich_os..port..Port$LT$T$GT$$GT$5write17h1aa53b25e814758eE>
  1031bf:	48 8d 7d e0          	lea    -0x20(%rbp),%rdi
  1031c3:	e8 e8 0e 00 00       	callq  1040b0 <_ZN7rich_os3pic11ChainedPics10setup_pics28_$u7b$$u7b$closure$u7d$$u7d$17hf39a837232cb1933E>
  1031c8:	48 81 c4 d0 00 00 00 	add    $0xd0,%rsp
  1031cf:	5d                   	pop    %rbp
  1031d0:	c3                   	retq   
  1031d1:	66 2e 0f 1f 84 00 00 	nopw   %cs:0x0(%rax,%rax,1)
  1031d8:	00 00 00 
  1031db:	0f 1f 44 00 00       	nopl   0x0(%rax,%rax,1)

00000000001031e0 <rust_main>:
  1031e0:	55                   	push   %rbp
  1031e1:	48 89 e5             	mov    %rsp,%rbp
  1031e4:	53                   	push   %rbx
  1031e5:	48 81 ec 78 06 00 00 	sub    $0x678,%rsp
  1031ec:	48 89 7d f0          	mov    %rdi,-0x10(%rbp)
  1031f0:	48 8d 45 c7          	lea    -0x39(%rbp),%rax
  1031f4:	48 8d 0d e0 c1 00 00 	lea    0xc1e0(%rip),%rcx        # 10f3db <byte_str3459>
  1031fb:	48 8b 55 f0          	mov    -0x10(%rbp),%rdx
  1031ff:	48 89 55 e8          	mov    %rdx,-0x18(%rbp)
  103203:	48 89 4d e0          	mov    %rcx,-0x20(%rbp)
  103207:	c6 45 df 1f          	movb   $0x1f,-0x21(%rbp)
  10320b:	40 8a 75 df          	mov    -0x21(%rbp),%sil
  10320f:	48 89 c1             	mov    %rax,%rcx
  103212:	48 83 c1 18          	add    $0x18,%rcx
  103216:	48 89 8d a8 fa ff ff 	mov    %rcx,-0x558(%rbp)
  10321d:	40 88 b5 a7 fa ff ff 	mov    %sil,-0x559(%rbp)
  103224:	48 89 85 98 fa ff ff 	mov    %rax,-0x568(%rbp)
  10322b:	e9 f0 09 00 00       	jmpq   103c20 <rust_main+0xa40>
  103230:	48 8d bd 40 fe ff ff 	lea    -0x1c0(%rbp),%rdi
  103237:	48 8d b5 30 fe ff ff 	lea    -0x1d0(%rbp),%rsi
  10323e:	e8 ed e0 ff ff       	callq  101330 <_ZN4core4iter8iterator8Iterator9enumerate17hfb7c2681ab9a4c93E>
  103243:	48 8d bd 58 fe ff ff 	lea    -0x1a8(%rbp),%rdi
  10324a:	48 8d b5 40 fe ff ff 	lea    -0x1c0(%rbp),%rsi
  103251:	e8 1a ef ff ff       	callq  102170 <_ZN54_$LT$I$u20$as$u20$core..iter..traits..IntoIterator$GT$9into_iter17h14326a507c39824aE>
  103256:	48 8b 85 58 fe ff ff 	mov    -0x1a8(%rbp),%rax
  10325d:	48 89 45 a8          	mov    %rax,-0x58(%rbp)
  103261:	48 8b 85 60 fe ff ff 	mov    -0x1a0(%rbp),%rax
  103268:	48 89 45 b0          	mov    %rax,-0x50(%rbp)
  10326c:	48 8b 85 68 fe ff ff 	mov    -0x198(%rbp),%rax
  103273:	48 89 45 b8          	mov    %rax,-0x48(%rbp)
  103277:	48 8d bd 18 fe ff ff 	lea    -0x1e8(%rbp),%rdi
  10327e:	48 8d 75 a8          	lea    -0x58(%rbp),%rsi
  103282:	e8 49 f2 ff ff       	callq  1024d0 <_ZN81_$LT$core..iter..Enumerate$LT$I$GT$$u20$as$u20$core..iter..iterator..Iterator$GT$4next17h794357da714bce54E>
  103287:	eb 05                	jmp    10328e <rust_main+0xae>
  103289:	e9 ad 00 00 00       	jmpq   10333b <rust_main+0x15b>
  10328e:	48 8b 85 20 fe ff ff 	mov    -0x1e0(%rbp),%rax
  103295:	48 85 c0             	test   %rax,%rax
  103298:	0f 95 c1             	setne  %cl
  10329b:	88 8d 97 fa ff ff    	mov    %cl,-0x569(%rbp)
  1032a1:	75 11                	jne    1032b4 <rust_main+0xd4>
  1032a3:	eb 00                	jmp    1032a5 <rust_main+0xc5>
  1032a5:	8a 85 97 fa ff ff    	mov    -0x569(%rbp),%al
  1032ab:	a8 01                	test   $0x1,%al
  1032ad:	74 da                	je     103289 <rust_main+0xa9>
  1032af:	e9 b7 09 00 00       	jmpq   103c6b <rust_main+0xa8b>
  1032b4:	b8 02 00 00 00       	mov    $0x2,%eax
  1032b9:	89 c1                	mov    %eax,%ecx
  1032bb:	48 8d 55 c7          	lea    -0x39(%rbp),%rdx
  1032bf:	48 8b b5 18 fe ff ff 	mov    -0x1e8(%rbp),%rsi
  1032c6:	48 89 75 a0          	mov    %rsi,-0x60(%rbp)
  1032ca:	48 8b b5 20 fe ff ff 	mov    -0x1e0(%rbp),%rsi
  1032d1:	48 89 75 98          	mov    %rsi,-0x68(%rbp)
  1032d5:	48 8b 75 98          	mov    -0x68(%rbp),%rsi
  1032d9:	40 8a 3e             	mov    (%rsi),%dil
  1032dc:	48 8b 45 a0          	mov    -0x60(%rbp),%rax
  1032e0:	48 89 95 88 fa ff ff 	mov    %rdx,-0x578(%rbp)
  1032e7:	48 f7 e1             	mul    %rcx
  1032ea:	41 0f 90 c0          	seto   %r8b
  1032ee:	41 f6 c0 01          	test   $0x1,%r8b
  1032f2:	40 88 bd 87 fa ff ff 	mov    %dil,-0x579(%rbp)
  1032f9:	48 89 85 78 fa ff ff 	mov    %rax,-0x588(%rbp)
  103300:	0f 85 65 09 00 00    	jne    103c6b <rust_main+0xa8b>
  103306:	b8 18 00 00 00       	mov    $0x18,%eax
  10330b:	89 c6                	mov    %eax,%esi
  10330d:	48 8b bd 88 fa ff ff 	mov    -0x578(%rbp),%rdi
  103314:	48 8b 95 78 fa ff ff 	mov    -0x588(%rbp),%rdx
  10331b:	e8 20 e8 ff ff       	callq  101b40 <_ZN4core5slice74_$LT$impl$u20$core..ops..IndexMut$LT$usize$GT$$u20$for$u20$$u5b$T$u5d$$GT$9index_mut17h84d6f44256c72fd4E>
  103320:	48 89 85 70 fa ff ff 	mov    %rax,-0x590(%rbp)
  103327:	48 8b 85 70 fa ff ff 	mov    -0x590(%rbp),%rax
  10332e:	8a 8d 87 fa ff ff    	mov    -0x579(%rbp),%cl
  103334:	88 08                	mov    %cl,(%rax)
  103336:	e9 3c ff ff ff       	jmpq   103277 <rust_main+0x97>
  10333b:	48 8d bd 78 ff ff ff 	lea    -0x88(%rbp),%rdi
  103342:	48 8d 05 37 bf 00 00 	lea    0xbf37(%rip),%rax        # 10f280 <_ZN7rich_os10vga_buffer6WRITER17h7346cb9e5b3f5e7aE>
  103349:	b9 c4 87 0b 00       	mov    $0xb87c4,%ecx
  10334e:	48 c7 45 90 c4 87 0b 	movq   $0xb87c4,-0x70(%rbp)
  103355:	00 
  103356:	48 8b 55 c7          	mov    -0x39(%rbp),%rdx
  10335a:	48 89 95 f8 fd ff ff 	mov    %rdx,-0x208(%rbp)
  103361:	48 8b 55 cf          	mov    -0x31(%rbp),%rdx
  103365:	48 89 95 00 fe ff ff 	mov    %rdx,-0x200(%rbp)
  10336c:	48 8b 55 d7          	mov    -0x29(%rbp),%rdx
  103370:	48 89 95 08 fe ff ff 	mov    %rdx,-0x1f8(%rbp)
  103377:	48 8b 55 90          	mov    -0x70(%rbp),%rdx
  10337b:	48 8b b5 f8 fd ff ff 	mov    -0x208(%rbp),%rsi
  103382:	48 89 32             	mov    %rsi,(%rdx)
  103385:	48 8b b5 00 fe ff ff 	mov    -0x200(%rbp),%rsi
  10338c:	48 89 72 08          	mov    %rsi,0x8(%rdx)
  103390:	48 8b b5 08 fe ff ff 	mov    -0x1f8(%rbp),%rsi
  103397:	48 89 72 10          	mov    %rsi,0x10(%rdx)
  10339b:	48 89 c6             	mov    %rax,%rsi
  10339e:	89 8d 6c fa ff ff    	mov    %ecx,-0x594(%rbp)
  1033a4:	e8 17 d0 ff ff       	callq  1003c0 <_ZN36_$LT$spin..mutex..Mutex$LT$T$GT$$GT$4lock17hcc1d961b5e07eeebE>
  1033a9:	48 8d bd 78 ff ff ff 	lea    -0x88(%rbp),%rdi
  1033b0:	e8 1b f2 ff ff       	callq  1025d0 <_ZN86_$LT$spin..mutex..MutexGuard$LT$$u27$a$C$$u20$T$GT$$u20$as$u20$core..ops..DerefMut$GT$9deref_mut17h9014bcbc5dcd09afE>
  1033b5:	48 89 85 60 fa ff ff 	mov    %rax,-0x5a0(%rbp)
  1033bc:	48 8d bd 30 fb ff ff 	lea    -0x4d0(%rbp),%rdi
  1033c3:	48 8d 15 06 f0 ff ff 	lea    -0xffa(%rip),%rdx        # 1023d0 <_ZN55_$LT$$RF$$u27$a$u20$T$u20$as$u20$core..fmt..Display$GT$3fmt17hd58574be7c4db377E>
  1033ca:	48 8d 05 8f cc 00 00 	lea    0xcc8f(%rip),%rax        # 110060 <ref3466>
  1033d1:	48 8b 35 c8 ca 00 00 	mov    0xcac8(%rip),%rsi        # 10fea0 <str14787+0x20>
  1033d8:	48 8b 0d c9 ca 00 00 	mov    0xcac9(%rip),%rcx        # 10fea8 <str14787+0x28>
  1033df:	48 89 85 a0 fd ff ff 	mov    %rax,-0x260(%rbp)
  1033e6:	48 8b 85 a0 fd ff ff 	mov    -0x260(%rbp),%rax
  1033ed:	48 89 85 70 ff ff ff 	mov    %rax,-0x90(%rbp)
  1033f4:	48 8b 85 70 ff ff ff 	mov    -0x90(%rbp),%rax
  1033fb:	48 89 b5 58 fa ff ff 	mov    %rsi,-0x5a8(%rbp)
  103402:	48 89 c6             	mov    %rax,%rsi
  103405:	48 89 8d 50 fa ff ff 	mov    %rcx,-0x5b0(%rbp)
  10340c:	e8 9f d8 ff ff       	callq  100cb0 <_ZN4core3fmt10ArgumentV13new17h710935a10de9157aE>
  103411:	48 8b 85 30 fb ff ff 	mov    -0x4d0(%rbp),%rax
  103418:	48 8b 8d 38 fb ff ff 	mov    -0x4c8(%rbp),%rcx
  10341f:	48 89 85 48 fa ff ff 	mov    %rax,-0x5b8(%rbp)
  103426:	48 89 8d 40 fa ff ff 	mov    %rcx,-0x5c0(%rbp)
  10342d:	48 8d bd b8 fd ff ff 	lea    -0x248(%rbp),%rdi
  103434:	b8 01 00 00 00       	mov    $0x1,%eax
  103439:	41 89 c0             	mov    %eax,%r8d
  10343c:	48 8d 8d a8 fd ff ff 	lea    -0x258(%rbp),%rcx
  103443:	48 8b 95 48 fa ff ff 	mov    -0x5b8(%rbp),%rdx
  10344a:	48 89 95 a8 fd ff ff 	mov    %rdx,-0x258(%rbp)
  103451:	48 8b b5 40 fa ff ff 	mov    -0x5c0(%rbp),%rsi
  103458:	48 89 b5 b0 fd ff ff 	mov    %rsi,-0x250(%rbp)
  10345f:	48 8b b5 58 fa ff ff 	mov    -0x5a8(%rbp),%rsi
  103466:	48 8b 95 50 fa ff ff 	mov    -0x5b0(%rbp),%rdx
  10346d:	e8 3e db ff ff       	callq  100fb0 <_ZN4core3fmt9Arguments6new_v117h2ee48eb28c0cff0aE>
  103472:	48 8d b5 b8 fd ff ff 	lea    -0x248(%rbp),%rsi
  103479:	48 8b bd 60 fa ff ff 	mov    -0x5a0(%rbp),%rdi
  103480:	e8 3b da ff ff       	callq  100ec0 <_ZN4core3fmt5Write9write_fmt17h7ffd43ad7946567dE>
  103485:	88 85 2f fb ff ff    	mov    %al,-0x4d1(%rbp)
  10348b:	8a 85 2f fb ff ff    	mov    -0x4d1(%rbp),%al
  103491:	88 85 e8 fd ff ff    	mov    %al,-0x218(%rbp)
  103497:	8a 85 e8 fd ff ff    	mov    -0x218(%rbp),%al
  10349d:	88 85 28 fb ff ff    	mov    %al,-0x4d8(%rbp)
  1034a3:	0f b6 bd 28 fb ff ff 	movzbl -0x4d8(%rbp),%edi
  1034aa:	e8 11 d6 ff ff       	callq  100ac0 <_ZN47_$LT$core..result..Result$LT$T$C$$u20$E$GT$$GT$6unwrap17h6a65383c3a5182fcE>
  1034af:	48 8d bd 78 ff ff ff 	lea    -0x88(%rbp),%rdi
  1034b6:	e8 a5 e8 ff ff       	callq  101d60 <_ZN4drop17h80e900ba5b592571E>
  1034bb:	48 8b 7d e8          	mov    -0x18(%rbp),%rdi
  1034bf:	e8 bc 12 00 00       	callq  104780 <_ZN10multiboot24load17hb2204bdd257de7b7E>
  1034c4:	48 89 85 68 ff ff ff 	mov    %rax,-0x98(%rbp)
  1034cb:	48 8b bd 68 ff ff ff 	mov    -0x98(%rbp),%rdi
  1034d2:	e8 39 13 00 00       	callq  104810 <_ZN10multiboot215BootInformation14memory_map_tag17h2837438976bc3fe0E>
  1034d7:	48 89 85 98 fd ff ff 	mov    %rax,-0x268(%rbp)
  1034de:	48 8d 35 4b bf 00 00 	lea    0xbf4b(%rip),%rsi        # 10f430 <str3467>
  1034e5:	b8 17 00 00 00       	mov    $0x17,%eax
  1034ea:	89 c2                	mov    %eax,%edx
  1034ec:	48 8b bd 98 fd ff ff 	mov    -0x268(%rbp),%rdi
  1034f3:	e8 18 d1 ff ff       	callq  100610 <_ZN38_$LT$core..option..Option$LT$T$GT$$GT$6expect17h3a279f31c26c0a71E>
  1034f8:	48 89 85 60 ff ff ff 	mov    %rax,-0xa0(%rbp)
  1034ff:	48 8d bd 48 ff ff ff 	lea    -0xb8(%rbp),%rdi
  103506:	48 8d 05 73 bd 00 00 	lea    0xbd73(%rip),%rax        # 10f280 <_ZN7rich_os10vga_buffer6WRITER17h7346cb9e5b3f5e7aE>
  10350d:	48 89 c6             	mov    %rax,%rsi
  103510:	e8 ab ce ff ff       	callq  1003c0 <_ZN36_$LT$spin..mutex..Mutex$LT$T$GT$$GT$4lock17hcc1d961b5e07eeebE>
  103515:	48 8d bd 48 ff ff ff 	lea    -0xb8(%rbp),%rdi
  10351c:	e8 af f0 ff ff       	callq  1025d0 <_ZN86_$LT$spin..mutex..MutexGuard$LT$$u27$a$C$$u20$T$GT$$u20$as$u20$core..ops..DerefMut$GT$9deref_mut17h9014bcbc5dcd09afE>
  103521:	48 89 85 38 fa ff ff 	mov    %rax,-0x5c8(%rbp)
  103528:	48 8d bd 58 fd ff ff 	lea    -0x2a8(%rbp),%rdi
  10352f:	48 8d 0d a2 be 00 00 	lea    0xbea2(%rip),%rcx        # 10f3d8 <ref3437>
  103536:	31 c0                	xor    %eax,%eax
  103538:	41 89 c0             	mov    %eax,%r8d
  10353b:	48 8b 35 6e c9 00 00 	mov    0xc96e(%rip),%rsi        # 10feb0 <str14787+0x30>
  103542:	48 8b 15 6f c9 00 00 	mov    0xc96f(%rip),%rdx        # 10feb8 <str14787+0x38>
  103549:	e8 62 da ff ff       	callq  100fb0 <_ZN4core3fmt9Arguments6new_v117h2ee48eb28c0cff0aE>
  10354e:	48 8d b5 58 fd ff ff 	lea    -0x2a8(%rbp),%rsi
  103555:	48 8b bd 38 fa ff ff 	mov    -0x5c8(%rbp),%rdi
  10355c:	e8 5f d9 ff ff       	callq  100ec0 <_ZN4core3fmt5Write9write_fmt17h7ffd43ad7946567dE>
  103561:	88 85 27 fb ff ff    	mov    %al,-0x4d9(%rbp)
  103567:	8a 85 27 fb ff ff    	mov    -0x4d9(%rbp),%al
  10356d:	88 85 88 fd ff ff    	mov    %al,-0x278(%rbp)
  103573:	8a 85 88 fd ff ff    	mov    -0x278(%rbp),%al
  103579:	88 85 20 fb ff ff    	mov    %al,-0x4e0(%rbp)
  10357f:	0f b6 bd 20 fb ff ff 	movzbl -0x4e0(%rbp),%edi
  103586:	e8 35 d5 ff ff       	callq  100ac0 <_ZN47_$LT$core..result..Result$LT$T$C$$u20$E$GT$$GT$6unwrap17h6a65383c3a5182fcE>
  10358b:	48 8d bd 48 ff ff ff 	lea    -0xb8(%rbp),%rdi
  103592:	e8 c9 e7 ff ff       	callq  101d60 <_ZN4drop17h80e900ba5b592571E>
  103597:	48 8d bd 20 fd ff ff 	lea    -0x2e0(%rbp),%rdi
  10359e:	48 8b b5 60 ff ff ff 	mov    -0xa0(%rbp),%rsi
  1035a5:	e8 86 10 00 00       	callq  104630 <_ZN10multiboot210memory_map12MemoryMapTag12memory_areas17hcebd930c093b8d74E>
  1035aa:	48 8d bd 38 fd ff ff 	lea    -0x2c8(%rbp),%rdi
  1035b1:	48 8d b5 20 fd ff ff 	lea    -0x2e0(%rbp),%rsi
  1035b8:	e8 43 ec ff ff       	callq  102200 <_ZN54_$LT$I$u20$as$u20$core..iter..traits..IntoIterator$GT$9into_iter17h53db3a2c15f917efE>
  1035bd:	48 8b 85 38 fd ff ff 	mov    -0x2c8(%rbp),%rax
  1035c4:	48 89 85 28 ff ff ff 	mov    %rax,-0xd8(%rbp)
  1035cb:	48 8b 85 40 fd ff ff 	mov    -0x2c0(%rbp),%rax
  1035d2:	48 89 85 30 ff ff ff 	mov    %rax,-0xd0(%rbp)
  1035d9:	48 8b 85 48 fd ff ff 	mov    -0x2b8(%rbp),%rax
  1035e0:	48 89 85 38 ff ff ff 	mov    %rax,-0xc8(%rbp)
  1035e7:	48 8d bd 28 ff ff ff 	lea    -0xd8(%rbp),%rdi
  1035ee:	e8 ed 10 00 00       	callq  1046e0 <_ZN89_$LT$multiboot2..memory_map..MemoryAreaIter$u20$as$u20$core..iter..iterator..Iterator$GT$4next17h96af31255da8f73aE>
  1035f3:	48 89 85 18 fd ff ff 	mov    %rax,-0x2e8(%rbp)
  1035fa:	eb 18                	jmp    103614 <rust_main+0x434>
  1035fc:	48 8b bd 68 ff ff ff 	mov    -0x98(%rbp),%rdi
  103603:	e8 c8 11 00 00       	callq  1047d0 <_ZN10multiboot215BootInformation16elf_sections_tag17hc47944b5275e2493E>
  103608:	48 89 85 a0 fc ff ff 	mov    %rax,-0x360(%rbp)
  10360f:	e9 d3 01 00 00       	jmpq   1037e7 <rust_main+0x607>
  103614:	48 8b 85 18 fd ff ff 	mov    -0x2e8(%rbp),%rax
  10361b:	48 85 c0             	test   %rax,%rax
  10361e:	0f 95 c1             	setne  %cl
  103621:	88 8d 37 fa ff ff    	mov    %cl,-0x5c9(%rbp)
  103627:	75 11                	jne    10363a <rust_main+0x45a>
  103629:	eb 00                	jmp    10362b <rust_main+0x44b>
  10362b:	8a 85 37 fa ff ff    	mov    -0x5c9(%rbp),%al
  103631:	a8 01                	test   $0x1,%al
  103633:	74 c7                	je     1035fc <rust_main+0x41c>
  103635:	e9 31 06 00 00       	jmpq   103c6b <rust_main+0xa8b>
  10363a:	48 8d bd 08 ff ff ff 	lea    -0xf8(%rbp),%rdi
  103641:	48 8d 05 38 bc 00 00 	lea    0xbc38(%rip),%rax        # 10f280 <_ZN7rich_os10vga_buffer6WRITER17h7346cb9e5b3f5e7aE>
  103648:	48 8b 8d 18 fd ff ff 	mov    -0x2e8(%rbp),%rcx
  10364f:	48 89 8d 20 ff ff ff 	mov    %rcx,-0xe0(%rbp)
  103656:	48 89 c6             	mov    %rax,%rsi
  103659:	e8 62 cd ff ff       	callq  1003c0 <_ZN36_$LT$spin..mutex..Mutex$LT$T$GT$$GT$4lock17hcc1d961b5e07eeebE>
  10365e:	48 8d bd 08 ff ff ff 	lea    -0xf8(%rbp),%rdi
  103665:	e8 66 ef ff ff       	callq  1025d0 <_ZN86_$LT$spin..mutex..MutexGuard$LT$$u27$a$C$$u20$T$GT$$u20$as$u20$core..ops..DerefMut$GT$9deref_mut17h9014bcbc5dcd09afE>
  10366a:	48 89 85 28 fa ff ff 	mov    %rax,-0x5d8(%rbp)
  103671:	48 8d bd 10 fb ff ff 	lea    -0x4f0(%rbp),%rdi
  103678:	48 8d 15 61 6a 00 00 	lea    0x6a61(%rip),%rdx        # 10a0e0 <_ZN4core3fmt3num53_$LT$impl$u20$core..fmt..LowerHex$u20$for$u20$u64$GT$3fmt17h071989fe5a582119E>
  10367f:	48 8b 35 3a c8 00 00 	mov    0xc83a(%rip),%rsi        # 10fec0 <str14787+0x40>
  103686:	48 8b 05 3b c8 00 00 	mov    0xc83b(%rip),%rax        # 10fec8 <str14787+0x48>
  10368d:	48 8b 8d 20 ff ff ff 	mov    -0xe0(%rbp),%rcx
  103694:	4c 8b 85 20 ff ff ff 	mov    -0xe0(%rbp),%r8
  10369b:	49 83 c0 08          	add    $0x8,%r8
  10369f:	48 89 8d a8 fc ff ff 	mov    %rcx,-0x358(%rbp)
  1036a6:	4c 89 85 b0 fc ff ff 	mov    %r8,-0x350(%rbp)
  1036ad:	48 8b 8d a8 fc ff ff 	mov    -0x358(%rbp),%rcx
  1036b4:	48 89 8d 00 ff ff ff 	mov    %rcx,-0x100(%rbp)
  1036bb:	48 8b 8d b0 fc ff ff 	mov    -0x350(%rbp),%rcx
  1036c2:	48 89 8d f8 fe ff ff 	mov    %rcx,-0x108(%rbp)
  1036c9:	48 8b 8d 00 ff ff ff 	mov    -0x100(%rbp),%rcx
  1036d0:	48 89 b5 20 fa ff ff 	mov    %rsi,-0x5e0(%rbp)
  1036d7:	48 89 ce             	mov    %rcx,%rsi
  1036da:	48 89 85 18 fa ff ff 	mov    %rax,-0x5e8(%rbp)
  1036e1:	e8 5a d5 ff ff       	callq  100c40 <_ZN4core3fmt10ArgumentV13new17h5896756d47a52523E>
  1036e6:	48 8b 85 10 fb ff ff 	mov    -0x4f0(%rbp),%rax
  1036ed:	48 8b 8d 18 fb ff ff 	mov    -0x4e8(%rbp),%rcx
  1036f4:	48 89 85 10 fa ff ff 	mov    %rax,-0x5f0(%rbp)
  1036fb:	48 89 8d 08 fa ff ff 	mov    %rcx,-0x5f8(%rbp)
  103702:	48 8d bd 00 fb ff ff 	lea    -0x500(%rbp),%rdi
  103709:	48 8d 15 d0 69 00 00 	lea    0x69d0(%rip),%rdx        # 10a0e0 <_ZN4core3fmt3num53_$LT$impl$u20$core..fmt..LowerHex$u20$for$u20$u64$GT$3fmt17h071989fe5a582119E>
  103710:	48 8b b5 f8 fe ff ff 	mov    -0x108(%rbp),%rsi
  103717:	e8 24 d5 ff ff       	callq  100c40 <_ZN4core3fmt10ArgumentV13new17h5896756d47a52523E>
  10371c:	48 8b 95 00 fb ff ff 	mov    -0x500(%rbp),%rdx
  103723:	48 8b b5 08 fb ff ff 	mov    -0x4f8(%rbp),%rsi
  10372a:	48 89 95 00 fa ff ff 	mov    %rdx,-0x600(%rbp)
  103731:	48 89 b5 f8 f9 ff ff 	mov    %rsi,-0x608(%rbp)
  103738:	48 8d bd d8 fc ff ff 	lea    -0x328(%rbp),%rdi
  10373f:	b8 02 00 00 00       	mov    $0x2,%eax
  103744:	41 89 c0             	mov    %eax,%r8d
  103747:	48 8d 8d b8 fc ff ff 	lea    -0x348(%rbp),%rcx
  10374e:	48 8b 95 10 fa ff ff 	mov    -0x5f0(%rbp),%rdx
  103755:	48 89 95 b8 fc ff ff 	mov    %rdx,-0x348(%rbp)
  10375c:	48 8b b5 08 fa ff ff 	mov    -0x5f8(%rbp),%rsi
  103763:	48 89 b5 c0 fc ff ff 	mov    %rsi,-0x340(%rbp)
  10376a:	4c 8b 8d 00 fa ff ff 	mov    -0x600(%rbp),%r9
  103771:	4c 89 8d c8 fc ff ff 	mov    %r9,-0x338(%rbp)
  103778:	4c 8b 95 f8 f9 ff ff 	mov    -0x608(%rbp),%r10
  10377f:	4c 89 95 d0 fc ff ff 	mov    %r10,-0x330(%rbp)
  103786:	48 8b b5 20 fa ff ff 	mov    -0x5e0(%rbp),%rsi
  10378d:	48 8b 95 18 fa ff ff 	mov    -0x5e8(%rbp),%rdx
  103794:	e8 17 d8 ff ff       	callq  100fb0 <_ZN4core3fmt9Arguments6new_v117h2ee48eb28c0cff0aE>
  103799:	48 8d b5 d8 fc ff ff 	lea    -0x328(%rbp),%rsi
  1037a0:	48 8b bd 28 fa ff ff 	mov    -0x5d8(%rbp),%rdi
  1037a7:	e8 14 d7 ff ff       	callq  100ec0 <_ZN4core3fmt5Write9write_fmt17h7ffd43ad7946567dE>
  1037ac:	88 85 ff fa ff ff    	mov    %al,-0x501(%rbp)
  1037b2:	8a 85 ff fa ff ff    	mov    -0x501(%rbp),%al
  1037b8:	88 85 08 fd ff ff    	mov    %al,-0x2f8(%rbp)
  1037be:	8a 85 08 fd ff ff    	mov    -0x2f8(%rbp),%al
  1037c4:	88 85 f8 fa ff ff    	mov    %al,-0x508(%rbp)
  1037ca:	0f b6 bd f8 fa ff ff 	movzbl -0x508(%rbp),%edi
  1037d1:	e8 ea d2 ff ff       	callq  100ac0 <_ZN47_$LT$core..result..Result$LT$T$C$$u20$E$GT$$GT$6unwrap17h6a65383c3a5182fcE>
  1037d6:	48 8d bd 08 ff ff ff 	lea    -0xf8(%rbp),%rdi
  1037dd:	e8 7e e5 ff ff       	callq  101d60 <_ZN4drop17h80e900ba5b592571E>
  1037e2:	e9 00 fe ff ff       	jmpq   1035e7 <rust_main+0x407>
  1037e7:	48 8d 35 62 bc 00 00 	lea    0xbc62(%rip),%rsi        # 10f450 <str3470>
  1037ee:	b8 19 00 00 00       	mov    $0x19,%eax
  1037f3:	89 c2                	mov    %eax,%edx
  1037f5:	48 8b bd a0 fc ff ff 	mov    -0x360(%rbp),%rdi
  1037fc:	e8 9f ce ff ff       	callq  1006a0 <_ZN38_$LT$core..option..Option$LT$T$GT$$GT$6expect17hc59c0f205e0f0dedE>
  103801:	48 89 85 f0 fe ff ff 	mov    %rax,-0x110(%rbp)
  103808:	48 8d bd d8 fe ff ff 	lea    -0x128(%rbp),%rdi
  10380f:	48 8d 05 6a ba 00 00 	lea    0xba6a(%rip),%rax        # 10f280 <_ZN7rich_os10vga_buffer6WRITER17h7346cb9e5b3f5e7aE>
  103816:	48 89 c6             	mov    %rax,%rsi
  103819:	e8 a2 cb ff ff       	callq  1003c0 <_ZN36_$LT$spin..mutex..Mutex$LT$T$GT$$GT$4lock17hcc1d961b5e07eeebE>
  10381e:	48 8d bd d8 fe ff ff 	lea    -0x128(%rbp),%rdi
  103825:	e8 a6 ed ff ff       	callq  1025d0 <_ZN86_$LT$spin..mutex..MutexGuard$LT$$u27$a$C$$u20$T$GT$$u20$as$u20$core..ops..DerefMut$GT$9deref_mut17h9014bcbc5dcd09afE>
  10382a:	48 89 85 f0 f9 ff ff 	mov    %rax,-0x610(%rbp)
  103831:	48 8d bd 60 fc ff ff 	lea    -0x3a0(%rbp),%rdi
  103838:	48 8d 0d 99 bb 00 00 	lea    0xbb99(%rip),%rcx        # 10f3d8 <ref3437>
  10383f:	31 c0                	xor    %eax,%eax
  103841:	41 89 c0             	mov    %eax,%r8d
  103844:	48 8b 35 85 c6 00 00 	mov    0xc685(%rip),%rsi        # 10fed0 <str14787+0x50>
  10384b:	48 8b 15 86 c6 00 00 	mov    0xc686(%rip),%rdx        # 10fed8 <str14787+0x58>
  103852:	e8 59 d7 ff ff       	callq  100fb0 <_ZN4core3fmt9Arguments6new_v117h2ee48eb28c0cff0aE>
  103857:	48 8d b5 60 fc ff ff 	lea    -0x3a0(%rbp),%rsi
  10385e:	48 8b bd f0 f9 ff ff 	mov    -0x610(%rbp),%rdi
  103865:	e8 56 d6 ff ff       	callq  100ec0 <_ZN4core3fmt5Write9write_fmt17h7ffd43ad7946567dE>
  10386a:	88 85 f7 fa ff ff    	mov    %al,-0x509(%rbp)
  103870:	8a 85 f7 fa ff ff    	mov    -0x509(%rbp),%al
  103876:	88 85 90 fc ff ff    	mov    %al,-0x370(%rbp)
  10387c:	8a 85 90 fc ff ff    	mov    -0x370(%rbp),%al
  103882:	88 85 f0 fa ff ff    	mov    %al,-0x510(%rbp)
  103888:	0f b6 bd f0 fa ff ff 	movzbl -0x510(%rbp),%edi
  10388f:	e8 2c d2 ff ff       	callq  100ac0 <_ZN47_$LT$core..result..Result$LT$T$C$$u20$E$GT$$GT$6unwrap17h6a65383c3a5182fcE>
  103894:	48 8d bd d8 fe ff ff 	lea    -0x128(%rbp),%rdi
  10389b:	e8 c0 e4 ff ff       	callq  101d60 <_ZN4drop17h80e900ba5b592571E>
  1038a0:	48 8d bd 38 fc ff ff 	lea    -0x3c8(%rbp),%rdi
  1038a7:	48 8b b5 f0 fe ff ff 	mov    -0x110(%rbp),%rsi
  1038ae:	e8 2d 0c 00 00       	callq  1044e0 <_ZN10multiboot212elf_sections14ElfSectionsTag8sections17hbcc9d2a3917016beE>
  1038b3:	48 8d bd 48 fc ff ff 	lea    -0x3b8(%rbp),%rdi
  1038ba:	48 8d b5 38 fc ff ff 	lea    -0x3c8(%rbp),%rsi
  1038c1:	e8 9a ea ff ff       	callq  102360 <_ZN54_$LT$I$u20$as$u20$core..iter..traits..IntoIterator$GT$9into_iter17h9696a253119527c4E>
  1038c6:	48 8b 85 48 fc ff ff 	mov    -0x3b8(%rbp),%rax
  1038cd:	48 89 85 c0 fe ff ff 	mov    %rax,-0x140(%rbp)
  1038d4:	48 8b 85 50 fc ff ff 	mov    -0x3b0(%rbp),%rax
  1038db:	48 89 85 c8 fe ff ff 	mov    %rax,-0x138(%rbp)
  1038e2:	48 8d bd c0 fe ff ff 	lea    -0x140(%rbp),%rdi
  1038e9:	e8 72 0c 00 00       	callq  104560 <_ZN91_$LT$multiboot2..elf_sections..ElfSectionIter$u20$as$u20$core..iter..iterator..Iterator$GT$4next17h31b5efa28e26b5fbE>
  1038ee:	48 89 85 30 fc ff ff 	mov    %rax,-0x3d0(%rbp)
  1038f5:	eb 1b                	jmp    103912 <rust_main+0x732>
  1038f7:	48 8d bd 88 fb ff ff 	lea    -0x478(%rbp),%rdi
  1038fe:	48 8d 05 9b b9 00 00 	lea    0xb99b(%rip),%rax        # 10f2a0 <_ZN7rich_os3pic4PICS17hd05b5166bba24775E>
  103905:	48 89 c6             	mov    %rax,%rsi
  103908:	e8 43 ca ff ff       	callq  100350 <_ZN36_$LT$spin..mutex..Mutex$LT$T$GT$$GT$4lock17h03f1204486b499d4E>
  10390d:	e9 49 02 00 00       	jmpq   103b5b <rust_main+0x97b>
  103912:	48 8b 85 30 fc ff ff 	mov    -0x3d0(%rbp),%rax
  103919:	48 85 c0             	test   %rax,%rax
  10391c:	0f 95 c1             	setne  %cl
  10391f:	88 8d ef f9 ff ff    	mov    %cl,-0x611(%rbp)
  103925:	75 11                	jne    103938 <rust_main+0x758>
  103927:	eb 00                	jmp    103929 <rust_main+0x749>
  103929:	8a 85 ef f9 ff ff    	mov    -0x611(%rbp),%al
  10392f:	a8 01                	test   $0x1,%al
  103931:	74 c4                	je     1038f7 <rust_main+0x717>
  103933:	e9 33 03 00 00       	jmpq   103c6b <rust_main+0xa8b>
  103938:	48 8d bd a0 fe ff ff 	lea    -0x160(%rbp),%rdi
  10393f:	48 8d 05 3a b9 00 00 	lea    0xb93a(%rip),%rax        # 10f280 <_ZN7rich_os10vga_buffer6WRITER17h7346cb9e5b3f5e7aE>
  103946:	48 8b 8d 30 fc ff ff 	mov    -0x3d0(%rbp),%rcx
  10394d:	48 89 8d b8 fe ff ff 	mov    %rcx,-0x148(%rbp)
  103954:	48 89 c6             	mov    %rax,%rsi
  103957:	e8 64 ca ff ff       	callq  1003c0 <_ZN36_$LT$spin..mutex..Mutex$LT$T$GT$$GT$4lock17hcc1d961b5e07eeebE>
  10395c:	48 8d bd a0 fe ff ff 	lea    -0x160(%rbp),%rdi
  103963:	e8 68 ec ff ff       	callq  1025d0 <_ZN86_$LT$spin..mutex..MutexGuard$LT$$u27$a$C$$u20$T$GT$$u20$as$u20$core..ops..DerefMut$GT$9deref_mut17h9014bcbc5dcd09afE>
  103968:	48 89 85 e0 f9 ff ff 	mov    %rax,-0x620(%rbp)
  10396f:	48 8d bd e0 fa ff ff 	lea    -0x520(%rbp),%rdi
  103976:	48 8d 15 63 67 00 00 	lea    0x6763(%rip),%rdx        # 10a0e0 <_ZN4core3fmt3num53_$LT$impl$u20$core..fmt..LowerHex$u20$for$u20$u64$GT$3fmt17h071989fe5a582119E>
  10397d:	48 8b 35 5c c5 00 00 	mov    0xc55c(%rip),%rsi        # 10fee0 <str14787+0x60>
  103984:	48 8b 05 5d c5 00 00 	mov    0xc55d(%rip),%rax        # 10fee8 <str14787+0x68>
  10398b:	48 8b 8d b8 fe ff ff 	mov    -0x148(%rbp),%rcx
  103992:	48 83 c1 10          	add    $0x10,%rcx
  103996:	4c 8b 85 b8 fe ff ff 	mov    -0x148(%rbp),%r8
  10399d:	49 83 c0 20          	add    $0x20,%r8
  1039a1:	4c 8b 8d b8 fe ff ff 	mov    -0x148(%rbp),%r9
  1039a8:	49 83 c1 08          	add    $0x8,%r9
  1039ac:	48 89 8d a8 fb ff ff 	mov    %rcx,-0x458(%rbp)
  1039b3:	4c 89 85 b0 fb ff ff 	mov    %r8,-0x450(%rbp)
  1039ba:	4c 89 8d b8 fb ff ff 	mov    %r9,-0x448(%rbp)
  1039c1:	48 8b 8d a8 fb ff ff 	mov    -0x458(%rbp),%rcx
  1039c8:	48 89 8d 98 fe ff ff 	mov    %rcx,-0x168(%rbp)
  1039cf:	48 8b 8d b0 fb ff ff 	mov    -0x450(%rbp),%rcx
  1039d6:	48 89 8d 90 fe ff ff 	mov    %rcx,-0x170(%rbp)
  1039dd:	48 8b 8d b8 fb ff ff 	mov    -0x448(%rbp),%rcx
  1039e4:	48 89 8d 88 fe ff ff 	mov    %rcx,-0x178(%rbp)
  1039eb:	48 8b 8d 98 fe ff ff 	mov    -0x168(%rbp),%rcx
  1039f2:	48 89 b5 d8 f9 ff ff 	mov    %rsi,-0x628(%rbp)
  1039f9:	48 89 ce             	mov    %rcx,%rsi
  1039fc:	48 89 85 d0 f9 ff ff 	mov    %rax,-0x630(%rbp)
  103a03:	e8 38 d2 ff ff       	callq  100c40 <_ZN4core3fmt10ArgumentV13new17h5896756d47a52523E>
  103a08:	48 8b 85 e0 fa ff ff 	mov    -0x520(%rbp),%rax
  103a0f:	48 8b 8d e8 fa ff ff 	mov    -0x518(%rbp),%rcx
  103a16:	48 89 85 c8 f9 ff ff 	mov    %rax,-0x638(%rbp)
  103a1d:	48 89 8d c0 f9 ff ff 	mov    %rcx,-0x640(%rbp)
  103a24:	48 8d bd d0 fa ff ff 	lea    -0x530(%rbp),%rdi
  103a2b:	48 8d 15 ae 66 00 00 	lea    0x66ae(%rip),%rdx        # 10a0e0 <_ZN4core3fmt3num53_$LT$impl$u20$core..fmt..LowerHex$u20$for$u20$u64$GT$3fmt17h071989fe5a582119E>
  103a32:	48 8b b5 90 fe ff ff 	mov    -0x170(%rbp),%rsi
  103a39:	e8 02 d2 ff ff       	callq  100c40 <_ZN4core3fmt10ArgumentV13new17h5896756d47a52523E>
  103a3e:	48 8b 95 d0 fa ff ff 	mov    -0x530(%rbp),%rdx
  103a45:	48 8b b5 d8 fa ff ff 	mov    -0x528(%rbp),%rsi
  103a4c:	48 89 95 b8 f9 ff ff 	mov    %rdx,-0x648(%rbp)
  103a53:	48 89 b5 b0 f9 ff ff 	mov    %rsi,-0x650(%rbp)
  103a5a:	48 8d bd c0 fa ff ff 	lea    -0x540(%rbp),%rdi
  103a61:	48 8d 15 78 66 00 00 	lea    0x6678(%rip),%rdx        # 10a0e0 <_ZN4core3fmt3num53_$LT$impl$u20$core..fmt..LowerHex$u20$for$u20$u64$GT$3fmt17h071989fe5a582119E>
  103a68:	48 8b b5 88 fe ff ff 	mov    -0x178(%rbp),%rsi
  103a6f:	e8 cc d1 ff ff       	callq  100c40 <_ZN4core3fmt10ArgumentV13new17h5896756d47a52523E>
  103a74:	48 8b 95 c0 fa ff ff 	mov    -0x540(%rbp),%rdx
  103a7b:	48 8b b5 c8 fa ff ff 	mov    -0x538(%rbp),%rsi
  103a82:	48 89 95 a8 f9 ff ff 	mov    %rdx,-0x658(%rbp)
  103a89:	48 89 b5 a0 f9 ff ff 	mov    %rsi,-0x660(%rbp)
  103a90:	48 8d bd f0 fb ff ff 	lea    -0x410(%rbp),%rdi
  103a97:	b8 03 00 00 00       	mov    $0x3,%eax
  103a9c:	41 89 c0             	mov    %eax,%r8d
  103a9f:	48 8d 8d c0 fb ff ff 	lea    -0x440(%rbp),%rcx
  103aa6:	48 8b 95 c8 f9 ff ff 	mov    -0x638(%rbp),%rdx
  103aad:	48 89 95 c0 fb ff ff 	mov    %rdx,-0x440(%rbp)
  103ab4:	48 8b b5 c0 f9 ff ff 	mov    -0x640(%rbp),%rsi
  103abb:	48 89 b5 c8 fb ff ff 	mov    %rsi,-0x438(%rbp)
  103ac2:	4c 8b 8d b8 f9 ff ff 	mov    -0x648(%rbp),%r9
  103ac9:	4c 89 8d d0 fb ff ff 	mov    %r9,-0x430(%rbp)
  103ad0:	4c 8b 95 b0 f9 ff ff 	mov    -0x650(%rbp),%r10
  103ad7:	4c 89 95 d8 fb ff ff 	mov    %r10,-0x428(%rbp)
  103ade:	4c 8b 9d a8 f9 ff ff 	mov    -0x658(%rbp),%r11
  103ae5:	4c 89 9d e0 fb ff ff 	mov    %r11,-0x420(%rbp)
  103aec:	48 8b 9d a0 f9 ff ff 	mov    -0x660(%rbp),%rbx
  103af3:	48 89 9d e8 fb ff ff 	mov    %rbx,-0x418(%rbp)
  103afa:	48 8b b5 d8 f9 ff ff 	mov    -0x628(%rbp),%rsi
  103b01:	48 8b 95 d0 f9 ff ff 	mov    -0x630(%rbp),%rdx
  103b08:	e8 a3 d4 ff ff       	callq  100fb0 <_ZN4core3fmt9Arguments6new_v117h2ee48eb28c0cff0aE>
  103b0d:	48 8d b5 f0 fb ff ff 	lea    -0x410(%rbp),%rsi
  103b14:	48 8b bd e0 f9 ff ff 	mov    -0x620(%rbp),%rdi
  103b1b:	e8 a0 d3 ff ff       	callq  100ec0 <_ZN4core3fmt5Write9write_fmt17h7ffd43ad7946567dE>
  103b20:	88 85 bf fa ff ff    	mov    %al,-0x541(%rbp)
  103b26:	8a 85 bf fa ff ff    	mov    -0x541(%rbp),%al
  103b2c:	88 85 20 fc ff ff    	mov    %al,-0x3e0(%rbp)
  103b32:	8a 85 20 fc ff ff    	mov    -0x3e0(%rbp),%al
  103b38:	88 85 b8 fa ff ff    	mov    %al,-0x548(%rbp)
  103b3e:	0f b6 bd b8 fa ff ff 	movzbl -0x548(%rbp),%edi
  103b45:	e8 76 cf ff ff       	callq  100ac0 <_ZN47_$LT$core..result..Result$LT$T$C$$u20$E$GT$$GT$6unwrap17h6a65383c3a5182fcE>
  103b4a:	48 8d bd a0 fe ff ff 	lea    -0x160(%rbp),%rdi
  103b51:	e8 0a e2 ff ff       	callq  101d60 <_ZN4drop17h80e900ba5b592571E>
  103b56:	e9 87 fd ff ff       	jmpq   1038e2 <rust_main+0x702>
  103b5b:	48 8d bd 88 fb ff ff 	lea    -0x478(%rbp),%rdi
  103b62:	e8 99 ea ff ff       	callq  102600 <_ZN86_$LT$spin..mutex..MutexGuard$LT$$u27$a$C$$u20$T$GT$$u20$as$u20$core..ops..DerefMut$GT$9deref_mut17hf8b70cff835405b4E>
  103b67:	48 89 85 98 f9 ff ff 	mov    %rax,-0x668(%rbp)
  103b6e:	48 8b bd 98 f9 ff ff 	mov    -0x668(%rbp),%rdi
  103b75:	e8 56 f4 ff ff       	callq  102fd0 <_ZN7rich_os3pic11ChainedPics10setup_pics17h67a089e3a1255af8E>
  103b7a:	48 8d bd 88 fb ff ff 	lea    -0x478(%rbp),%rdi
  103b81:	e8 8a e1 ff ff       	callq  101d10 <_ZN4drop17h0da496a0673bac19E>
  103b86:	48 8d bd 70 fe ff ff 	lea    -0x190(%rbp),%rdi
  103b8d:	48 8d 05 ec b6 00 00 	lea    0xb6ec(%rip),%rax        # 10f280 <_ZN7rich_os10vga_buffer6WRITER17h7346cb9e5b3f5e7aE>
  103b94:	48 89 c6             	mov    %rax,%rsi
  103b97:	e8 24 c8 ff ff       	callq  1003c0 <_ZN36_$LT$spin..mutex..Mutex$LT$T$GT$$GT$4lock17hcc1d961b5e07eeebE>
  103b9c:	48 8d bd 70 fe ff ff 	lea    -0x190(%rbp),%rdi
  103ba3:	e8 28 ea ff ff       	callq  1025d0 <_ZN86_$LT$spin..mutex..MutexGuard$LT$$u27$a$C$$u20$T$GT$$u20$as$u20$core..ops..DerefMut$GT$9deref_mut17h9014bcbc5dcd09afE>
  103ba8:	48 89 85 90 f9 ff ff 	mov    %rax,-0x670(%rbp)
  103baf:	48 8d bd 48 fb ff ff 	lea    -0x4b8(%rbp),%rdi
  103bb6:	48 8d 0d 1b b8 00 00 	lea    0xb81b(%rip),%rcx        # 10f3d8 <ref3437>
  103bbd:	31 c0                	xor    %eax,%eax
  103bbf:	41 89 c0             	mov    %eax,%r8d
  103bc2:	48 8b 35 27 c3 00 00 	mov    0xc327(%rip),%rsi        # 10fef0 <str14787+0x70>
  103bc9:	48 8b 15 28 c3 00 00 	mov    0xc328(%rip),%rdx        # 10fef8 <str14787+0x78>
  103bd0:	e8 db d3 ff ff       	callq  100fb0 <_ZN4core3fmt9Arguments6new_v117h2ee48eb28c0cff0aE>
  103bd5:	48 8d b5 48 fb ff ff 	lea    -0x4b8(%rbp),%rsi
  103bdc:	48 8b bd 90 f9 ff ff 	mov    -0x670(%rbp),%rdi
  103be3:	e8 d8 d2 ff ff       	callq  100ec0 <_ZN4core3fmt5Write9write_fmt17h7ffd43ad7946567dE>
  103be8:	88 85 b7 fa ff ff    	mov    %al,-0x549(%rbp)
  103bee:	8a 85 b7 fa ff ff    	mov    -0x549(%rbp),%al
  103bf4:	88 85 78 fb ff ff    	mov    %al,-0x488(%rbp)
  103bfa:	8a 85 78 fb ff ff    	mov    -0x488(%rbp),%al
  103c00:	88 85 b0 fa ff ff    	mov    %al,-0x550(%rbp)
  103c06:	0f b6 bd b0 fa ff ff 	movzbl -0x550(%rbp),%edi
  103c0d:	e8 ae ce ff ff       	callq  100ac0 <_ZN47_$LT$core..result..Result$LT$T$C$$u20$E$GT$$GT$6unwrap17h6a65383c3a5182fcE>
  103c12:	48 8d bd 70 fe ff ff 	lea    -0x190(%rbp),%rdi
  103c19:	e8 42 e1 ff ff       	callq  101d60 <_ZN4drop17h80e900ba5b592571E>
  103c1e:	eb fe                	jmp    103c1e <rust_main+0xa3e>
  103c20:	48 8b 85 98 fa ff ff 	mov    -0x568(%rbp),%rax
  103c27:	48 8b 8d a8 fa ff ff 	mov    -0x558(%rbp),%rcx
  103c2e:	48 39 c8             	cmp    %rcx,%rax
  103c31:	48 89 85 88 f9 ff ff 	mov    %rax,-0x678(%rbp)
